Microsoft (R) Macro Assembler Version 6.11a		    03/07/09 22:34:58
Disasm							     Page 1 - 1


				; x86.asm
				;
				; ÚÄÄÄÄÄÄÄÄÄÄÄÄÄÄÄÄÄÄÄÄÄÄÄÄ¿
				; ³ Disassembly Algorithms ³
				; ÀÄÄÄÄÄÄÄÄÄÄÄÄÄÄÄÄÄÄÄÄÄÄÄÄÙ
				;
				; Exodus native primative
				;


				TITLE Disasm

				    .MODEL tiny

				    .STACK 0h

				INCLUDE \exodus\source\common\keylist.asp
			      C ; keylist.asp
			      C 
 = 3B00			      C f1                      EQU 03b00h
 = 3C00			      C f2                      EQU 03c00h
 = 3D00			      C f3                      EQU 03d00h
 = 3E00			      C f4                      EQU 03e00h
 = 3F00			      C f5                      EQU 03f00h
 = 4000			      C f6                      EQU 04000h
 = 4100			      C f7                      EQU 04100h
 = 4200			      C f8                      EQU 04200h
 = 4300			      C f9                      EQU 04300h
 = 4400			      C f10                     EQU 04400h
 = 8500			      C f11                     EQU 08500h
 = 8600			      C f12                     EQU 08600h
 = 6800			      C alt_f1                  EQU 06800h
 = 6900			      C alt_f2                  EQU 06900h
 = 6A00			      C alt_f3                  EQU 06a00h
 = 6B00			      C alt_f4                  EQU 06b00h
 = 6C00			      C alt_f5                  EQU 06c00h
 = 6D00			      C alt_f6                  EQU 06d00h
 = 6E00			      C alt_f7                  EQU 06e00h
 = 6F00			      C alt_f8                  EQU 06f00h
 = 7000			      C alt_f9                  EQU 07000h
 = 7100			      C alt_f10                 EQU 07100h
 = 8B00			      C alt_f11                 EQU 08b00h
 = 8C00			      C alt_f12                 EQU 08c00h
 = 5E00			      C ctrl_f1                 EQU 05e00h
 = 5F00			      C ctrl_f2                 EQU 05f00h
 = 6000			      C ctrl_f3                 EQU 06000h
 = 6100			      C ctrl_f4                 EQU 06100h
 = 6200			      C ctrl_f5                 EQU 06200h
 = 6300			      C ctrl_f6                 EQU 06300h
 = 6400			      C ctrl_f7                 EQU 06400h
 = 6500			      C ctrl_f8                 EQU 06500h
 = 6600			      C ctrl_f9                 EQU 06600h
 = 6700			      C ctrl_f10                EQU 06700h
 = 8900			      C ctrl_f11                EQU 08900h
 = 8A00			      C ctrl_f12                EQU 08a00h
 = 5400			      C shift_f1                EQU 05400h
 = 5500			      C shift_f2                EQU 05500h
 = 5600			      C shift_f3                EQU 05600h
 = 5700			      C shift_f4                EQU 05700h
 = 5800			      C shift_f5                EQU 05800h
 = 5900			      C shift_f6                EQU 05900h
 = 5A00			      C shift_f7                EQU 05a00h
 = 5B00			      C shift_f8                EQU 05b00h
 = 5C00			      C shift_f9                EQU 05c00h
 = 5D00			      C shift_f10               EQU 05d00h
 = 8700			      C shift_f11               EQU 08700h
 = 8800			      C shift_f12               EQU 08800h
 = 48E0			      C grey_up                 EQU 048e0h
 = 50E0			      C grey_down               EQU 050e0h
 = 4BE0			      C grey_left               EQU 04be0h
 = 4DE0			      C grey_right              EQU 04de0h
 = 49E0			      C grey_pgup               EQU 049e0h
 = 51E0			      C grey_pgdn               EQU 051e0h
 = 52E0			      C grey_insert             EQU 052e0h
 = 53E0			      C grey_delete             EQU 053e0h
 = 47E0			      C grey_home               EQU 047e0h
 = 4FE0			      C grey_end                EQU 04fe0h
 = E00D			      C grey_enter              EQU 0e00dh
 = 9800			      C alt_grey_up             EQU 09800h
 = A000			      C alt_grey_down           EQU 0a000h
 = 9B00			      C alt_grey_left           EQU 09b00h
 = 9D00			      C alt_grey_right          EQU 09d00h
 = 9900			      C alt_grey_pgup           EQU 09900h
 = A100			      C alt_grey_pgdn           EQU 0a100h
 = A200			      C alt_grey_insert         EQU 0a200h
 = A300			      C alt_grey_delete         EQU 0a300h
 = 9700			      C alt_grey_home           EQU 09700h
 = 9F00			      C alt_grey_end            EQU 09f00h
 = A600			      C alt_grey_enter          EQU 0a600h
 = 8DE0			      C ctrl_grey_up            EQU 08de0h
 = 91E0			      C ctrl_grey_down          EQU 091e0h
 = 73E0			      C ctrl_grey_left          EQU 073e0h
 = 74E0			      C ctrl_grey_right         EQU 074e0h
 = 84E0			      C ctrl_grey_pgup          EQU 084e0h
 = 76E0			      C ctrl_grey_pgdn          EQU 076e0h
 = 92E0			      C ctrl_grey_insert        EQU 092e0h
 = 93E0			      C ctrl_grey_delete        EQU 093e0h
 = 77E0			      C ctrl_grey_home          EQU 077e0h
 = 75E0			      C ctrl_grey_end           EQU 075e0h
 = E00A			      C ctrl_grey_enter         EQU 0e00ah
 = 48E0			      C shift_grey_up           EQU 048e0h
 = 50E0			      C shift_grey_down         EQU 050e0h
 = 4BE0			      C shift_grey_left         EQU 04be0h
 = 4DE0			      C shift_grey_right        EQU 04de0h
 = 49E0			      C shift_grey_pgup         EQU 049e0h
 = 51E0			      C shift_grey_pgdn         EQU 051e0h
 = 52E0			      C shift_grey_insert       EQU 052e0h
 = 53E0			      C shift_grey_delete       EQU 053e0h
 = 47E0			      C shift_grey_home         EQU 047e0h
 = 4FE0			      C shift_grey_end          EQU 04fe0h
 = E00D			      C shift_grey_enter        EQU 0e00dh
 = 4800			      C up                      EQU 04800h
 = 5000			      C down                    EQU 05000h
 = 4B00			      C left                    EQU 04b00h
 = 4D00			      C right                   EQU 04d00h
 = 4900			      C pgup                    EQU 04900h
 = 5100			      C pgdn                    EQU 05100h
 = 5200			      C insert                  EQU 05200h
 = 5300			      C delete                  EQU 05300h
 = 4700			      C home                    EQU 04700h
 = 4F00			      C end_key                 EQU 04f00h
 = 4C00			      C center                  EQU 04c00h
 = 0E08			      C backspace               EQU 00e08h
 = 0F09			      C tab                     EQU 00f09h
 = 011B			      C escape                  EQU 0011bh
 = 1C0D			      C enter_key               EQU 01c0dh
 = A500			      C alt_tab                 EQU 0a500h
 = 0100			      C alt_escape              EQU 00100h
 = 8D00			      C ctrl_up                 EQU 08d00h
 = 9100			      C ctrl_down               EQU 09100h
 = 7300			      C ctrl_left               EQU 07300h
 = 7400			      C ctrl_right              EQU 07400h
 = 8400			      C ctrl_pgup               EQU 08400h
 = 7600			      C ctrl_pgdn               EQU 07600h
 = 9200			      C ctrl_insert             EQU 09200h
 = 9300			      C ctrl_delete             EQU 09300h
 = 7700			      C ctrl_home               EQU 07700h
 = 7500			      C ctrl_end                EQU 07500h
 = 8F00			      C ctrl_center             EQU 08f00h
 = 9400			      C ctrl_tab                EQU 09400h
 = 011B			      C ctrl_escape             EQU 0011bh
 = 1C0A			      C ctrl_enter              EQU 01c0ah
 = 0F00			      C shift_tab               EQU 00f00h
 = 011B			      C shift_escape            EQU 0011bh
 = 1E00			      C alt_a                   EQU 01e00h
 = 3000			      C alt_b                   EQU 03000h
 = 2E00			      C alt_c                   EQU 02e00h
 = 2000			      C alt_d                   EQU 02000h
 = 1200			      C alt_e                   EQU 01200h
 = 2100			      C alt_f                   EQU 02100h
 = 2200			      C alt_g                   EQU 02200h
 = 2300			      C alt_h                   EQU 02300h
 = 1700			      C alt_i                   EQU 01700h
 = 2400			      C alt_j                   EQU 02400h
 = 2500			      C alt_k                   EQU 02500h
 = 2600			      C alt_l                   EQU 02600h
 = 3200			      C alt_m                   EQU 03200h
 = 3100			      C alt_n                   EQU 03100h
 = 1800			      C alt_o                   EQU 01800h
 = 1900			      C alt_p                   EQU 01900h
 = 1000			      C alt_q                   EQU 01000h
 = 1300			      C alt_r                   EQU 01300h
 = 1F00			      C alt_s                   EQU 01f00h
 = 1400			      C alt_t                   EQU 01400h
 = 1600			      C alt_u                   EQU 01600h
 = 2F00			      C alt_v                   EQU 02f00h
 = 1100			      C alt_w                   EQU 01100h
 = 2D00			      C alt_x                   EQU 02d00h
 = 1500			      C alt_y                   EQU 01500h
 = 2C00			      C alt_z                   EQU 02c00h
 = 7800			      C alt_1                   EQU 07800h
 = 7900			      C alt_2                   EQU 07900h
 = 7A00			      C alt_3                   EQU 07a00h
 = 7B00			      C alt_4                   EQU 07b00h
 = 7C00			      C alt_5                   EQU 07c00h
 = 7D00			      C alt_6                   EQU 07d00h
 = 7E00			      C alt_7                   EQU 07e00h
 = 7F00			      C alt_8                   EQU 07f00h
 = 8000			      C alt_9                   EQU 08000h
 = 8100			      C alt_0                   EQU 08100h
 = 8200			      C alt_hyphen              EQU 08200h
 = 8300			      C alt_equal               EQU 08300h
 = 2B00			      C alt_backslash           EQU 02b00h
 = 3300			      C alt_comma               EQU 03300h
 = 3400			      C alt_period              EQU 03400h
 = 3500			      C alt_slash               EQU 03500h
 = 2900			      C alt_tilda               EQU 02900h
 = 1E00			      C ctrl_a                  EQU 01e00h
 = 3002			      C ctrl_b                  EQU 03002h
 = 2E03			      C ctrl_c                  EQU 02e03h
 = 2004			      C ctrl_d                  EQU 02004h
 = 1205			      C ctrl_e                  EQU 01205h
 = 2106			      C ctrl_f                  EQU 02106h
 = 2207			      C ctrl_g                  EQU 02207h
 = 2308			      C ctrl_h                  EQU 02308h
 = 1709			      C ctrl_i                  EQU 01709h
 = 240A			      C ctrl_j                  EQU 0240ah
 = 250B			      C ctrl_k                  EQU 0250bh
 = 260C			      C ctrl_l                  EQU 0260ch
 = 320D			      C ctrl_m                  EQU 0320dh
 = 310E			      C ctrl_n                  EQU 0310eh
 = 180F			      C ctrl_o                  EQU 0180fh
 = 1910			      C ctrl_p                  EQU 01910h
 = 1011			      C ctrl_q                  EQU 01011h
 = 1312			      C ctrl_r                  EQU 01312h
 = 1F13			      C ctrl_s                  EQU 01f13h
 = 1414			      C ctrl_t                  EQU 01414h
 = 1615			      C ctrl_u                  EQU 01615h
 = 2F16			      C ctrl_v                  EQU 02f16h
 = 1117			      C ctrl_w                  EQU 01117h
 = 2D18			      C ctrl_x                  EQU 02d18h
 = 1519			      C ctrl_y                  EQU 01519h
 = 2C1A			      C ctrl_z                  EQU 02c1ah
 = 0300			      C ctrl_2                  EQU 00300h
 = 071E			      C ctrl_6                  EQU 0071eh
 = 0C1F			      C ctrl_hyphen             EQU 00c1fh
 = 2B1C			      C ctrl_backslash          EQU 02b1ch
 = FFFF			      C ctrl_1                  EQU 0ffffh
 = FFFF			      C ctrl_comma              EQU 0ffffh
 = FFFF			      C ctrl_period             EQU 0ffffh
 = FFFF			      C ctrl_slash              EQU 0ffffh
 = FFFF			      C ctrl_tilda              EQU 0ffffh
 = FFFF			      C ctrl_equal              EQU 0ffffh
 = FFFF			      C ctrl_7                  EQU 0ffffh
 = FFFF			      C ctrl_8                  EQU 0ffffh
 = FFFF			      C ctrl_9                  EQU 0ffffh
 = FFFF			      C ctrl_0                  EQU 0ffffh
 = FFFF			      C ctrl_3                  EQU 0ffffh
 = FFFF			      C ctrl_4                  EQU 0ffffh
 = FFFF			      C ctrl_5                  EQU 0ffffh
			      C 
				INCLUDE \exodus\source\common\equates.asp
			      C ; equates.asp
			      C ;
			      C ; Exodus constants.  These are used at various places.
			      C ; This file provides a common area to modify constant values, rather than sifting through programs, etc.
			      C ;
			      C 
			      C 
			      C 
			      C INCLUDE x86_eq.asp
			      C ; x86_eq.asp
			      C ;
			      C ; Constants specific to the Intel architecture
			      C ;
			      C 
			      C 
			      C 
 = 0000			      C _TSS_BACK_LINK              EQU 0
 = 0004			      C _TSS_ESP0                   EQU 4
 = 0008			      C _TSS_SS0                    EQU 8
 = 000C			      C _TSS_ESP1                   EQU 12
 = 0010			      C _TSS_SS1                    EQU 16
 = 0014			      C _TSS_ESP2                   EQU 20
 = 0018			      C _TSS_SS2                    EQU 24
 = 001C			      C _TSS_CR3                    EQU 28
 = 0020			      C _TSS_EIP                    EQU 32
 = 0024			      C _TSS_EFLAGS                 EQU 36
 = 0028			      C _TSS_EAX                    EQU 40
 = 002C			      C _TSS_ECX                    EQU 44
 = 0030			      C _TSS_EDX                    EQU 48
 = 0034			      C _TSS_EBX                    EQU 52
 = 0038			      C _TSS_ESP                    EQU 56
 = 003C			      C _TSS_EBP                    EQU 60
 = 0040			      C _TSS_ESI                    EQU 64
 = 0044			      C _TSS_EDI                    EQU 68
 = 0048			      C _TSS_ES                     EQU 72
 = 004C			      C _TSS_CS                     EQU 76
 = 0050			      C _TSS_SS                     EQU 80
 = 0054			      C _TSS_DS                     EQU 84
 = 0058			      C _TSS_FS                     EQU 88
 = 005C			      C _TSS_GS                     EQU 92
 = 0060			      C _TSS_LDT                    EQU 96
 = 0064			      C _TSS_TRAP_BIT               EQU 100
 = 0001			      C _TSS_TRAP_BIT_MASK          EQU 1b
 = 0066			      C _TSS_IO_MAP                 EQU 102
			      C ; The following area is used by Exodus.  It appears immediate after the TSS in memory
 = 0068			      C _TSS_FPU_SAVE_AREA          EQU 104
			      C 
			      C 
			      C ; EFLAGS register constants to access individual flags
 = 0000			      C _EFLAGS_CF                  EQU 0
 = 0002			      C _EFLAGS_PF                  EQU 2
 = 0004			      C _EFLAGS_ACF                 EQU 4
 = 0006			      C _EFLAGS_ZF                  EQU 6
 = 0007			      C _EFLAGS_SF                  EQU 7
 = 0008			      C _EFLAGS_TF                  EQU 8
 = 0009			      C _EFLAGS_IF                  EQU 9
 = 000A			      C _EFLAGS_DF                  EQU 10
 = 000B			      C _EFLAGS_OF                  EQU 11
 = 000C			      C _EFLAGS_IOPL                EQU 12
 = 000E			      C _EFLAGS_NT                  EQU 14
 = 0010			      C _EFLAGS_RF                  EQU 16
 = 0011			      C _EFLAGS_VM                  EQU 17
			      C ; Masks to access specific bits
 = 0001			      C _EFLAGS_CF_MASK             EQU  1b SHL _EFLAGS_CF
 = 0004			      C _EFLAGS_PF_MASK             EQU  1b SHL _EFLAGS_PF
 = 0010			      C _EFLAGS_ACF_MASK            EQU  1b SHL _EFLAGS_ACF
 = 0040			      C _EFLAGS_ZF_MASK             EQU  1b SHL _EFLAGS_ZF
 = 0080			      C _EFLAGS_SF_MASK             EQU  1b SHL _EFLAGS_SF
 = 0100			      C _EFLAGS_TF_MASK             EQU  1b SHL _EFLAGS_TF
 = 0200			      C _EFLAGS_IF_MASK             EQU  1b SHL _EFLAGS_IF
 = 0400			      C _EFLAGS_DF_MASK             EQU  1b SHL _EFLAGS_DF
 = 0800			      C _EFLAGS_OF_MASK             EQU  1b SHL _EFLAGS_OF
 = 3000			      C _EFLAGS_IOPL_MASK           EQU 11b SHL _EFLAGS_IOPL
 = 4000			      C _EFLAGS_NT_MASK             EQU  1b SHL _EFLAGS_NT
 = 00010000		      C _EFLAGS_RF_MASK             EQU  1b SHL _EFLAGS_RF
 = 00020000		      C _EFLAGS_VM_MASK             EQU  1b SHL _EFLAGS_VM
			      C 
 = 1000			      C _CW_INFINITY                EQU 1000000000000b
 = 0C00			      C _CW_ROUNDING                EQU  110000000000b
 = 0000			      C _CW_ROUNDING_00             EQU  000000000000b
 = 0400			      C _CW_ROUNDING_01             EQU  010000000000b
 = 0800			      C _CW_ROUNDING_10             EQU  100000000000b
 = 0C00			      C _CW_ROUNDING_11             EQU  110000000000b
 = 0300			      C _CW_PRECISION               EQU    1100000000b
 = 0000			      C _CW_PRECISION_00            EQU    0000000000b
 = 0100			      C _CW_PRECISION_01            EQU    0100000000b
 = 0200			      C _CW_PRECISION_10            EQU    1000000000b
 = 0300			      C _CW_PRECISION_11            EQU    1100000000b
 = 0020			      C _CW_PM                      EQU        100000b
 = 0010			      C _CW_UM                      EQU         10000b
 = 0008			      C _CW_OM                      EQU          1000b
 = 0004			      C _CW_ZM                      EQU           100b
 = 0002			      C _CW_DM                      EQU            10b
 = 0001			      C _CW_IM                      EQU             1b
			      C 
 = 8000			      C _SW_BUSY                    EQU 1000000000000000b
 = 4000			      C _SW_C3                      EQU  100000000000000b
 = 3800			      C _SW_TOS                     EQU   11100000000000b
 = 0400			      C _SW_C2                      EQU      10000000000b
 = 0200			      C _SW_C1                      EQU       1000000000b
 = 0100			      C _SW_C0                      EQU        100000000b
 = 0080			      C _SW_ERROR_SUMMARY           EQU         10000000b
 = 0040			      C _SW_STACK_FAULT             EQU          1000000b
 = 0020			      C _SW_PE                      EQU           100000b
 = 0010			      C _SW_UE                      EQU            10000b
 = 0008			      C _SW_OE                      EQU             1000b
 = 0004			      C _SW_ZE                      EQU              100b
 = 0002			      C _SW_DE                      EQU               10b
 = 0001			      C _SW_IE                      EQU                1b
			      C 
			      C 
			      C 
			      C ; ÚÄÄÄÄÄÄÄÄÄÄÄÄÄ¿
			      C ; ³ GDT ENTRIES ³
			      C ; ÀÄÄÄÄÄÄÄÄÄÄÄÄÄÙ
 = 0008			      C     _sIDT                       EQU 1 * 8       ; IDT
 = 0010			      C     _sGDT                       EQU 2 * 8       ; GDT
 = 0018			      C     _sSTACK                     EQU 3 * 8       ; STACK
 = 0020			      C     _sCODE                      EQU 4 * 8       ; kernel CODE for kernel code
 = 0048			      C     _sDATA                      EQU 9 * 8       ; kernel DATA selector for kernel data
 = 0028			      C     _sGRAPHICS                  EQU 5 * 8       ; Graphics video (0a0000h)
 = 0030			      C     _sMONO                      EQU 6 * 8       ; Mono video (0b0000h)
 = 0038			      C     _sVGA                       EQU 7 * 8       ; VGA video (0b8000h)
 = 0040			      C     _sALL_MEM                   EQU 8 * 8       ; All memory (for debugging)
			      C     ; 9 is above, _sDATA
 = 0050			      C     _sEXODUS_MEM                EQU 10 * 8      ; Exodus assigned memory
 = 0058			      C     _sEXODUS_PORTS              EQU 11 * 8      ; Exodus assigned ports
 = 0060			      C     _sEXODUS_INTS               EQU 12 * 8      ; Exodus assigned ints
			      C     ;_sNOT_USED                                 ; available
 = 0070			      C     _sEXODUS_TSS                EQU 14 * 8      ; Exodus TSS
 = 0078			      C     _sEXODUS_TASK_GATE          EQU 15 * 8      ; Exodus kernel task gate (points to _sEXODUS_TSS)
 = 0080			      C     _sEXODUS_SLAVE_TSS          EQU 16 * 8      ; Exodus Slave TSS
 = 0088			      C     _sEXODUS_SLAVE_TASK_GATE    EQU 17 * 8      ; Exodus kernel slave task gate (points to _sEXODUS_SLAVE_TSS)
			      C     ;_sNOT USED
 = 0098			      C     _sPRIMATIVES                EQU 19 * 8      ; Primative structure for natives
 = 00A0			      C     _sPRIMATIVE_LOAD_INFO       EQU 20 * 8      ; Primative load information (for reporting on each driver)
 = 00A8			      C     _sSYSTEM                    EQU 21 * 8      ; Exodus system memory
 = 00B0			      C     _sEXODUS_REQUESTOR          EQU 22 * 8      ; Call gate to Exodus's requestor() function
 = 00B8			      C     _sSYSTEM_RING1              EQU 23 * 8      ; Exodus system memory for ring-1 apps
 = 00C0			      C     _sSYSTEM_RING2              EQU 24 * 8      ; Exodus system memory for ring-2 apps
 = 00C8			      C     _sSYSTEM_RING3              EQU 25 * 8      ; Exodus system memory for ring-3 apps
 = 00D0			      C     _sDEBI_screen               EQU 26 * 8      ; low-level DEBI debugger's save screen buffer
 = 00D8			      C     _sDEBI_memory               EQU 27 * 8      ; low-level DEBI debugger's memory
 = 00E0			      C     _sFLOPPY_TRACK              EQU 28 * 8      ; Floppy disk data I/O for one full track
 = 00E8			      C     _sVGA_BACKUP                EQU 29 * 8      ; VGA video (060000h, used when in a graphics mode so writes
			      C                                                 ;  to the text screen are still valid)
 = 00F0			      C     _sDEBI_screen2              EQU 30 * 8      ; low-level DEBI debugger's save screen buffer2 (for popups and menus)
 = 00F8			      C     _sDEBI_temp                 EQU 31 * 8      ; low-level DEBI debugger's temporary selector (used for various things)
 = 0100			      C     _sEXODUS_OBJECTS            EQU 32 * 8      ; Exodus objects
 = 0108			      C     _sTASK_SWITCH_TSS           EQU 33 * 8      ; Task Manager's switch_task() function
 = 0110			      C     _sTASK_SWITCH_TASK_GATE     EQU 34 * 8      ; Task Manager's task gate (points to _sTASK_SWITCH_TSS)
 = 0118			      C     _sTASK_STACK                EQU 35 * 8      ; Task Manger task's stack
 = 0120			      C     _sSTACK0                    EQU 36 * 8      ; Exodus Stack 0
 = 0128			      C     _sSTACK1                    EQU 37 * 8      ; Exodus Stack 1
 = 0130			      C     _sSTACK2                    EQU 38 * 8      ; Exodus Stack 2
 = 0138			      C     _sDEBI_dt                   EQU 39 * 8      ; low-level DEBI debugger's DT storage
 = 0140			      C     _sDEBI_np                   EQU 40 * 8      ; low-level DEBI debugger's NP storage
 = 0148			      C     _sDEBI_rp                   EQU 41 * 8      ; low-level DEBI debugger's RP storage
			      C 
			      C   ; Variable base/limit GDT slots setup in INIT32.ASP
 = 0190			      C     _sEXODUS_INI                EQU 50 * 8      ; Holds the parsed EXODUS.INI sructure
 = 0198			      C     _sEXODUS_INI_ERRORS         EQU 51 * 8      ; Holds any errors found while parsing EXODUS.INI
 = 01A0			      C     _sTASK_SYSTEM               EQU 52 * 8      ; Holds all tasks
			      C 
 = 5DA0			      C     _cgTEMP_PRIMATIVE_MAIN      EQU 2996 * 8
 = 5DA8			      C     _cgTEMP_PRIMATIVE_REQUESTOR EQU 2997 * 8
 = 5DB0			      C     _csTEMP_PRIMATIVE           EQU 2998 * 8
 = 5DB8			      C     _dsTEMP_PRIMATIVE           EQU 2999 * 8
			      C 
			      C 
			      C 
			      C ; ÚÄÄÄÄÄÄÄÄÄÄÄ¿
			      C ; ³ CONSTANTS ³
			      C ; ÀÄÄÄÄÄÄÄÄÄÄÄÙ
 = 00C8			      C     _MIN_PRIMATIVE              EQU 200                             ; Start of the primatives
 = 0BB3			      C     _MAX_PRIMATIVE              EQU 2995                            ; End of the primatives
 = 0FFF			      C     _lastGDT                    EQU 4095                            ; Last valid GDT in the GDT
 = 0032			      C     _firstASSIGNMENT            EQU 50                              ; The first Exodus assigned GDT entry for various items
 = 00C7			      C     _lastASSIGNMENT             EQU 199                             ; The last Exodus assigned GDT entry for various items
 = 0BB8			      C     _firstUSER_ASSIGNMENT       EQU 3000
 = 0FFF			      C     _lastUSER_ASSIGNMENT        EQU 4095
 = 00C7			      C     _sGDT_init                  EQU 199                             ; Only initialize the first 199 GDT entries
			      C 
			      C 
			      C   ; Required memory structures for Exodus
			      C   ; Refer to Bootup(internal) document for definitive memory locations
 = 0008A000		      C     _sIDT_base                  EQU 8a000h
 = 0800			      C     _sIDT_limit                 EQU 800h
 = 0800			      C     _sGDT_base                  EQU 0800h
 = 8000			      C     _sGDT_limit                 EQU 8000h
 = 00098000		      C     _sSTACK_base                EQU 98000h
 = 8000			      C     _sSTACK_limit               EQU 8000h
 = 00010000		      C     _sCODE_base                 EQU 10000h
 = 00040000		      C     _sCODE_limit                EQU 40000h
 = 00010000		      C     _sDATA_base                 EQU 10000h
 = 00030000		      C     _sDATA_limit                EQU 30000h
 = 000A0000		      C     _sGRAPHICS_base             EQU 0a0000h
 = 00010000		      C     _sGRAPHICS_limit            EQU 10000h
 = 000B0000		      C     _sMONO_base                 EQU 0b0000h
 = 8000			      C     _sMONO_limit                EQU 8000h
 = 000B8000		      C     _sVGA_base                  EQU 0b8000h     ; Also, see _sVGA_BACKUP_ below
 = 8000			      C     _sVGA_limit                 EQU 8000h
 = 0000			      C     _sALL_MEM_base              EQU 0
 = FFFFFFFF		      C     _sALL_MEM_limit             EQU 0ffffffffh
 = 00070C00		      C     _sEXODUS_MEM_base           EQU 70c00h
 = 4000			      C     _sEXODUS_MEM_limit          EQU 4000h
 = 0006CC00		      C     _sEXODUS_PORTS_base         EQU 6cc00h
 = 4000			      C     _sEXODUS_PORTS_limit        EQU 4000h
 = 00097E00		      C     _sEXODUS_INTS_base          EQU 97e00h
 = 0200			      C     _sEXODUS_INTS_limit         EQU 200h
 = 00068100		      C     _sEXODUS_TSS_base           EQU 68100h
 = 0100			      C     _sEXODUS_TSS_limit          EQU 100h        ; 256 bytes
			      C    ;_sEXODUS_TASK_GATE          EQU task gate pointing to _sEXODUS_TSS
 = 00068200		      C     _sEXODUS_SLAVE_TSS_base     EQU 68200h
 = 0100			      C     _sEXODUS_SLAVE_TSS_limit    EQU 100h        ; 256 bytes
 = 0008D380		      C     _sPRIMATIVES_base           EQU 8d380h
 = 4000			      C     _sPRIMATIVES_limit          EQU 4000h       ; 16k
 = 0008C380		      C     _sPRIMATIVE_LOAD_INFO_base  EQU 8c380h
 = 1000			      C     _sPRIMATIVE_LOAD_INFO_limit EQU 1000h       ; 4k
 = 00089400		      C     _sSYSTEM_base               EQU 89400h
 = 0C00			      C     _sSYSTEM_limit              EQU 0c00h       ; 3k
 = 0800			      C     _sSYSTEM_USER_limit         EQU 0800h       ; 2k
 = 00281400		      C     _sDEBI_screen_base          EQU 281400h                         ; ; ; ; ; Added 2 MB, 02/26/2009 - RCH
 = 8000			      C     _sDEBI_screen_limit         EQU 8000h       ; 32k
 = 00279400		      C     _sDEBI_memory_base          EQU 279400h                         ; ; ; ; ; Added 2 MB, 02/26/2009 - RCH
 = 8000			      C     _sDEBI_memory_limit         EQU 8000h       ; 32k
 = 00074C00		      C     _sFLOPPY_TRACK_base         EQU 74c00h
 = 4800			      C     _sFLOPPY_TRACK_limit        EQU 4800h       ; 512 bytes per sector * 18 sectors * 2 sides = 18k
 = 00060000		      C     _sVGA_BACKUP_base           EQU 60000h      ; Note, the backup area is used when in graphics modes that use a0000h
 = 8000			      C     _sVGA_BACKUP_limit          EQU 8000h       ; so all video writes to the text window are still saved
 = 00258000		      C     _sDEBI_screen2_base         EQU 258000h
 = 00028000		      C     _sDEBI_screen2_limit        EQU 28000h       ; 32k
 = 00068000		      C     _sTASK_SWITCH_TSS_base      EQU 68000h
 = 0100			      C     _sTASK_SWITCH_TSS_limit     EQU 100h        ; 256 bytes
 = 00220000		      C     _sTASK_STACK_base           EQU 220000h                         ; ; ; ; ; Added 1 MB, 03/01/2009 - RCH
 = 8000			      C     _sTASK_STACK_limit          EQU 8000h       ; 32k
 = 00095380		      C     _sSTACK0_base               EQU 95380h
 = 2000			      C     _sSTACK0_limit              EQU 2000h       ; 8k
 = 00093380		      C     _sSTACK1_base               EQU 93380h
 = 2000			      C     _sSTACK1_limit              EQU 2000h       ; 8k
 = 00091380		      C     _sSTACK2_base               EQU 91380h
 = 2000			      C     _sSTACK2_limit              EQU 2000h       ; 8k
 = 00240000		      C     _sDEBI_dt_base              EQU 240000h                         ; ; ; ; ; Added 1 MB, 03/01/2009 - RCH
 = 8000			      C     _sDEBI_dt_limit             EQU 8000h       ; 32k
 = 00248000		      C     _sDEBI_np_base              EQU 248000h                         ; ; ; ; ; Added 1 MB, 03/01/2009 - RCH
 = 8000			      C     _sDEBI_np_limit             EQU 8000h       ; 32k
 = 00250000		      C     _sDEBI_rp_base              EQU 250000h                         ; ; ; ; ; Added 1 MB, 03/01/2009 - RCH
 = 8000			      C     _sDEBI_rp_limit             EQU 8000h       ; 32k
			      C 
 = 00050000		      C     _sEXODUS_OBJECTS_base       EQU 50000h
 = 8000			      C     _sEXODUS_OBJECTS_limit      EQU 8000h       ; 32k
 = 00200000		      C     _sEXODUS_INI_base           EQU 200000h     ; 1MB               ; ; ; ; ; Added 1 MB, 03/01/2009 - RCH
 = 00010000		      C     _sEXODUS_INI_limit          EQU 10000h      ; 64k
 = 00210000		      C     _sEXODUS_INI_ERRORS_base    EQU 210000h     ; 1MB + 64k         ; ; ; ; ; Added 1 MB, 03/01/2009 - RCH
 = 4000			      C     _sEXODUS_INI_ERRORS_limit   EQU 4000h       ; 16k
 = 00210000		      C     _sTASK_SYSTEM_base          EQU 210000h     ; 1MB + 64k         ; ; ; ; ; Added 1 MB, 03/01/2009 - RCH
 = 00010000		      C     _sTASK_SYSTEM_limit         EQU 010000h     ; 64k
			      C 
			      C 
			      C ; ÚÄÄÄÄÄÄÄÄÄÄÄÄÄÄÄÄÄÄÄ¿
			      C ; ³ BOOT DT STRUCTURE ³
			      C ; ÀÄÄÄÄÄÄÄÄÄÄÄÄÄÄÄÄÄÄÄÙ
 = 0000			      C     _BOOT_DT_object_type        EQU 0
 = 0001			      C     _BOOT_DT_days               EQU 1
 = 0005			      C     _BOOT_DT_seconds            EQU 5
 = 0008			      C     _BOOT_DT_rp_offset          EQU 8
 = 000A			      C     _BOOT_DT_entry_type         EQU 10
 = 000B			      C     _BOOT_DT_np_offset          EQU 11
			      C 
			      C 
			      C 
			      C 
			      C 
			      C ; ÚÄÄÄÄÄÄÄÄÄÄÄÄÄÄÄÄÄÄÄÄÄÄÄÄÄÄÄÄÄÄÄÄ¿
			      C ; ³ BOOT PARAMETER BLOCK STRUCTURE ³
			      C ; ÀÄÄÄÄÄÄÄÄÄÄÄÄÄÄÄÄÄÄÄÄÄÄÄÄÄÄÄÄÄÄÄÄÙ
 = 0000			      C     _BOOT_PB_size               EQU 0
 = 0004			      C     _BOOT_PB_main               EQU 4
 = 0008			      C     _BOOT_PB_requestor          EQU 8
 = 000C			      C     _BOOT_PB_start_head         EQU 12
 = 000D			      C     _BOOT_PB_start_track        EQU 13
 = 000E			      C     _BOOT_PB_start_sector       EQU 14
 = 0010			      C     _BOOT_PB_end_head           EQU 16
 = 0011			      C     _BOOT_PB_end_track          EQU 17
 = 0012			      C     _BOOT_PB_end_sector         EQU 18
 = 0014			      C     _BOOT_PB_entry_type         EQU 20
 = 0016			      C     _BOOT_PB_linear_offset      EQU 22
 = 001A			      C     _BOOT_PB_dt_offset          EQU 26
 = 001C			      C     _BOOT_PB_crc16              EQU 28
 = 0020			      C     _BOOT_PB_structure_size     EQU 32
			      C 
			      C 
			      C 
			      C 
			      C ; ÚÄÄÄÄÄÄÄÄÄÄÄÄÄÄÄÄÄÄÄÄÄÄÄ¿
			      C ; ³ EXODUS.INI STRUCTURES ³
			      C ; ÀÄÄÄÄÄÄÄÄÄÄÄÄÄÄÄÄÄÄÄÄÄÄÄÙ
 = 0000			      C     _EXODUS_INI_FIRST_BRACKET       EQU 0
 = 0004			      C     _EXODUS_INI_TOTAL_BYTES         EQU 4
 = 0008			      C     _EXODUS_INI_TOTAL_BRACKET_GROUPS EQU 8
 = 000C			      C     _EXODUS_INI_TOTAL_PAREN_CASKS   EQU 12
 = 0010			      C     _EXODUS_INI_HEADER_LENGTH       EQU 16
			      C 
 = 0000			      C     _EXODUS_BRACKET_NEXT            EQU 0
 = 0004			      C     _EXODUS_BRACKET_PAREN_CASKS     EQU 4
 = 0008			      C     _EXODUS_BRACKET_TOTAL_PARENS    EQU 8
 = 000C			      C     _EXODUS_BRACKET_NAME            EQU 12
 = 0010			      C     _EXODUS_BRACKET_HANDLE          EQU 16
 = 0014			      C     _EXODUS_BRACKET_REQUESTOR       EQU 20
 = 0016			      C     _EXODUS_BRACKET_REQUESTOR_FUNC  EQU 22
 = 001A			      C     _EXODUS_BRACKET_SCRATCH_AREA    EQU 26
 = 001E			      C     _EXODUS_BRACKET_LENGTH          EQU 30
			      C 
 = 0000			      C     _EXODUS_PAREN_NEXT              EQU 0
 = 0004			      C     _EXODUS_PAREN_NEXT_SAME_LINE    EQU 4
 = 0008			      C     _EXODUS_PAREN_DATA_ITEMS        EQU 8
 = 000C			      C     _EXODUS_PAREN_TOTAL_DATA_ITEMS  EQU 12
 = 0010			      C     _EXODUS_PAREN_SOURCE_LINE       EQU 16
 = 0014			      C     _EXODUS_PAREN_SOURCE_LINE_LENGTH EQU 20
 = 0018			      C     _EXODUS_PAREN_HANDLE            EQU 24
 = 001A			      C     _EXODUS_PAREN_REQUESTOR         EQU 26
 = 001E			      C     _EXODUS_PAREN_REQUESTOR_FUNC    EQU 30
 = 0022			      C     _EXODUS_PAREN_SCRATCH_AREA      EQU 34
 = 0026			      C     _EXODUS_PAREN_LENGTH            EQU 38
			      C 
 = 0000			      C     _EXODUS_DATA_NEXT               EQU 0
 = 0004			      C     _EXODUS_DATA_DATA_ITEM_SOURCE   EQU 4
 = 0008			      C     _EXODUS_DATA_DATA_ITEM_LENGTH   EQU 8
 = 000C			      C     _EXODUS_DATA_LENGTH             EQU 12
			      C 
			      C 
			      C 
			      C 
			      C ; ÚÄÄÄÄÄÄÄÄÄÄÄÄÄÄÄÄÄÄÄÄÄÄÄ¿
			      C ; ³ EXODUS xxx STRUCTURES ³
			      C ; ÀÄÄÄÄÄÄÄÄÄÄÄÄÄÄÄÄÄÄÄÄÄÄÄÙ
 = 0000			      C     _EXODUS_MEM_type                EQU 0
 = 0004			      C     _EXODUS_MEM_base                EQU 4
 = 0008			      C     _EXODUS_MEM_limit               EQU 8
 = 000C			      C     _EXODUS_MEM_gdt                 EQU 12
 = 000E			      C     _EXODUS_MEM_ldt                 EQU 14
 = 0010			      C     _EXODUS_MEM_size                EQU 16
			      C 
 = 0010			      C     _EXODUS_PORTS_size              EQU 16
			      C 
 = 0002			      C     _EXODUS_INTS_size               EQU 2
			      C 
			      C 
			      C 
			      C 
			      C ; ÚÄÄÄÄÄÄÄÄÄÄÄÄÄÄÄÄÄÄÄÄÄÄ¿
			      C ; ³ EXODUS SYSTEM MEMORY ³
			      C ; ÀÄÄÄÄÄÄÄÄÄÄÄÄÄÄÄÄÄÄÄÄÄÄÙ
			      C ; Note, when updates are made here they need to be reflected in INF\SYSTEM.INF
			      C ; Note, when updates are made here and INF\SYSTEM.INF, the "Exodus Quick Reference" manual needs to be updated
 = 0000			      C     _SYSTEM_SECONDS_SINCE_BOOTUP    EQU 0                           ; dword
 = 0004			      C     _SYSTEM_SECONDS_SINCE_MIDNIGHT  EQU 4                           ; dword
 = 0008			      C     _SYSTEM_HOURS                   EQU 8                           ; byte
 = 0009			      C     _SYSTEM_MINUTES                 EQU 9                           ; byte
 = 000A			      C     _SYSTEM_SECONDS                 EQU 10                          ; byte
 = 000B			      C     _SYSTEM_182S_OF_A_SECOND        EQU 11                          ; byte
 = 000C			      C     _SYSTEM_DAY                     EQU 12                          ; byte
 = 000D			      C     _SYSTEM_MONTH                   EQU 13                          ; byte
 = 000E			      C     _SYSTEM_YEAR                    EQU 14                          ; word
 = 0010			      C     _SYSTEM_DAY_OF_YEAR             EQU 16                          ; word
 = 0012			      C     _SYSTEM_BUILD                   EQU 18                          ; 10-byte string in the format: "mm.dd.yyyy"
 = 001C			      C     _SYSTEM_TOTAL_MEMORY            EQU 28                          ; dword, total ram in bytes
 = 0020			      C     _SYSTEM_VGA_HORIZONTAL          EQU 32                          ; word (pixels-graphics, or columns-text)
 = 0022			      C     _SYSTEM_VGA_VERTICAL            EQU 34                          ; word (pixels-graphics, or rows-text)
 = 0024			      C     _SYSTEM_VGA_VIDEO_MODE          EQU 36                          ; byte (0-graphics, 1-text)
 = 0025			      C     _SYSTEM_MONO_VIDEO_MODE         EQU 37                          ; byte (0-graphics, 1-text, 0ffh-Unknown)
			      C 
			      C   ; Non-user accessible system memory areas (Exodus internal, hence the use of the _i_)
 = 0800			      C     _SYSTEM_i_FATAL                 EQU 2048                        ; dword
 = 0804			      C     _SYSTEM_i_TASKS_CREATED         EQU 2052                        ; dword
 = 0808			      C     _SYSTEM_i_TASKS_BY_USER         EQU 2056                        ; dword
 = 080C			      C     _SYSTEM_i_TASKS_BY_ERROR        EQU 2060                        ; dword
 = 0810			      C     _SYSTEM_i_IRQ6_INDICATOR        EQU 2064                        ; byte, IRQ6 indicator (changes each time an IRQ6 is signaled)
 = 0811			      C     _SYSTEM_i_IRQ6_INDICATOR_LAST   EQU 2065                        ; byte, IRQ6 indicator previous, used to see when an IRQ6 is signaled
 = 0812			      C     _SYSTEM_i_BASE                  EQU 2066                        ; dword
 = 0816			      C     _SYSTEM_i_LIMIT                 EQU 2070                        ; dword
 = 081A			      C     _SYSTEM_i_DWORD_TO_COPY         EQU 2074                        ; word
 = 081C			      C     _SYSTEM_i_LAST_GDT_REFERENCED   EQU 2076                        ; qword
 = 0824			      C     _SYSTEM_i_CODE_GDT_OFFSET       EQU 2084                        ; dword (used temporarily during native primative install)
 = 0828			      C     _SYSTEM_i_DATA_GDT_OFFSET       EQU 2088                        ; dword (used temporarily during native primative install)
 = 082C			      C     _SYSTEM_i_MAIN_GDT_OFFSET       EQU 2092                        ; dword (used temporarily during native primative install)
 = 0830			      C     _SYSTEM_i_REQUESTOR_GDT_OFFSET  EQU 2096                        ; dword (used temporarily during native primative install)
 = 0834			      C     _SYSTEM_i_GDT_TO_ASSIGN         EQU 2100                        ; word (used various places to assign GDT entries)
 = 0836			      C     _SYSTEM_i_USER_GDT_TO_ASSIGN    EQU 2102                        ; word (used various places to assign USER Program GDTs)
			      C   ; Next offset is 2104
			      C 
			      C 
			      C   ; These scratch items exist from end of memory down
 = 0BF8			      C     _SYSTEM_i_SCRATCH_DWORD2        EQU 3064                        ; dword (used various places as a scratch buffer)
 = 0BFC			      C     _SYSTEM_i_SCRATCH_DWORD1        EQU 3068                        ; dword (used various places as a scratch buffer)
			      C 
			      C 
			      C 
			      C 
			      C ; ÚÄÄÄÄÄÄÄÄÄÄÄÄÄÄÄ¿
			      C ; ³ BOCHS SUPPORT ³
			      C ; ÀÄÄÄÄÄÄÄÄÄÄÄÄÄÄÄÙ
			      C ; These equates are used to communicate via INT 0FFh
			      C ; Values here are in ecx, with edx being used for data information.
			      C ; Values in eax must be
 = 12345678		      C     _BOCHS1                         EQU 12345678h
 = 87654321		      C     _BOCHS2                         EQU 87654321h
 = 0000			      C     _BOCHS_GET_MONO_MOUSE_XY        EQU 0
 = 0001			      C     _BOCHS_GET_MONO_CURSOR          EQU 1
			      C 
				INCLUDE \exodus\source\common\macros.asp
			      C ; macros.asp
			      C ;
			      C ; Exodus macros, used various places
			      C ;
			      C 
			      C 
			      C 
			      C callfp     MACRO   _seg:REQ, _offset:REQ
			      C ; This macro:   callfp  _code_seg, _offset
			      C ;
			      C     db  9ah
			      C     dd  _offset
			      C     dw  _seg
			      C ENDM
			      C 
			      C 
			      C 
			      C 
			      C callg      MACRO   _seg:REQ
			      C ; This macro:   callg   _call_gate
			      C     db  9ah
			      C     dd  0
			      C     dw  _seg
			      C ENDM
			      C 
			      C 
			      C 
			      C 
			      C jmpg       MACRO   _seg:REQ
			      C ; This macro:   jmpg    _call_gate
			      C     db  0eah
			      C     dd  0
			      C     dw  _seg
			      C ENDM
			      C 
			      C 
			      C 
			      C 
			      C callf      MACRO   _func:REQ
			      C ; This macro:   callf   function_name
			      C     push    cs
			      C     call    _func
			      C ENDM
			      C 
			      C 
			      C 
			      C 
			      C @IO_pause   MACRO
			      C     jmp     $+2
			      C ENDM
			      C 


				    .386P
 00000000			_TEXT32 SEGMENT BYTE 'CODE' USE32
				    ASSUME NOTHING

				; These are required to be the first 2 dwords in the file
 00000000  00000087 R		dd  offset main
 00000004  00000008 R		dd  offset requestor




 00000008			    requestor   PROC
				    ; This routine is called by Exodus.  When this function is called multi-tasking is not installed.  This is a linear function.
				    ;
				    ; Upon entry:   eax - requested function
				    ;                ds - temporary ORG 0h data segment for use with these requestor() functions
				    ;
				    ; Upon exit:    results vary based on value of eax
				    ;
				        .IF (eax == 'info')
 00000008  3D 696E666F	   *	    cmp    eax, 'info'
 0000000D  75 26	   *	    jne    @C0001
				          ; Program information
 0000000F  B8 6E617469		            mov     eax,'nati'                              ; Identifying this program as a native primative
 00000014  B9 0000A7B3 R	            mov     ecx,offset end_of_required_data         ; The maximum number of bytes to retain after loading

 00000019  BE 0000A7B3 R	            mov     esi,offset driver_primatives            ; Offset to the native primatives structure
 0000001E  BF 0000A47D R	            mov     edi,offset driver_name
 00000023  BB 0000A497 R	            mov     ebx,offset version
 00000028  BA 0000A4A7 R	            mov     edx,offset copyright
 0000002D  BD 0000A4C7 R	            mov     ebp,offset author
 00000032  F8			            clc
				        .ELSEIF (eax == 'prim')
 00000033  EB 51	   *	    jmp    @C0003
 00000035		   *@C0001:
 00000035  3D 7072696D	   *	    cmp    eax, 'prim'
 0000003A  75 14	   *	    jne    @C0004
				          ; Native primatives this program will use
 0000003C  66| 8C 1D		            mov     ds:data_segment,ds
	   0000A4FD R
 00000043  BE 0000A50B R	            mov     esi,offset required_primatives
 00000048  BF 0000A501 R	            mov     edi,offset primative_call_gates
 0000004D  F8			            clc
				        .ELSEIF (eax == 'id  ')
 0000004E  EB 36	   *	    jmp    @C0006
 00000050		   *@C0004:
 00000050  3D 69642020	   *	    cmp    eax, 'id  '
 00000055  75 0F	   *	    jne    @C0007
				          ; Display this program's ID on the VGA monitor
 00000057  BE 0000A47D R	            mov     esi,offset driver_name
 0000005C  2E: FF 1D		            call    fword ptr cs:_VID_display_string_nr_vga
	   0000A503 R
 00000063  F8			            clc
				        .ELSEIF (eax == 'note')
 00000064  EB 20	   *	    jmp    @C0009
 00000066		   *@C0007:
 00000066  3D 6E6F7465	   *	    cmp    eax, 'note'
 0000006B  75 18	   *	    jne    @C000A
 0000006D  B8 73746F70		            mov     eax,'stop'
 00000072  BB 6C6F6164		            mov     ebx,'load'
 00000077  BE 0000A47D R	            mov     esi,offset driver_name
 0000007C  2E: FF 1D		            call    fword ptr cs:_EXODUS_requestor
	   0000A4FF R
				        .ELSE
 00000083  EB 01	   *	    jmp    @C000C
 00000085		   *@C000A:
 00000085  F9			            stc
				        .ENDIF
 00000086		   *@C000C:
 00000086		   *@C0009:
 00000086		   *@C0006:
 00000086		   *@C0003:
 00000086  CB			        retf
 00000087			    requestor   ENDP




 00000087			    main    PROC
				    ; This routine is called once by Exodus once initialization is complete (all calls to requestor() are finished)
				    ; It is used by Exodus to allow this driver to properly initialize itself.
				    ; When this function is called multi-tasking is not installed.  This is a linear function.
				    ;
				    ; Upon entry:   Nothing
				    ;
				    ; Upon exit:    A "continued status of execution" is expected by Exodus.  This indicates whether or not everything
				    ;               initialized ok or is available.  If everything is OK the carry? flag is CLEAR.  If there is an error
				    ;               and this driver cannot continue then the carry? should be SET.
				    ;               carry? - CLEAR=Ok to continue
				    ;                          SET=Error initializing
				    ;
 00000087  E8 00000001		        call    initialize_driver
				      ; Right now, carry? is SET or CLEAR indicating status of driver
 0000008C  CB			        retf
 0000008D			    main    ENDP




 0000008D			    initialize_driver   PROC
				    ; This routine is used to initialize the driver
				    ; But, there is no initialization in this system
 0000008D  BE 0000A54C R	        mov     esi,offset x86_boot_logo
 00000092  2E: FF 1D		        call    fword ptr cs:_VID_draw_logo
	   0000A501 R
 00000099  F8			        clc
 0000009A  C3			        ret
 0000009B			    initialize_driver   ENDP




				;  x86_disassemble()
				;  x86_simplify_disassembly()
				;  x86_assemble()
				;  x86_disassemble_fpu_opcode()
				    INCLUDE disasm.asp
			      C ; disasm.asp
			      C ;
			      C ; x86 disassembly algorithms
			      C ;
			      C ;  Functions:
			      C ;     Ã x86_disassemble                             ; Disassembles an instruction at ds:[esi]
			      C ;     À x86_simplify_disassembly                    ; Simplifies the disassembly listing
			      C ;
			      C ;  Shortcuts:
			      C ;     À STORE_THE_INSTRUCTION
			      C ;
			      C 
			      C 
			      C 
			      C 
			      C ; Data and macros
			      C INCLUDE dis_data.asp
			      C ; dis_data.asp
			      C ;
			      C ; Data for the x86 Disassembly algorithms
			      C ;
			      C 
			      C 
			      C 
			      C 
			      C ;; Macros
			      C @instr_bytes    MACRO   bytes:REQ
			      C     mov     fs:instruction_bytes,bytes
			      C     IF bytes EQ 1
			      C         inc     esi
			      C     ELSE
			      C         add     esi,bytes
			      C     ENDIF
			      C ENDM
			      C 
			      C @instr_text     MACRO   instr:REQ, len:REQ
			      C     mov     fs:instruction_text_offset,offset instr
			      C     mov     fs:instruction_text_length,len
			      C ENDM
			      C 
 = 00000000		      C _NO_SPECIAL     EQU 0
 = 00000001		      C _CONTROL_REGS   EQU 1
 = 00000002		      C _DEBUG_REGS     EQU 2
 = 00000003		      C _TEST_REGS      EQU 3
 = 00000004		      C _SEG_REGS       EQU 4
 = 00000005		      C _STx_REGS       EQU 5
 = 00000006		      C _MMX_REGS       EQU 6
 = 00000007		      C _XMM_REGS       EQU 7
			      C 
			      C 
			      C ;; Data
			      C   ; Used by debi_disassemble_instruction()
 0000009B 00000000	      C     cpu_mode                dd  0                                   ; 0-32 bit pmode, 1-16-bit pmode, 2-real, 3-v86
 0000009F 00000000	      C     prefix_bytes            dd  0
 000000A3 00000000	      C     sreg_override           dd  0
 000000A7 00000000	      C     sign_extend             dd  0
 000000AB 00000000	      C     reverse_regs            dd  0
 000000AF 00000000	      C     special_reg             dd  0
 000000B3 00000000	      C     sib_byte                dd  0
 000000B7 00000000	      C     byte_word_size          dd  0
 000000BB 00000000	      C     seg_override            dd  0
 000000BF 00000000	      C     op_size_override        dd  0
 000000C3 00000000	      C     adr_size_override       dd  0
 000000C7 00000000	      C     reverse_mod_reg_rm      dd  0
 000000CB 00000000	      C     scale_factor            dd  0
 000000CF 00000000	      C     movxx_register          dd  0
 000000D3 00000000	      C     first_gp_register       dd  0
 000000D7 00000000	      C     second_gp_register      dd  0
 000000DB 00000000	      C     display_second_register dd  0
 000000DF 00000000	      C     gp_reg_count            dd  0
 000000E3 00000000	      C     special_control         dd  0
			      C 
 000000E7 00000000	      C     instruction_offset      dd  0                                   ; Ptr to start of instruction
 000000EB 00000000	      C     instruction_bytes       dd  0                                   ; number of bytes there
 000000EF 00000000	      C     instruction_text_length dd  0                                   ; Ptr to start of instruction text (like "adc")
 000000F3 00000000	      C     instruction_text_offset dd  0                                   ; number of bytes there
 000000F7 00000000	      C     parameters_text_length  dd  0                                   ; Ptr to start of parameters in local memory
 000000FB 00000000	      C     parameters_text_offset  dd  0                                   ; number of bytes there
 000000FF 00000000	      C     displacement_offset     dd  0                                   ; Ptr to start of displacement text (if any) in parameters
 00000103 00000000	      C     displacement_bytes      dd  0                                   ; number of bytes there (the [esi] part of "ds:[esi],ebx")
 00000107 00000000	      C     displacement_data       dd  0                                   ; dword value indicating the actual displacement part
			      C                                                                     ; (such as the 1234 value in "ds:[esi+1234]")
 0000010B 00000000	      C     mod_reg_rm_offset       dd  0                                   ; Ptr to start of mod_reg_rm byte in instruction
 0000010F 00000000	      C     mod_reg_rm_bytes        dd  0                                   ; Number of instruction bytes used by mod_reg_rm requirements
 00000113 00000000	      C     sib_offset              dd  0                                   ; Ptr to start of SIB byte in instruction
 00000117 00000000	      C     sib_bytes               dd  0                                   ; Number of instruction bytes used by SIB requirements
 0000011B 00000000	      C     immediate_offset        dd  0                                   ; Ptr to start of immediate data in instruction
 0000011F 00000000	      C     immediate_bytes         dd  0                                   ; Number of bytes used in immediate
 00000123 00000000	      C     immediate_data          dd  0                                   ; The immediate value
 00000127 00000000	      C     operand_size            dd  0
			      C 
			      C   ; Used by debi_simplify_disassembly()
 0000012B 00000000	      C     prefix_bytes_start      dd  0                                   ; Start and end of the prefix bytes (if any)
 0000012F 00000000	      C     prefix_bytes_end        dd  0
 00000133 00000000	      C     instruction_bytes_start dd  0
 00000137 00000000	      C     instruction_bytes_end   dd  0
 0000013B 00000000	      C     instruction_text_start  dd  0
 0000013F 00000000	      C     instruction_text_end    dd  0
 00000143 00000000	      C     parameters_text_start   dd  0
 00000147 00000000	      C     parameters_text_end     dd  0
			      C 
			      C 
 0000014B		      C   opcode_map:
 0000014B  1135 R	      C                             dw  lowword(offset _add)                    ; 00
 0000014D  1135 R	      C                             dw  lowword(offset _add)                    ; 01
 0000014F  1135 R	      C                             dw  lowword(offset _add)                    ; 02
 00000151  1135 R	      C                             dw  lowword(offset _add)                    ; 03
 00000153  1072 R	      C                             dw  lowword(offset _add_immed8)             ; 04
 00000155  1099 R	      C                             dw  lowword(offset _add_immed16_32)         ; 05
 00000157  6438 R	      C                             dw  lowword(offset _push_es)                ; 06
 00000159  5DAE R	      C                             dw  lowword(offset _pop_es)                 ; 07
 0000015B  57CE R	      C                             dw  lowword(offset _or_rm)                  ; 08
 0000015D  57CE R	      C                             dw  lowword(offset _or_rm)                  ; 09
 0000015F  57CE R	      C                             dw  lowword(offset _or_rm)                  ; 0a
 00000161  57CE R	      C                             dw  lowword(offset _or_rm)                  ; 0b
 00000163  5762 R	      C                             dw  lowword(offset _or_accum)               ; 0c
 00000165  5762 R	      C                             dw  lowword(offset _or_accum)               ; 0d
 00000167  63E5 R	      C                             dw  lowword(offset _push_cs)                ; 0e
 00000169  0DC2 R	      C                             dw  lowword(offset _two_byte_instruction)   ; 0f
 0000016B  1030 R	      C                             dw  lowword(offset _adc)                    ; 10
 0000016D  1030 R	      C                             dw  lowword(offset _adc)                    ; 11
 0000016F  1030 R	      C                             dw  lowword(offset _adc)                    ; 12
 00000171  1030 R	      C                             dw  lowword(offset _adc)                    ; 13
 00000173  0EDB R	      C                             dw  lowword(offset _adc_immed8)             ; 14
 00000175  0F28 R	      C                             dw  lowword(offset _adc_immed16_32)         ; 15
 00000177  646C R	      C                             dw  lowword(offset _push_ss)                ; 16
 00000179  5DE2 R	      C                             dw  lowword(offset _pop_ss)                 ; 17
 0000017B  6B6B R	      C                             dw  lowword(offset _sbb_rm_reg8)            ; 18
 0000017D  6B7B R	      C                             dw  lowword(offset _sbb_rm_reg16_32)        ; 19
 0000017F  6B8B R	      C                             dw  lowword(offset _sbb_reg8_rm)            ; 1a
 00000181  6B9B R	      C                             dw  lowword(offset _sbb_reg16_32_rm)        ; 1b
 00000183  6BAB R	      C                             dw  lowword(offset _sbb_accum_immed8)       ; 1c
 00000185  6BBB R	      C                             dw  lowword(offset _sbb_accum_immed16_32)   ; 1d
 00000187  6428 R	      C                             dw  lowword(offset _push_ds)                ; 1e
 00000189  5D6B R	      C                             dw  lowword(offset _pop_ds)                 ; 1f
 0000018B  115C R	      C                             dw  lowword(offset _and)                    ; 20
 0000018D  115C R	      C                             dw  lowword(offset _and)                    ; 21
 0000018F  115C R	      C                             dw  lowword(offset _and)                    ; 22
 00000191  115C R	      C                             dw  lowword(offset _and)                    ; 23
 00000193  1183 R	      C                             dw  lowword(offset _and_immed8)             ; 24
 00000195  11AA R	      C                             dw  lowword(offset _and_immed16_32)         ; 25
 00000197  0E07 R	      C                             dw  lowword(offset _es_override)            ; 26
 00000199  1CD8 R	      C                             dw  lowword(offset _daa)                    ; 27
 0000019B  6BFB R	      C                             dw  lowword(offset _sub_rm_reg8)            ; 28
 0000019D  6C0B R	      C                             dw  lowword(offset _sub_rm_reg16_32)        ; 29
 0000019F  6C1B R	      C                             dw  lowword(offset _sub_reg8_rm)            ; 2a
 000001A1  6C2B R	      C                             dw  lowword(offset _sub_reg16_32_rm)        ; 2b
 000001A3  6C3B R	      C                             dw  lowword(offset _sub_accum_immed8)       ; 2c
 000001A5  6C4B R	      C                             dw  lowword(offset _sub_accum_immed16_32)   ; 2d
 000001A7  0DED R	      C                             dw  lowword(offset _cs_override)            ; 2e
 000001A9  1CFF R	      C                             dw  lowword(offset _das)                    ; 2f
 000001AB  6C7B R	      C                             dw  lowword(offset _xor_rm_reg8)            ; 30
 000001AD  6C8B R	      C                             dw  lowword(offset _xor_rm_reg16_32)        ; 31
 000001AF  6C9B R	      C                             dw  lowword(offset _xor_reg8_rm)            ; 32
 000001B1  6CAB R	      C                             dw  lowword(offset _xor_reg16_32_rm)        ; 33
 000001B3  6CBB R	      C                             dw  lowword(offset _xor_accum_immed8)       ; 34
 000001B5  6CCB R	      C                             dw  lowword(offset _xor_accum_immed16_32)   ; 35
 000001B7  0E14 R	      C                             dw  lowword(offset _ss_override)            ; 36
 000001B9  0E3B R	      C                             dw  lowword(offset _aaa)                    ; 37
 000001BB  19BA R	      C                             dw  lowword(offset _cmp_rm8_r8)             ; 38
 000001BD  19F1 R	      C                             dw  lowword(offset _cmp_rm16_r16)           ; 39
 000001BF  1A22 R	      C                             dw  lowword(offset _cmp_r8_rm8)             ; 3a
 000001C1  1A64 R	      C                             dw  lowword(offset _cmp_r16_rm16)           ; 3b
 000001C3  196C R	      C                             dw  lowword(offset _cmp_immed8)             ; 3c
 000001C5  1993 R	      C                             dw  lowword(offset _cmp_immed16_32)         ; 3d
 000001C7  0DFA R	      C                             dw  lowword(offset _ds_override)            ; 3e
 000001C9  0EB4 R	      C                             dw  lowword(offset _aas)                    ; 3f
 000001CB  3FD6 R	      C                             dw  lowword(offset _inc_xax)                ; 40
 000001CD  3FD6 R	      C                             dw  lowword(offset _inc_xcx)                ; 41
 000001CF  3FD6 R	      C                             dw  lowword(offset _inc_xdx)                ; 42
 000001D1  3FD6 R	      C                             dw  lowword(offset _inc_xbx)                ; 43
 000001D3  3FD6 R	      C                             dw  lowword(offset _inc_xsp)                ; 44
 000001D5  3FD6 R	      C                             dw  lowword(offset _inc_xbp)                ; 45
 000001D7  3FD6 R	      C                             dw  lowword(offset _inc_xsi)                ; 46
 000001D9  3FD6 R	      C                             dw  lowword(offset _inc_xdi)                ; 47
 000001DB  1D26 R	      C                             dw  lowword(offset _dec_xax)                ; 48
 000001DD  1D26 R	      C                             dw  lowword(offset _dec_xcx)                ; 49
 000001DF  1D26 R	      C                             dw  lowword(offset _dec_xdx)                ; 4a
 000001E1  1D26 R	      C                             dw  lowword(offset _dec_xbx)                ; 4b
 000001E3  1D26 R	      C                             dw  lowword(offset _dec_xsp)                ; 4c
 000001E5  1D26 R	      C                             dw  lowword(offset _dec_xbp)                ; 4d
 000001E7  1D26 R	      C                             dw  lowword(offset _dec_xsi)                ; 4e
 000001E9  1D26 R	      C                             dw  lowword(offset _dec_xdi)                ; 4f
 000001EB  647F R	      C                             dw  lowword(offset _push_xax)               ; 50
 000001ED  647F R	      C                             dw  lowword(offset _push_xcx)               ; 51
 000001EF  647F R	      C                             dw  lowword(offset _push_xdx)               ; 52
 000001F1  647F R	      C                             dw  lowword(offset _push_xbx)               ; 53
 000001F3  647F R	      C                             dw  lowword(offset _push_xsp)               ; 54
 000001F5  647F R	      C                             dw  lowword(offset _push_xbp)               ; 55
 000001F7  647F R	      C                             dw  lowword(offset _push_xsi)               ; 56
 000001F9  647F R	      C                             dw  lowword(offset _push_xdi)               ; 57
 000001FB  5DF2 R	      C                             dw  lowword(offset _pop_xax)                ; 58
 000001FD  5DF2 R	      C                             dw  lowword(offset _pop_xcx)                ; 59
 000001FF  5DF2 R	      C                             dw  lowword(offset _pop_xdx)                ; 5a
 00000201  5DF2 R	      C                             dw  lowword(offset _pop_xbx)                ; 5b
 00000203  5DF2 R	      C                             dw  lowword(offset _pop_xsp)                ; 5c
 00000205  5DF2 R	      C                             dw  lowword(offset _pop_xbp)                ; 5d
 00000207  5DF2 R	      C                             dw  lowword(offset _pop_xsi)                ; 5e
 00000209  5DF2 R	      C                             dw  lowword(offset _pop_xdi)                ; 5f
 0000020B  64BF R	      C                             dw  lowword(offset _pusha)                  ; 60
 0000020D  5E32 R	      C                             dw  lowword(offset _popa)                   ; 61
 0000020F  127D R	      C                             dw  lowword(offset _bound)                  ; 62
 00000211  1246 R	      C                             dw  lowword(offset _arpl)                   ; 63
 00000213  0E21 R	      C                             dw  lowword(offset _fs_override)            ; 64
 00000215  0E2E R	      C                             dw  lowword(offset _gs_override)            ; 65
 00000217  0DD3 R	      C                             dw  lowword(offset _op_size_override)       ; 66
 00000219  0DE4 R	      C                             dw  lowword(offset _adr_size_override)      ; 67
 0000021B  62F9 R	      C                             dw  lowword(offset _push_immed16_32)        ; 68
 0000021D  3E3A R	      C                             dw  lowword(offset _imul_3_parms_immed16_32); 69
 0000021F  6334 R	      C                             dw  lowword(offset _push_immed8)            ; 6a
 00000221  3DD1 R	      C                             dw  lowword(offset _imul_3_parms_immed8)    ; 6b
 00000223  404B R	      C                             dw  lowword(offset _insb)                   ; 6c
 00000225  4072 R	      C                             dw  lowword(offset _insw)                   ; 6d
 00000227  593A R	      C                             dw  lowword(offset _outsb)                  ; 6e
 00000229  5961 R	      C                             dw  lowword(offset _outsw)                  ; 6f
 0000022B  47DA R	      C                             dw  lowword(offset _jo)                     ; 70
 0000022D  4801 R	      C                             dw  lowword(offset _jno)                    ; 71
 0000022F  45FA R	      C                             dw  lowword(offset _jc)                     ; 72
 00000231  4621 R	      C                             dw  lowword(offset _jnc)                    ; 73
 00000233  4473 R	      C                             dw  lowword(offset _jz)                     ; 74
 00000235  44A9 R	      C                             dw  lowword(offset _jnz)                    ; 75
 00000237  4581 R	      C                             dw  lowword(offset _jna)                    ; 76
 00000239  455A R	      C                             dw  lowword(offset _ja)                     ; 77
 0000023B  491A R	      C                             dw  lowword(offset _js)                     ; 78
 0000023D  4941 R	      C                             dw  lowword(offset _jns)                    ; 79
 0000023F  487A R	      C                             dw  lowword(offset _jpe)                    ; 7a
 00000241  48A1 R	      C                             dw  lowword(offset _jpo)                    ; 7b
 00000243  473A R	      C                             dw  lowword(offset _jl)                     ; 7c
 00000245  4761 R	      C                             dw  lowword(offset _jnl)                    ; 7d
 00000247  46C1 R	      C                             dw  lowword(offset _jng)                    ; 7e
 00000249  469A R	      C                             dw  lowword(offset _jg)                     ; 7f
 0000024B  7C84 R	      C                             dw  lowword(offset _check_reg_80)           ; 80
 0000024D  7D0A R	      C                             dw  lowword(offset _check_reg_81)           ; 81
 0000024F  7D90 R	      C                             dw  lowword(offset _check_reg_82)           ; 82
 00000251  7D9F R	      C                             dw  lowword(offset _check_reg_83)           ; 83
 00000253  787C R	      C                             dw  lowword(offset _test_rm_reg_8)          ; 84
 00000255  78B3 R	      C                             dw  lowword(offset _test_rm_reg16_32)       ; 85
 00000257  7BAF R	      C                             dw  lowword(offset _xchg_byte)              ; 86
 00000259  7BE6 R	      C                             dw  lowword(offset _xchg)                   ; 87
 0000025B  4DBA R	      C                             dw  lowword(offset _mov_rm_reg_8)           ; 88
 0000025D  4DF1 R	      C                             dw  lowword(offset _mov_rm_reg_16_32)       ; 89
 0000025F  4E22 R	      C                             dw  lowword(offset _mov_reg_rm_8)           ; 8a
 00000261  4E64 R	      C                             dw  lowword(offset _mov_reg_rm_16_32)       ; 8b
 00000263  4EE7 R	      C                             dw  lowword(offset _mov_reg16_32_sreg)      ; 8c
 00000265  4AF7 R	      C                             dw  lowword(offset _lea)                    ; 8d
 00000267  4EA0 R	      C                             dw  lowword(offset _mov_sreg_reg16_32)      ; 8e
 00000269  7E1C R	      C                             dw  lowword(offset _check_reg_8f)           ; 8f
 0000026B  573B R	      C                             dw  lowword(offset _nop)                    ; 90
 0000026D  7C17 R	      C                             dw  lowword(offset _xchg_xcx)               ; 91
 0000026F  7C17 R	      C                             dw  lowword(offset _xchg_xdx)               ; 92
 00000271  7C17 R	      C                             dw  lowword(offset _xchg_xbx)               ; 93
 00000273  7C17 R	      C                             dw  lowword(offset _xchg_xsp)               ; 94
 00000275  7C17 R	      C                             dw  lowword(offset _xchg_xbp)               ; 95
 00000277  7C17 R	      C                             dw  lowword(offset _xchg_xsi)               ; 96
 00000279  7C17 R	      C                             dw  lowword(offset _xchg_xdi)               ; 97
 0000027B  15A1 R	      C                             dw  lowword(offset _cbw)                    ; 98
 0000027D  1C71 R	      C                             dw  lowword(offset _cwd)                    ; 99
 0000027F  1561 R	      C                             dw  lowword(offset _call_far_operand)       ; 9a
 00000281  7ACC R	      C                             dw  lowword(offset _wait)                   ; 9b
 00000283  6526 R	      C                             dw  lowword(offset _pushf)                  ; 9c
 00000285  5E99 R	      C                             dw  lowword(offset _popf)                   ; 9d
 00000287  6B44 R	      C                             dw  lowword(offset _sahf)                   ; 9e
 00000289  49BA R	      C                             dw  lowword(offset _lahf)                   ; 9f
 0000028B  4F23 R	      C                             dw  lowword(offset _mov_accum_mem_8)        ; a0
 0000028D  4FAE R	      C                             dw  lowword(offset _mov_accum_mem_16_32)    ; a1
 0000028F  5033 R	      C                             dw  lowword(offset _mov_mem_accum_8)        ; a2
 00000291  50BE R	      C                             dw  lowword(offset _mov_mem_accum_16_32)    ; a3
 00000293  54D0 R	      C                             dw  lowword(offset _movsb)                  ; a4
 00000295  54F7 R	      C                             dw  lowword(offset _movsw)                  ; a5
 00000297  1B15 R	      C                             dw  lowword(offset _cmpsb)                  ; a6
 00000299  1B3C R	      C                             dw  lowword(offset _cmpsw)                  ; a7
 0000029B  78E4 R	      C                             dw  lowword(offset _test_accum_imm8)        ; a8
 0000029D  7931 R	      C                             dw  lowword(offset _test_accum_imm16_32)    ; a9
 0000029F  77EE R	      C                             dw  lowword(offset _stosb)                  ; aa
 000002A1  7815 R	      C                             dw  lowword(offset _stosw)                  ; ab
 000002A3  4C70 R	      C                             dw  lowword(offset _lodsb)                  ; ac
 000002A5  4C97 R	      C                             dw  lowword(offset _lodsw)                  ; ad
 000002A7  6F5A R	      C                             dw  lowword(offset _scasb)                  ; ae
 000002A9  6F81 R	      C                             dw  lowword(offset _scasw)                  ; af
 000002AB  5143 R	      C                             dw  lowword(offset _mov_reg_immed8)         ; b0
 000002AD  5143 R	      C                             dw  lowword(offset _mov_reg_immed8)         ; b1
 000002AF  5143 R	      C                             dw  lowword(offset _mov_reg_immed8)         ; b2
 000002B1  5143 R	      C                             dw  lowword(offset _mov_reg_immed8)         ; b3
 000002B3  5143 R	      C                             dw  lowword(offset _mov_reg_immed8)         ; b4
 000002B5  5143 R	      C                             dw  lowword(offset _mov_reg_immed8)         ; b5
 000002B7  5143 R	      C                             dw  lowword(offset _mov_reg_immed8)         ; b6
 000002B9  5143 R	      C                             dw  lowword(offset _mov_reg_immed8)         ; b7
 000002BB  5193 R	      C                             dw  lowword(offset _mov_reg_immed16_32)     ; b8
 000002BD  5193 R	      C                             dw  lowword(offset _mov_reg_immed16_32)     ; b9
 000002BF  5193 R	      C                             dw  lowword(offset _mov_reg_immed16_32)     ; ba
 000002C1  5193 R	      C                             dw  lowword(offset _mov_reg_immed16_32)     ; bb
 000002C3  5193 R	      C                             dw  lowword(offset _mov_reg_immed16_32)     ; bc
 000002C5  5193 R	      C                             dw  lowword(offset _mov_reg_immed16_32)     ; bd
 000002C7  5193 R	      C                             dw  lowword(offset _mov_reg_immed16_32)     ; be
 000002C9  5193 R	      C                             dw  lowword(offset _mov_reg_immed16_32)     ; bf
 000002CB  7E34 R	      C                             dw  lowword(offset _check_reg_c0)           ; c0
 000002CD  7E8E R	      C                             dw  lowword(offset _check_reg_c1)           ; c1
 000002CF  6AF7 R	      C                             dw  lowword(offset _retn_immed)             ; c2
 000002D1  6AD0 R	      C                             dw  lowword(offset _retn)                   ; c3
 000002D3  4A5B R	      C                             dw  lowword(offset _les)                    ; c4
 000002D5  4A1F R	      C                             dw  lowword(offset _lds)                    ; c5
 000002D7  7EE8 R	      C                             dw  lowword(offset _check_reg_c6)           ; c6
 000002D9  7F00 R	      C                             dw  lowword(offset _check_reg_c7)           ; c7
 000002DB  1E5F R	      C                             dw  lowword(offset _enter)                  ; c8
 000002DD  4B1E R	      C                             dw  lowword(offset _leave)                  ; c9
 000002DF  6A9A R	      C                             dw  lowword(offset _retf_immed)             ; ca
 000002E1  6A73 R	      C                             dw  lowword(offset _retf)                   ; cb
 000002E3  40D9 R	      C                             dw  lowword(offset _int3)                   ; cc
 000002E5  4127 R	      C                             dw  lowword(offset _intx)                   ; cd
 000002E7  4100 R	      C                             dw  lowword(offset _into)                   ; ce
 000002E9  41B4 R	      C                             dw  lowword(offset _iret)                   ; cf
 000002EB  7F18 R	      C                             dw  lowword(offset _check_reg_d0)           ; d0
 000002ED  7F72 R	      C                             dw  lowword(offset _check_reg_d1)           ; d1
 000002EF  7FCC R	      C                             dw  lowword(offset _check_reg_d2)           ; d2
 000002F1  8026 R	      C                             dw  lowword(offset _check_reg_d3)           ; d3
 000002F3  0E8B R	      C                             dw  lowword(offset _aam)                    ; d4
 000002F5  0E62 R	      C                             dw  lowword(offset _aad)                    ; d5
 000002F7  82F8 R	      C                             dw  lowword(offset _unused)                 ; d6
 000002F9  7C5D R	      C                             dw  lowword(offset _xlat)                   ; d7
 000002FB  1E9F R	      C                             dw  lowword(offset _fpu_d8)                 ; d8
 000002FD  2276 R	      C                             dw  lowword(offset _fpu_d9)                 ; d9
 000002FF  2A7A R	      C                             dw  lowword(offset _fpu_da)                 ; da
 00000301  2D71 R	      C                             dw  lowword(offset _fpu_db)                 ; db
 00000303  3048 R	      C                             dw  lowword(offset _fpu_dc)                 ; dc
 00000305  33B1 R	      C                             dw  lowword(offset _fpu_dd)                 ; dd
 00000307  36E4 R	      C                             dw  lowword(offset _fpu_de)                 ; de
 00000309  3A4D R	      C                             dw  lowword(offset _fpu_df)                 ; df
 0000030B  4D46 R	      C                             dw  lowword(offset _loopne)                 ; e0
 0000030D  4D22 R	      C                             dw  lowword(offset _loope)                  ; e1
 0000030F  4CFE R	      C                             dw  lowword(offset _loop)                   ; e2
 00000311  43FD R	      C                             dw  lowword(offset _jcxz)                   ; e3
 00000313  3EC4 R	      C                             dw  lowword(offset _in8_immed8)             ; e4
 00000315  3EC4 R	      C                             dw  lowword(offset _in16_32_immed8)         ; e5
 00000317  58E6 R	      C                             dw  lowword(offset _out)                    ; e6
 00000319  58E6 R	      C                             dw  lowword(offset _out)                    ; e7
 0000031B  14CE R	      C                             dw  lowword(offset _call_near_relative)     ; e8
 0000031D  4251 R	      C                             dw  lowword(offset _jmp16_32)               ; e9
 0000031F  42B6 R	      C                             dw  lowword(offset _jmp_far)                ; ea
 00000321  421B R	      C                             dw  lowword(offset _jmp8)                   ; eb
 00000323  3F0F R	      C                             dw  lowword(offset _in_byte)                ; ec
 00000325  3F74 R	      C                             dw  lowword(offset _in)                     ; ed
 00000327  588C R	      C                             dw  lowword(offset _out_byte)               ; ee
 00000329  58E6 R	      C                             dw  lowword(offset _out)                    ; ef
 0000032B  4C49 R	      C                             dw  lowword(offset _lock_prefix)            ; f0
 0000032D  82F8 R	      C                             dw  lowword(offset _unused)                 ; f1
 0000032F  6A4C R	      C                             dw  lowword(offset _repne_prefix)           ; f2
 00000331  6A25 R	      C                             dw  lowword(offset _repe_prefix)            ; f3
 00000333  3CBC R	      C                             dw  lowword(offset _hlt)                    ; f4
 00000335  16A6 R	      C                             dw  lowword(offset _cmc)                    ; f5
 00000337  8080 R	      C                             dw  lowword(offset _check_reg_f6)           ; f6
 00000339  80DA R	      C                             dw  lowword(offset _check_reg_f7)           ; f7
 0000033B  1608 R	      C                             dw  lowword(offset _clc)                    ; f8
 0000033D  7740 R	      C                             dw  lowword(offset _stc)                    ; f9
 0000033F  1656 R	      C                             dw  lowword(offset _cli)                    ; fa
 00000341  778E R	      C                             dw  lowword(offset _sti)                    ; fb
 00000343  162F R	      C                             dw  lowword(offset _cld)                    ; fc
 00000345  7767 R	      C                             dw  lowword(offset _std)                    ; fd
 00000347  8134 R	      C                             dw  lowword(offset _check_reg_fe)           ; fe
 00000349  8157 R	      C                             dw  lowword(offset _check_reg_ff)           ; ff
			      C 
			      C 
			      C ; Used by _two_byte_instruction
 0000034B		      C   two_byte_opcode_map:
 0000034B  81B1 R	      C                             dw  lowword(offset _check_reg_0f00)         ; 00
 0000034D  8200 R	      C                             dw  lowword(offset _check_reg_0f01)         ; 01
 0000034F  49E1 R	      C                             dw  lowword(offset _lar)                    ; 02
 00000351  4D7C R	      C                             dw  lowword(offset _lsl)                    ; 03
 00000353  82CF R	      C                             dw  lowword(offset _two_byte_unused)        ; 04
 00000355  82CF R	      C                             dw  lowword(offset _two_byte_unused)        ; 05
 00000357  167D R	      C                             dw  lowword(offset _clts)                   ; 06
 00000359  82CF R	      C                             dw  lowword(offset _two_byte_unused)        ; 07
 0000035B  415D R	      C                             dw  lowword(offset _invd)                   ; 08
 0000035D  7AF3 R	      C                             dw  lowword(offset _wbinvd)                 ; 09
 0000035F  82CF R	      C                             dw  lowword(offset _two_byte_unused)        ; 0a
 00000361  7A08 R	      C                             dw  lowword(offset _ud2_f0b)                ; 0b
 00000363  82CF R	      C                             dw  lowword(offset _two_byte_unused)        ; 0c
 00000365  82CF R	      C                             dw  lowword(offset _two_byte_unused)        ; 0d
 00000367  82CF R	      C                             dw  lowword(offset _two_byte_unused)        ; 0e
 00000369  82CF R	      C                             dw  lowword(offset _two_byte_unused)        ; 0f
 0000036B  82CF R	      C                             dw  lowword(offset _two_byte_unused)        ; 10
 0000036D  82CF R	      C                             dw  lowword(offset _two_byte_unused)        ; 11
 0000036F  82CF R	      C                             dw  lowword(offset _two_byte_unused)        ; 12
 00000371  82CF R	      C                             dw  lowword(offset _two_byte_unused)        ; 13
 00000373  82CF R	      C                             dw  lowword(offset _two_byte_unused)        ; 14
 00000375  82CF R	      C                             dw  lowword(offset _two_byte_unused)        ; 15
 00000377  82CF R	      C                             dw  lowword(offset _two_byte_unused)        ; 16
 00000379  82CF R	      C                             dw  lowword(offset _two_byte_unused)        ; 17
 0000037B  82CF R	      C                             dw  lowword(offset _two_byte_unused)        ; 18
 0000037D  82CF R	      C                             dw  lowword(offset _two_byte_unused)        ; 19
 0000037F  82CF R	      C                             dw  lowword(offset _two_byte_unused)        ; 1a
 00000381  82CF R	      C                             dw  lowword(offset _two_byte_unused)        ; 1b
 00000383  82CF R	      C                             dw  lowword(offset _two_byte_unused)        ; 1c
 00000385  82CF R	      C                             dw  lowword(offset _two_byte_unused)        ; 1d
 00000387  82CF R	      C                             dw  lowword(offset _two_byte_unused)        ; 1e
 00000389  82CF R	      C                             dw  lowword(offset _two_byte_unused)        ; 1f
 0000038B  527E R	      C                             dw  lowword(offset _mov_gp_control)         ; 20
 0000038D  52E2 R	      C                             dw  lowword(offset _mov_gp_debug)           ; 21
 0000038F  527E R	      C                             dw  lowword(offset _mov_gp_control)         ; 22
 00000391  52E2 R	      C                             dw  lowword(offset _mov_gp_debug)           ; 23
 00000393  5346 R	      C                             dw  lowword(offset _mov_gp_test)            ; 24
 00000395  82CF R	      C                             dw  lowword(offset _two_byte_unused)        ; 25
 00000397  5346 R	      C                             dw  lowword(offset _mov_gp_test)            ; 26
 00000399  82CF R	      C                             dw  lowword(offset _two_byte_unused)        ; 27
 0000039B  82CF R	      C                             dw  lowword(offset _two_byte_unused)        ; 28
 0000039D  82CF R	      C                             dw  lowword(offset _two_byte_unused)        ; 29
 0000039F  82CF R	      C                             dw  lowword(offset _two_byte_unused)        ; 2a
 000003A1  82CF R	      C                             dw  lowword(offset _two_byte_unused)        ; 2b
 000003A3  82CF R	      C                             dw  lowword(offset _two_byte_unused)        ; 2c
 000003A5  82CF R	      C                             dw  lowword(offset _two_byte_unused)        ; 2d
 000003A7  82CF R	      C                             dw  lowword(offset _two_byte_unused)        ; 2e
 000003A9  82CF R	      C                             dw  lowword(offset _two_byte_unused)        ; 2f
 000003AB  7B1A R	      C                             dw  lowword(offset _wrmsr)                  ; 30
 000003AD  69FC R	      C                             dw  lowword(offset _rdtsc)                  ; 31
 000003AF  69AA R	      C                             dw  lowword(offset _rdmsr)                  ; 32
 000003B1  69D3 R	      C                             dw  lowword(offset _rdpmc)                  ; 33
 000003B3  82CF R	      C                             dw  lowword(offset _two_byte_unused)        ; 34
 000003B5  82CF R	      C                             dw  lowword(offset _two_byte_unused)        ; 35
 000003B7  82CF R	      C                             dw  lowword(offset _two_byte_unused)        ; 36
 000003B9  82CF R	      C                             dw  lowword(offset _two_byte_unused)        ; 37
 000003BB  82CF R	      C                             dw  lowword(offset _two_byte_unused)        ; 38
 000003BD  82CF R	      C                             dw  lowword(offset _two_byte_unused)        ; 39
 000003BF  82CF R	      C                             dw  lowword(offset _two_byte_unused)        ; 3a
 000003C1  82CF R	      C                             dw  lowword(offset _two_byte_unused)        ; 3b
 000003C3  82CF R	      C                             dw  lowword(offset _two_byte_unused)        ; 3c
 000003C5  82CF R	      C                             dw  lowword(offset _two_byte_unused)        ; 3d
 000003C7  82CF R	      C                             dw  lowword(offset _two_byte_unused)        ; 3e
 000003C9  82CF R	      C                             dw  lowword(offset _two_byte_unused)        ; 3f
 000003CB  16CD R	      C                             dw  lowword(offset _cmovo)                  ; 40
 000003CD  170B R	      C                             dw  lowword(offset _cmovno)                 ; 41
 000003CF  1731 R	      C                             dw  lowword(offset _cmovc)                  ; 42
 000003D1  1757 R	      C                             dw  lowword(offset _cmovnc)                 ; 43
 000003D3  1780 R	      C                             dw  lowword(offset _cmovz)                  ; 44
 000003D5  17A9 R	      C                             dw  lowword(offset _cmovnz)                 ; 45
 000003D7  17D2 R	      C                             dw  lowword(offset _cmovna)                 ; 46
 000003D9  17FB R	      C                             dw  lowword(offset _cmova)                  ; 47
 000003DB  1824 R	      C                             dw  lowword(offset _cmovs)                  ; 48
 000003DD  184D R	      C                             dw  lowword(offset _cmovns)                 ; 49
 000003DF  1876 R	      C                             dw  lowword(offset _cmovpe)                 ; 4a
 000003E1  189F R	      C                             dw  lowword(offset _cmovpo)                 ; 4b
 000003E3  18C8 R	      C                             dw  lowword(offset _cmovl)                  ; 4c
 000003E5  18F1 R	      C                             dw  lowword(offset _cmovnl)                 ; 4d
 000003E7  191A R	      C                             dw  lowword(offset _cmovng)                 ; 4e
 000003E9  1943 R	      C                             dw  lowword(offset _cmovg)                  ; 4f
 000003EB  82CF R	      C                             dw  lowword(offset _two_byte_unused)        ; 50
 000003ED  82CF R	      C                             dw  lowword(offset _two_byte_unused)        ; 51
 000003EF  82CF R	      C                             dw  lowword(offset _two_byte_unused)        ; 52
 000003F1  82CF R	      C                             dw  lowword(offset _two_byte_unused)        ; 53
 000003F3  82CF R	      C                             dw  lowword(offset _two_byte_unused)        ; 54
 000003F5  82CF R	      C                             dw  lowword(offset _two_byte_unused)        ; 55
 000003F7  82CF R	      C                             dw  lowword(offset _two_byte_unused)        ; 56
 000003F9  82CF R	      C                             dw  lowword(offset _two_byte_unused)        ; 57
 000003FB  82CF R	      C                             dw  lowword(offset _two_byte_unused)        ; 58
 000003FD  82CF R	      C                             dw  lowword(offset _two_byte_unused)        ; 59
 000003FF  82CF R	      C                             dw  lowword(offset _two_byte_unused)        ; 5a
 00000401  82CF R	      C                             dw  lowword(offset _two_byte_unused)        ; 5b
 00000403  82CF R	      C                             dw  lowword(offset _two_byte_unused)        ; 5c
 00000405  82CF R	      C                             dw  lowword(offset _two_byte_unused)        ; 5d
 00000407  82CF R	      C                             dw  lowword(offset _two_byte_unused)        ; 5e
 00000409  82CF R	      C                             dw  lowword(offset _two_byte_unused)        ; 5f
 0000040B  627E R	      C                             dw  lowword(offset _punpcklbw)              ; 60
 0000040D  62A7 R	      C                             dw  lowword(offset _punpcklwd)              ; 61
 0000040F  62D0 R	      C                             dw  lowword(offset _punpckldq)              ; 62
 00000411  59C8 R	      C                             dw  lowword(offset _packsswb)               ; 63
 00000413  5C44 R	      C                             dw  lowword(offset _pcmpgtb)                ; 64
 00000415  5C96 R	      C                             dw  lowword(offset _pcmpgtw)                ; 65
 00000417  5C6D R	      C                             dw  lowword(offset _pcmpgtd)                ; 66
 00000419  5A32 R	      C                             dw  lowword(offset _packuswb)               ; 67
 0000041B  6203 R	      C                             dw  lowword(offset _punpckhbw)              ; 68
 0000041D  622C R	      C                             dw  lowword(offset _punpckhwd)              ; 69
 0000041F  6255 R	      C                             dw  lowword(offset _punpckhdq)              ; 6a
 00000421  5A0C R	      C                             dw  lowword(offset _packssdw)               ; 6b
 00000423  82CF R	      C                             dw  lowword(offset _two_byte_unused)        ; 6c
 00000425  82CF R	      C                             dw  lowword(offset _two_byte_unused)        ; 6d
 00000427  53EE R	      C                             dw  lowword(offset _movd_mmx_gp)            ; 6e
 00000429  5481 R	      C                             dw  lowword(offset _movq_mmx_mm_mmx)        ; 6f
 0000042B  82CF R	      C                             dw  lowword(offset _two_byte_unused)        ; 70
 0000042D  8290 R	      C                             dw  lowword(offset _check_reg_0f71)         ; 71
 0000042F  82A5 R	      C                             dw  lowword(offset _check_reg_0f72)         ; 72
 00000431  82CF R	      C                             dw  lowword(offset _two_byte_unused)        ; 73
 00000433  5BC9 R	      C                             dw  lowword(offset _pcmpeqb)                ; 74
 00000435  5BF2 R	      C                             dw  lowword(offset _pcmpeqw)                ; 75
 00000437  5C1B R	      C                             dw  lowword(offset _pcmpeqd)                ; 76
 00000439  1E36 R	      C                             dw  lowword(offset _emms)                   ; 77
 0000043B  82CF R	      C                             dw  lowword(offset _two_byte_unused)        ; 78
 0000043D  82CF R	      C                             dw  lowword(offset _two_byte_unused)        ; 79
 0000043F  82CF R	      C                             dw  lowword(offset _two_byte_unused)        ; 7a
 00000441  82CF R	      C                             dw  lowword(offset _two_byte_unused)        ; 7b
 00000443  82CF R	      C                             dw  lowword(offset _two_byte_unused)        ; 7c
 00000445  82CF R	      C                             dw  lowword(offset _two_byte_unused)        ; 7d
 00000447  53AA R	      C                             dw  lowword(offset _movd_gp_mmx)            ; 7e
 00000449  543D R	      C                             dw  lowword(offset _movq_mm_mmx_mmx)        ; 7f
 0000044B  4828 R	      C                             dw  lowword(offset _jo_l)                   ; 80
 0000044D  4851 R	      C                             dw  lowword(offset _jno_l)                  ; 81
 0000044F  4648 R	      C                             dw  lowword(offset _jc_l)                   ; 82
 00000451  4671 R	      C                             dw  lowword(offset _jnc_l)                  ; 83
 00000453  44CD R	      C                             dw  lowword(offset _jz_l)                   ; 84
 00000455  4534 R	      C                             dw  lowword(offset _jnz_l)                  ; 85
 00000457  45D1 R	      C                             dw  lowword(offset _jna_l)                  ; 86
 00000459  45A8 R	      C                             dw  lowword(offset _ja_l)                   ; 87
 0000045B  4968 R	      C                             dw  lowword(offset _js_l)                   ; 88
 0000045D  4991 R	      C                             dw  lowword(offset _jns_l)                  ; 89
 0000045F  48C8 R	      C                             dw  lowword(offset _jpe_l)                  ; 8a
 00000461  48F1 R	      C                             dw  lowword(offset _jpo_l)                  ; 8b
 00000463  4788 R	      C                             dw  lowword(offset _jl_l)                   ; 8c
 00000465  47B1 R	      C                             dw  lowword(offset _jnl_l)                  ; 8d
 00000467  4711 R	      C                             dw  lowword(offset _jng_l)                  ; 8e
 00000469  46E8 R	      C                             dw  lowword(offset _jg_l)                   ; 8f
 0000046B  6FE8 R	      C                             dw  lowword(offset _seto)                   ; 90
 0000046D  7021 R	      C                             dw  lowword(offset _setno)                  ; 91
 0000046F  7047 R	      C                             dw  lowword(offset _setc)                   ; 92
 00000471  706D R	      C                             dw  lowword(offset _setnc)                  ; 93
 00000473  7096 R	      C                             dw  lowword(offset _setz)                   ; 94
 00000475  70BF R	      C                             dw  lowword(offset _setnz)                  ; 95
 00000477  70E8 R	      C                             dw  lowword(offset _setna)                  ; 96
 00000479  7111 R	      C                             dw  lowword(offset _seta)                   ; 97
 0000047B  713A R	      C                             dw  lowword(offset _sets)                   ; 98
 0000047D  7163 R	      C                             dw  lowword(offset _setns)                  ; 99
 0000047F  718C R	      C                             dw  lowword(offset _setpe)                  ; 9a
 00000481  71B5 R	      C                             dw  lowword(offset _setpo)                  ; 9b
 00000483  71DE R	      C                             dw  lowword(offset _setl)                   ; 9c
 00000485  7207 R	      C                             dw  lowword(offset _setnl)                  ; 9d
 00000487  7230 R	      C                             dw  lowword(offset _setng)                  ; 9e
 00000489  7259 R	      C                             dw  lowword(offset _setg)                   ; 9f
 0000048B  6448 R	      C                             dw  lowword(offset _push_fs)                ; a0
 0000048D  5DBE R	      C                             dw  lowword(offset _pop_fs)                 ; a1
 0000048F  1C48 R	      C                             dw  lowword(offset _cpuid)                  ; a2
 00000491  1374 R	      C                             dw  lowword(offset _bt)                     ; a3
 00000493  766C R	      C                             dw  lowword(offset _shld_immed)             ; a4
 00000495  760D R	      C                             dw  lowword(offset _shld_cl)                ; a5
 00000497  82CF R	      C                             dw  lowword(offset _two_byte_unused)        ; a6
 00000499  82CF R	      C                             dw  lowword(offset _two_byte_unused)        ; a7
 0000049B  645A R	      C                             dw  lowword(offset _push_gs)                ; a8
 0000049D  5DD0 R	      C                             dw  lowword(offset _pop_gs)                 ; a9
 0000049F  6B1B R	      C                             dw  lowword(offset _rsm)                    ; aa
 000004A1  1479 R	      C                             dw  lowword(offset _bts)                    ; ab
 000004A3  76E7 R	      C                             dw  lowword(offset _shrd_immed)             ; ac
 000004A5  76BE R	      C                             dw  lowword(offset _shrd_cl)                ; ad
 000004A7  82CF R	      C                             dw  lowword(offset _two_byte_unused)        ; ae
 000004A9  3D93 R	      C                             dw  lowword(offset _imul_2_params)          ; af
 000004AB  1BA3 R	      C                             dw  lowword(offset _cmpxchg_byte)           ; b0
 000004AD  1BDC R	      C                             dw  lowword(offset _cmpxchg)                ; b1
 000004AF  4ACE R	      C                             dw  lowword(offset _lss)                    ; b2
 000004B1  1422 R	      C                             dw  lowword(offset _btr)                    ; b3
 000004B3  4A7F R	      C                             dw  lowword(offset _lfs)                    ; b4
 000004B5  4AA5 R	      C                             dw  lowword(offset _lgs)                    ; b5
 000004B7  5628 R	      C                             dw  lowword(offset _movzx_byte)             ; b6
 000004B9  5628 R	      C                             dw  lowword(offset _movzx_word)             ; b7
 000004BB  82CF R	      C                             dw  lowword(offset _two_byte_unused)        ; b8
 000004BD  7A31 R	      C                             dw  lowword(offset _ud2_fb9)                ; b9
 000004BF  825A R	      C                             dw  lowword(offset _check_reg_0fba)         ; ba
 000004C1  13CB R	      C                             dw  lowword(offset _btc)                    ; bb
 000004C3  12B9 R	      C                             dw  lowword(offset _bsf)                    ; bc
 000004C5  12F2 R	      C                             dw  lowword(offset _bsr)                    ; bd
 000004C7  555E R	      C                             dw  lowword(offset _movsx_byte)             ; be
 000004C9  555E R	      C                             dw  lowword(offset _movsx_word)             ; bf
 000004CB  7B43 R	      C                             dw  lowword(offset _xadd_byte)              ; c0
 000004CD  7B7C R	      C                             dw  lowword(offset _xadd)                   ; c1
 000004CF  82CF R	      C                             dw  lowword(offset _two_byte_unused)        ; c2
 000004D1  82CF R	      C                             dw  lowword(offset _two_byte_unused)        ; c3
 000004D3  82CF R	      C                             dw  lowword(offset _two_byte_unused)        ; c4
 000004D5  82CF R	      C                             dw  lowword(offset _two_byte_unused)        ; c5
 000004D7  82CF R	      C                             dw  lowword(offset _two_byte_unused)        ; c6
 000004D9  82BA R	      C                             dw  lowword(offset _check_reg_0fc7)         ; c7
 000004DB  132B R	      C                             dw  lowword(offset _bswap_eax)              ; c8
 000004DD  132B R	      C                             dw  lowword(offset _bswap_ecx)              ; c9
 000004DF  132B R	      C                             dw  lowword(offset _bswap_edx)              ; ca
 000004E1  132B R	      C                             dw  lowword(offset _bswap_ebx)              ; cb
 000004E3  132B R	      C                             dw  lowword(offset _bswap_esp)              ; cc
 000004E5  132B R	      C                             dw  lowword(offset _bswap_ebp)              ; cd
 000004E7  132B R	      C                             dw  lowword(offset _bswap_esi)              ; ce
 000004E9  132B R	      C                             dw  lowword(offset _bswap_edi)              ; cf
 000004EB  82CF R	      C                             dw  lowword(offset _two_byte_unused)        ; d0
 000004ED  60BB R	      C                             dw  lowword(offset _psrlw)                  ; d1
 000004EF  6069 R	      C                             dw  lowword(offset _psrld)                  ; d2
 000004F1  6092 R	      C                             dw  lowword(offset _psrlq)                  ; d3
 000004F3  82CF R	      C                             dw  lowword(offset _two_byte_unused)        ; d4
 000004F5  5D11 R	      C                             dw  lowword(offset _pmullw)                 ; d5
 000004F7  82CF R	      C                             dw  lowword(offset _two_byte_unused)        ; d6
 000004F9  82CF R	      C                             dw  lowword(offset _two_byte_unused)        ; d7
 000004FB  6188 R	      C                             dw  lowword(offset _psubusb)                ; d8
 000004FD  61B1 R	      C                             dw  lowword(offset _psubusw)                ; d9
 000004FF  82CF R	      C                             dw  lowword(offset _two_byte_unused)        ; da
 00000501  5B77 R	      C                             dw  lowword(offset _pand)                   ; db
 00000503  5B25 R	      C                             dw  lowword(offset _paddusb)                ; dc
 00000505  5B4E R	      C                             dw  lowword(offset _paddusw)                ; dd
 00000507  82CF R	      C                             dw  lowword(offset _two_byte_unused)        ; de
 00000509  5BA0 R	      C                             dw  lowword(offset _pandn)                  ; df
 0000050B  82CF R	      C                             dw  lowword(offset _two_byte_unused)        ; e0
 0000050D  601A R	      C                             dw  lowword(offset _psraw)                  ; e1
 0000050F  5FA4 R	      C                             dw  lowword(offset _psrad)                  ; e2
 00000511  82CF R	      C                             dw  lowword(offset _two_byte_unused)        ; e3
 00000513  5CE8 R	      C                             dw  lowword(offset _pmulhw)                 ; e4
 00000515  82CF R	      C                             dw  lowword(offset _two_byte_unused)        ; e5
 00000517  82CF R	      C                             dw  lowword(offset _two_byte_unused)        ; e6
 00000519  82CF R	      C                             dw  lowword(offset _two_byte_unused)        ; e7
 0000051B  6136 R	      C                             dw  lowword(offset _psubsb)                 ; e8
 0000051D  615F R	      C                             dw  lowword(offset _psubsw)                 ; e9
 0000051F  82CF R	      C                             dw  lowword(offset _two_byte_unused)        ; ea
 00000521  5F00 R	      C                             dw  lowword(offset _por)                    ; eb
 00000523  5AD3 R	      C                             dw  lowword(offset _paddsb)                 ; ec
 00000525  5AFC R	      C                             dw  lowword(offset _paddsw)                 ; ed
 00000527  82CF R	      C                             dw  lowword(offset _two_byte_unused)        ; ee
 00000529  658D R	      C                             dw  lowword(offset _pxor)                   ; ef
 0000052B  82CF R	      C                             dw  lowword(offset _two_byte_unused)        ; f0
 0000052D  5F7B R	      C                             dw  lowword(offset _psllw)                  ; f1
 0000052F  5F29 R	      C                             dw  lowword(offset _pslld)                  ; f2
 00000531  5F52 R	      C                             dw  lowword(offset _psllq)                  ; f3
 00000533  82CF R	      C                             dw  lowword(offset _two_byte_unused)        ; f4
 00000535  5CBF R	      C                             dw  lowword(offset _pmaddwd)                ; f5
 00000537  82CF R	      C                             dw  lowword(offset _two_byte_unused)        ; f6
 00000539  82CF R	      C                             dw  lowword(offset _two_byte_unused)        ; f7
 0000053B  60E4 R	      C                             dw  lowword(offset _psubb)                  ; f8
 0000053D  61DA R	      C                             dw  lowword(offset _psubw)                  ; f9
 0000053F  610D R	      C                             dw  lowword(offset _psubd)                  ; fa
 00000541  82CF R	      C                             dw  lowword(offset _two_byte_unused)        ; fb
 00000543  5A58 R	      C                             dw  lowword(offset _paddb)                  ; fc
 00000545  5A81 R	      C                             dw  lowword(offset _paddw)                  ; fd
 00000547  5AAA R	      C                             dw  lowword(offset _paddd)                  ; fe
 00000549  82CF R	      C                             dw  lowword(offset _two_byte_unused)        ; ff
			      C 
			      C ;; Miscellaneous text
 0000054B 20 20 7B 61 73      C     sx_to_word_text         db  "  {as_16_bits}",0
	   5F 31 36 5F 62
	   69 74 73 7D 00
 0000055A 20 20 7B 61 73      C     sx_to_dword_text        db  "  {as_32_bits}",0
	   5F 33 32 5F 62
	   69 74 73 7D 00
			      C 
			      C ;; CPU instructions
 00000569 69 6E 74 33	      C     int3_phrase             db  "int3"
 0000056D 61 61 61	      C     aaa_text                db  "aaa"
 00000570 78		      C     xadd_text               db  "x"
 00000571 61 64 64	      C     add_text                db  "add"
 00000574 61 61 73	      C     aas_text                db  "aas"
 00000577 63 62 77	      C     cbw_text                db  "cbw"
 0000057A		      C   cwde_text:
 0000057A 63 77 64	      C     cwd_text                db  "cwd"
 0000057D  65		      C                             db  "e"
 0000057E 63 64 71	      C     cdq_text                db  "cdq"
 00000581 63 6C 63	      C     clc_text                db  "clc"
 00000584 63 6C 64	      C     cld_text                db  "cld"
 00000587 63 6C 69	      C     cli_text                db  "cli"
 0000058A 63 6D 63	      C     cmc_text                db  "cmc"
 0000058D 64 61 61	      C     daa_text                db  "daa"
 00000590 64 61 73	      C     das_text                db  "das"
 00000593 68 6C 74	      C     hlt_text                db  "hlt"
 00000596 69 6E 74 6F	      C     into_text               db  "into"
 0000059A		      C   iretd_text:
 0000059A 69 72 65 74	      C     iret_text               db  "iret"
 0000059E  64		      C                             db  "d"
 0000059F 6C 61 68 66	      C     lahf_text               db  "lahf"
 000005A3 6C 65 61 76 65      C     leave_text              db  "leave"
 000005A8 6C 6F 63 6B	      C     lock_text               db  "lock"
 000005AC 6E 6F 70	      C     nop_text                db  "nop"
 000005AF		      C   popad_text:
 000005AF 70 6F 70 61	      C     popa_text               db  "popa"
 000005B3  64		      C                             db  "d"
 000005B4		      C   popfd_text:
 000005B4 70 6F 70 66	      C     popf_text               db  "popf"
 000005B8  64		      C                             db  "d"
 000005B9		      C   pushad_text:
 000005B9 70 75 73 68 61      C     pusha_text              db  "pusha"
 000005BE  64		      C                             db  "d"
 000005BF		      C   pushfd_text:
 000005BF 70 75 73 68 66      C     pushf_text              db  "pushf"
 000005C4  64		      C                             db  "d"
 000005C5 72 65 74	      C     ret_text                db  "ret"
 000005C8 72 65 74 66	      C     retf_text               db  "retf"
 000005CC 73 61 68 66	      C     sahf_text               db  "sahf"
 000005D0 73 74 63	      C     stc_text                db  "stc"
 000005D3 73 74 64	      C     std_text                db  "std"
 000005D6 73 74 69	      C     sti_text                db  "sti"
 000005D9 77 61 69 74	      C     wait_text               db  "wait"
 000005DD 78 6C 61 74	      C     xlat_text               db  "xlat"
 000005E1 61 61 64	      C     aad_text                db  "aad"
 000005E4 61 61 6D	      C     aam_text                db  "aam"
 000005E7 63 6C 74 73	      C     clts_text               db  "clts"
 000005EB 77 62		      C     wbinvd_text             db  "wb"
 000005ED 69 6E 76 64	      C     invd_text               db  "invd"
 000005F1 61 72 70 6C	      C     arpl_text               db  "arpl"
 000005F5 62 6F 75 6E 64      C     bound_text              db  "bound"
 000005FA 62 73 77 61 70      C     bswap_text              db  "bswap"
 000005FF		      C   call_far_text:
 000005FF 63 61 6C 6C	      C     call_text               db  "call"
 00000603  66		      C                             db  "f"
 00000604		      C   cmpxchg8b_text:
 00000604 63 6D 70 78 63      C     cmpxchg_text            db  "cmpxchg"
	   68 67
 0000060B  38 62	      C                             db  "8b"
 0000060D 65 6E 74 65 72      C     enter_text              db  "enter"
 00000612 69 6E 74	      C     int_text                db  "int"
 00000615 6A 61		      C     ja_text                 db  "ja"
 00000617 6A 63		      C     jc_text                 db  "jc"
 00000619 6A 63 78 7A	      C     jcxz_text               db  "jcxz"
 0000061D 6A 65 63 78 7A      C     jecxz_text              db  "jecxz"
 00000622 6A 67		      C     jg_text                 db  "jg"
 00000624 6A 6C		      C     jl_text                 db  "jl"
 00000626 6A 6E 61	      C     jna_text                db  "jna"
 00000629 6A 6E 63	      C     jnc_text                db  "jnc"
 0000062C 6A 6E 67	      C     jng_text                db  "jng"
 0000062F 6A 6E 6C	      C     jnl_text                db  "jnl"
 00000632 6A 6E 6F	      C     jno_text                db  "jno"
 00000635 6A 6E 73	      C     jns_text                db  "jns"
 00000638 6A 6E 7A	      C     jnz_text                db  "jnz"
 0000063B 6A 6F		      C     jo_text                 db  "jo"
 0000063D 6A 70 65	      C     jpe_text                db  "jpe"
 00000640 6A 70 6F	      C     jpo_text                db  "jpo"
 00000643 6A 73		      C     js_text                 db  "js"
 00000645 6A 7A		      C     jz_text                 db  "jz"
 00000647 63 6D 6F 76 6F      C     cmovo_text              db  "cmovo"
 0000064C 63 6D 6F 76 6E      C     cmovno_text             db  "cmovno"
	   6F
 00000652 63 6D 6F 76 63      C     cmovc_text              db  "cmovc"
 00000657 63 6D 6F 76 6E      C     cmovnc_text             db  "cmovnc"
	   63
 0000065D 63 6D 6F 76 7A      C     cmovz_text              db  "cmovz"
 00000662 63 6D 6F 76 6E      C     cmovnz_text             db  "cmovnz"
	   7A
 00000668 63 6D 6F 76 6E      C     cmovna_text             db  "cmovna"
	   61
 0000066E 63 6D 6F 76 61      C     cmova_text              db  "cmova"
 00000673 63 6D 6F 76 73      C     cmovs_text              db  "cmovs"
 00000678 63 6D 6F 76 6E      C     cmovns_text             db  "cmovns"
	   73
 0000067E 63 6D 6F 76 70      C     cmovpe_text             db  "cmovpe"
	   65
 00000684 63 6D 6F 76 70      C     cmovpo_text             db  "cmovpo"
	   6F
 0000068A 63 6D 6F 76 6C      C     cmovl_text              db  "cmovl"
 0000068F 63 6D 6F 76 6E      C     cmovnl_text             db  "cmovnl"
	   6C
 00000695 63 6D 6F 76 6E      C     cmovng_text             db  "cmovng"
	   67
 0000069B 63 6D 6F 76 67      C     cmovg_text              db  "cmovg"
 000006A0 73 65 74 6F	      C     seto_text               db  "seto"
 000006A4 73 65 74 6E 6F      C     setno_text              db  "setno"
 000006A9 73 65 74 63	      C     setc_text               db  "setc"
 000006AD 73 65 74 6E 63      C     setnc_text              db  "setnc"
 000006B2 73 65 74 7A	      C     setz_text               db  "setz"
 000006B6 73 65 74 6E 7A      C     setnz_text              db  "setnz"
 000006BB 73 65 74 6E 61      C     setna_text              db  "setna"
 000006C0 73 65 74 61	      C     seta_text               db  "seta"
 000006C4 73 65 74 73	      C     sets_text               db  "sets"
 000006C8 73 65 74 6E 73      C     setns_text              db  "setns"
 000006CD 73 65 74 70 65      C     setpe_text              db  "setpe"
 000006D2 73 65 74 70 6F      C     setpo_text              db  "setpo"
 000006D7 73 65 74 6C	      C     setl_text               db  "setl"
 000006DB 73 65 74 6E 6C      C     setnl_text              db  "setnl"
 000006E0 73 65 74 6E 67      C     setng_text              db  "setng"
 000006E5 73 65 74 67	      C     setg_text               db  "setg"
			      C 
 000006E9		      C   jmp_far_text:
 000006E9 6A 6D 70	      C     jmp_text                db  "jmp"
 000006EC  66		      C                             db  "f"
 000006ED 6D 6F 76 64	      C     movd_text               db  "movd"
 000006F1 6D 6F 76 71	      C     movq_text               db  "movq"
 000006F5		      C   movsx_text:
 000006F5 6D 6F 76	      C     mov_text                db  "mov"
 000006F8  73 78	      C                             db  "sx"
 000006FA 6D 6F 76 7A 78      C     movzx_text              db  "movzx"
 000006FF 6C 64 73	      C     lds_text                db  "lds"
 00000702 6C 65 73	      C     les_text                db  "les"
 00000705 6C 65 61	      C     lea_text                db  "lea"
 00000708		      C   loopne_text:
 00000708 6C 6F 6F 70	      C     loop_text               db  "loop"
 0000070C  6E 65	      C                             db  "ne"
 0000070E		      C   looped_text:
 0000070E 6C 6F 6F 70 65      C     loope_text              db  "loope"
 00000713 70 6F 70	      C     pop_text                db  "pop"
 00000716		      C   pushd_text:
 00000716 70 75 73 68	      C     push_text               db  "push"
 0000071A  64		      C                             db  "d"
 0000071B		      C   repne_text:
 0000071B 72 65 70	      C     rep_text                db  "rep"
 0000071E  6E 65	      C                             db  "ne"
 00000720 6D 6F 76 73 62      C     movsb_text              db  "movsb"
 00000725 6D 6F 76 73 77      C     movsw_text              db  "movsw"
 0000072A 6D 6F 76 73 64      C     movsd_text              db  "movsd"
 0000072F 73 74 6F 73 62      C     stosb_text              db  "stosb"
 00000734 73 74 6F 73 77      C     stosw_text              db  "stosw"
 00000739 73 74 6F 73 64      C     stosd_text              db  "stosd"
 0000073E 6C 6F 64 73 62      C     lodsb_text              db  "lodsb"
 00000743 6C 6F 64 73 77      C     lodsw_text              db  "lodsw"
 00000748 6C 6F 64 73 64      C     lodsd_text              db  "lodsd"
 0000074D 69 6E 73 62	      C     insb_text               db  "insb"
 00000751 69 6E 73 77	      C     insw_text               db  "insw"
 00000755 69 6E 73 64	      C     insd_text               db  "insd"
 00000759 6F 75 74 73 62      C     outsb_text              db  "outsb"
 0000075E 6F 75 74 73 77      C     outsw_text              db  "outsw"
 00000763 6F 75 74 73 64      C     outsd_text              db  "outsd"
 00000768 63 6D 70 73 62      C     cmpsb_text              db  "cmpsb"
 0000076D 63 6D 70 73 77      C     cmpsw_text              db  "cmpsw"
 00000772 63 6D 70 73 64      C     cmpsd_text              db  "cmpsd"
 00000777 73 63 61 73 62      C     scasb_text              db  "scasb"
 0000077C 73 63 61 73 77      C     scasw_text              db  "scasw"
 00000781 73 63 61 73 64      C     scasd_text              db  "scasd"
 00000786 73 65 74 63 63      C     setccc_text             db  "setccc"
	   63
 0000078C 62 73 66	      C     bsf_text                db  "bsf"
 0000078F 62 73 72	      C     bsr_text                db  "bsr"
 00000792		      C   btc_text:
 00000792 62 74		      C     bt_text                 db  "bt"
 00000794  63		      C                             db  "c"
 00000795 62 74 73	      C     bts_text                db  "bts"
 00000798 62 74 72	      C     btr_text                db  "btr"
 0000079B 69 6E 76 6C 70      C     invlpg_text             db  "invlpg"
	   67
 000007A1 6C 61 72	      C     lar_text                db  "lar"
 000007A4 6C 66 73	      C     lfs_text                db  "lfs"
 000007A7 6C 67 73	      C     lgs_text                db  "lgs"
 000007AA 6C 73 73	      C     lss_text                db  "lss"
 000007AD 6C 67 64 74	      C     lgdt_text               db  "lgdt"
 000007B1 6C 69 64 74	      C     lidt_text               db  "lidt"
 000007B5 6C 6C 64 74	      C     lldt_text               db  "lldt"
 000007B9 6C 6D 73 77	      C     lmsw_text               db  "lmsw"
 000007BD 6C 73 6C	      C     lsl_text                db  "lsl"
 000007C0 6C 74 72	      C     ltr_text                db  "ltr"
 000007C3 73 6C 64 74	      C     sldt_text               db  "sldt"
 000007C7 73 74 72	      C     str_text                db  "str"
 000007CA 76 65 72 72	      C     verr_text               db  "verr"
 000007CE 76 65 72 77	      C     verw_text               db  "verw"
 000007D2 73 67 64 74	      C     sgdt_text               db  "sgdt"
 000007D6 73 69 64 74	      C     sidt_text               db  "sidt"
 000007DA 73 6D 73 77	      C     smsw_text               db  "smsw"
 000007DE		      C   shld_text:
 000007DE 73 68 6C	      C     shl_text                db  "shl"
 000007E1  64		      C                             db  "d"
 000007E2 73 61 6C	      C     sal_text                db  "sal"
 000007E5		      C   shrd_text:
 000007E5 73 68 72	      C     shr_text                db  "shr"
 000007E8  64		      C                             db  "d"
 000007E9 73 61 72	      C     sar_text                db  "sar"
 000007EC 69		      C     imul_text               db  "i"
 000007ED 6D 75 6C	      C     mul_text                db  "mul"
 000007F0 74 65 73 74	      C     test_text               db  "test"
 000007F4 6E 6F 74	      C     not_text                db  "not"
 000007F7 6E 65 67	      C     neg_text                db  "neg"
 000007FA 69		      C     idiv_text               db  "i"
 000007FB 64 69 76	      C     div_text                db  "div"
 000007FE		      C   inc_text:
 000007FE 69 6E		      C     in_text                 db  "in"
 00000800  63		      C                             db  "c"
 00000801 64 65 63	      C     dec_text                db  "dec"
 00000804 72 6F 6C	      C     rol_text                db  "rol"
 00000807 72 63 6C	      C     rcl_text                db  "rcl"
 0000080A 72 6F 72	      C     ror_text                db  "ror"
 0000080D 72 63 72	      C     rcr_text                db  "rcr"
 00000810 78 63 68 67	      C     xchg_text               db  "xchg"
 00000814 6F 72		      C     or_text                 db  "or"
 00000816 61 64 63	      C     adc_text                db  "adc"
 00000819 3F 3F 3F 20	      C     xxx_text                db  "??? "
 0000081D 61 6E 64	      C     and_text                db  "and"
 00000820 78 6F 72	      C     xor_text                db  "xor"
 00000823 63 6D 70	      C     cmp_text                db  "cmp"
			      C 
			      C ;; Newer instructions
 00000826 63 70 75 69 64      C     cpuid_text              db  "cpuid"
 0000082B 72 64 6D 73 72      C     rdmsr_text              db  "rdmsr"
 00000830 72 64 70 6D 63      C     rdpmc_text              db  "rdpmc"
 00000835 72 64 74 73 63      C     rdtsc_text              db  "rdtsc"
 0000083A 72 73 6D	      C     rsm_text                db  "rsm"
 0000083D 75 64 32 5F 30      C     ud2_0f0b_text           db  "ud2_0f0b"
	   66 30 62
 00000845 75 64 32 5F 30      C     ud2_0fb9_text           db  "ud2_0fb9"
	   66 62 39
 0000084D 77 72 6D 73 72      C     wrmsr_text              db  "wrmsr"
			      C 
			      C ;; FPU instructions
 00000852 66 63 6D 6F 76      C     fcmovb_text             db  "fcmovb"
	   62
 00000858 66 63 6D 6F 76      C     fcmovz_text             db  "fcmovz"
	   7A
 0000085E 66 63 6D 6F 76      C     fcmovng_text            db  "fcmovng"
	   6E 67
 00000865 66 63 6D 6F 76      C     fcmovpo_text            db  "fcmovpo"
	   70 6F
 0000086C 66 63 6D 6F 76      C     fcmovnb_text            db  "fcmovnb"
	   6E 62
 00000873 66 63 6D 6F 76      C     fcmovnz_text            db  "fcmovnz"
	   6E 7A
 0000087A 66 63 6D 6F 76      C     fcmovg_text             db  "fcmovg"
	   67
 00000880 66 63 6D 6F 76      C     fcmovpe_text            db  "fcmovpe"
	   70 65
 00000887		      C   fcomi_text:
 00000887 66 63 6F 6D 69      C     fcomip_text             db  "fcomip"
	   70
 0000088D		      C   fucomi_text:
 0000088D 66 75 63 6F 6D      C     fucomip_text            db  "fucomip"
	   69 70
 00000894 66 70 75	      C     fpu_text                db  "fpu"
 00000897		      C   faddp_text:
 00000897 66 61 64 64	      C     fadd_text               db  "fadd"
 0000089B  70		      C                             db  "p"
 0000089C		      C   fmulp_text:
 0000089C 66 6D 75 6C	      C     fmul_text               db  "fmul"
 000008A0  70		      C                             db  "p"
 000008A1		      C   fcompp_text:
 000008A1		      C   fcomp_text:
 000008A1 66 63 6F 6D	      C     fcom_text               db  "fcom"
 000008A5  70		      C                             db  "p"
 000008A6  70		      C                             db  "p"
 000008A7		      C   fsubrp_text:
 000008A7		      C   fsubr_text:
 000008A7 66 73 75 62	      C     fsub_text               db  "fsub"
 000008AB  72		      C                             db  "r"
 000008AC  70		      C                             db  "p"
 000008AD 66 73 75 62 70      C     fsubp_text              db  "fsubp"
 000008B2		      C   fdivr_text:
 000008B2 66 64 69 76	      C     fdiv_text               db  "fdiv"
 000008B6  72		      C                             db  "r"
 000008B7 66 64 69 76 70      C     fdivp_text              db  "fdivp"
 000008BC 66 64 69 76 72      C     fdivrp_text             db  "fdivrp"
	   70
 000008C2		      C   fldcw_text:
 000008C2 66 6C 64	      C     fld_text                db  "fld"
 000008C5  63 77	      C                             db  "cw"
 000008C7		      C   fstp_text:
 000008C7 66 73 74	      C     fst_text                db  "fst"
 000008CA  70		      C                             db  "p"
 000008CB 66 78 63 68	      C     fxch_text               db  "fxch"
 000008CF 66 6E 6F 70	      C     fnop_text               db  "fnop"
 000008D3 66 63 68 73	      C     fchs_text               db  "fchs"
 000008D7 66 61 62 73	      C     fabs_text               db  "fabs"
 000008DB 66 74 73 74	      C     ftst_text               db  "ftst"
 000008DF 66 78 61 6D	      C     fxam_text               db  "fxam"
 000008E3 66 6C 64 31	      C     fld1_text               db  "fld1"
 000008E7 66 6C 64 6C 32      C     fldl2t_text             db  "fldl2t"
	   74
 000008ED 66 6C 64 6C 32      C     fldl2e_text             db  "fldl2e"
	   65
 000008F3 66 6C 64 70 69      C     fldpi_text              db  "fldpi"
 000008F8 66 6C 64 6C 67      C     fldlg2_text             db  "fldlg2"
	   32
 000008FE 66 6C 64 6C 6E      C     fldln2_text             db  "fldln2"
	   32
 00000904 66 6C 64 7A	      C     fldz_text               db  "fldz"
 00000908 66 32 78 6D 31      C     f2xm1_text              db  "f2xm1"
 0000090D 66 79 6C 32 78      C     fyl2x_text              db  "fyl2x"
 00000912 66 70 74 61 6E      C     fptan_text              db  "fptan"
 00000917 66 70 61 74 61      C     fpatan_text             db  "fpatan"
	   6E
 0000091D 66 78 74 72 61      C     fxtract_text            db  "fxtract"
	   63 74
 00000924		      C   fprem_text:
 00000924 66 70 72 65 6D      C     fprem1_text             db  "fprem1"
	   31
 0000092A 66 64 65 63 73      C     fdecstp_text            db  "fdecstp"
	   74 70
 00000931 66 69 6E 63 73      C     fincstp_text            db  "fincstp"
	   74 70
 00000938 66 79 6C 32 78      C     fyl2xp1_text            db  "fyl2xp1"
	   70 31
 0000093F 66 73 71 72 74      C     fsqrt_text              db  "fsqrt"
 00000944 66 73 69 6E 63      C     fsincos_text            db  "fsincos"
	   6F 73
 0000094B 66 72 6E 64 69      C     frndint_text            db  "frndint"
	   6E 74
 00000952 66 73 63 61 6C      C     fscale_text             db  "fscale"
	   65
 00000958 66 73 69 6E	      C     fsin_text               db  "fsin"
 0000095C 66 63 6F 73	      C     fcos_text               db  "fcos"
 00000960 66 6C 64 65 6E      C     fldenv_text             db  "fldenv"
	   76
 00000966 66 6E 73 74 65      C     fnstenv_text            db  "fnstenv"
	   6E 76
 0000096D 66 6E 73 74 63      C     fnstcw_text             db  "fnstcw"
	   77
 00000973		      C   fucom_text:
 00000973		      C   fucomp_text:
 00000973 66 75 63 6F 6D      C     fucompp_text            db  "fucompp"
	   70 70
 0000097A 66 69 61 64 64      C     fiadd_text              db  "fiadd"
 0000097F 66 69 6D 75 6C      C     fimul_text              db  "fimul"
 00000984		      C   ficomp_text:
 00000984 66 69 63 6F 6D      C     ficom_text              db  "ficom"
 00000989  70		      C                             db  "p"
 0000098A		      C   fisubr_text:
 0000098A 66 69 73 75 62      C     fisub_text              db  "fisub"
 0000098F  72		      C                             db  "r"
 00000990		      C   fidivr_text:
 00000990 66 69 64 69 76      C     fidiv_text              db  "fidiv"
 00000995  72		      C                             db  "r"
 00000996 66 6E 63 6C 65      C     fnclex_text             db  "fnclex"
	   78
 0000099C 66 6E 69 6E 69      C     fninit_text             db  "fninit"
	   74
 000009A2 66 69 6C 64	      C     fild_text               db  "fild"
 000009A6		      C   fistp_text:
 000009A6 66 69 73 74	      C     fist_text               db  "fist"
 000009AA  70		      C                             db  "p"
 000009AB 66 66 72 65 65      C     ffree_text              db  "ffree"
 000009B0 66 72 73 74 6F      C     frstor_text             db  "frstor"
	   72
 000009B6 66 6E 73 74 73      C     fnstsw_text             db  "fnstsw"
	   77
 000009BC 66 62 6C 64	      C     fbld_text               db  "fbld"
 000009C0 66 62 73 74 70      C     fbstp_text              db  "fbstp"
 000009C5 66 6E 73 61 76      C     fnsave_text             db  "fnsave"
	   65
			      C 
			      C ;; MMX and SSE/SSE2 instructions
 000009CB 65 6D 6D 73	      C     emms_text               db  "emms"
 000009CF 70 61 63 6B 73      C     packssdw_text           db  "packssdw"
	   73 64 77
 000009D7 70 61 63 6B 73      C     packsswb_text           db  "packsswb"
	   73 77 62
 000009DF 70 61 63 6B 75      C     packuswb_text           db  "packuswb"
	   73 77 62
 000009E7 70 61 64 64 62      C     paddb_text              db  "paddb"
 000009EC 70 61 64 64 73      C     paddsb_text             db  "paddsb"
	   62
 000009F2 70 61 64 64 73      C     paddsw_text             db  "paddsw"
	   77
 000009F8 70 61 64 64 75      C     paddusb_text            db  "paddusb"
	   73 62
 000009FF 70 61 64 64 75      C     paddusw_text            db  "paddusw"
	   73 77
 00000A06 70 61 64 64 77      C     paddw_text              db  "paddw"
 00000A0B 70 61 64 64 64      C     paddd_text              db  "paddd"
 00000A10 70 61 6E 64	      C     pand_text               db  "pand"
 00000A14 70 61 6E 64 6E      C     pandn_text              db  "pandn"
 00000A19 70 63 6D 70 65      C     pcmpeqb_text            db  "pcmpeqb"
	   71 62
 00000A20 70 63 6D 70 65      C     pcmpeqd_text            db  "pcmpeqd"
	   71 64
 00000A27 70 63 6D 70 65      C     pcmpeqw_text            db  "pcmpeqw"
	   71 77
 00000A2E 70 63 6D 70 67      C     pcmpgtb_text            db  "pcmpgtb"
	   74 62
 00000A35 70 63 6D 70 67      C     pcmpgtd_text            db  "pcmpgtd"
	   74 64
 00000A3C 70 63 6D 70 67      C     pcmpgtw_text            db  "pcmpgtw"
	   74 77
 00000A43 70 6D 61 64 64      C     pmaddwd_text            db  "pmaddwd"
	   77 64
 00000A4A 70 6D 75 6C 68      C     pmulhw_text             db  "pmulhw"
	   77
 00000A50 70 6D 75 6C 6C      C     pmullw_text             db  "pmullw"
	   77
 00000A56 70 6F 72	      C     por_text                db  "por"
 00000A59 70 73 6C 6C 64      C     pslld_text              db  "pslld"
 00000A5E 70 73 6C 6C 71      C     psllq_text              db  "psllq"
 00000A63 70 73 6C 6C 77      C     psllw_text              db  "psllw"
 00000A68 70 73 72 61 64      C     psrad_text              db  "psrad"
 00000A6D 70 73 72 61 77      C     psraw_text              db  "psraw"
 00000A72 70 73 72 6C 64      C     psrld_text              db  "psrld"
 00000A77 70 73 72 6C 71      C     psrlq_text              db  "psrlq"
 00000A7C 70 73 72 6C 77      C     psrlw_text              db  "psrlw"
 00000A81 70 73 75 62 62      C     psubb_text              db  "psubb"
 00000A86 70 73 75 62 64      C     psubd_text              db  "psubd"
 00000A8B 70 73 75 62 73      C     psubsb_text             db  "psubsb"
	   62
 00000A91 70 73 75 62 73      C     psubsw_text             db  "psubsw"
	   77
 00000A97 70 73 75 62 75      C     psubusb_text            db  "psubusb"
	   73 62
 00000A9E 70 73 75 62 75      C     psubusw_text            db  "psubusw"
	   73 77
 00000AA5 70 73 75 62 77      C     psubw_text              db  "psubw"
 00000AAA 70 75 6E 70 63      C     punpckhbw_text          db  "punpckhbw"
	   6B 68 62 77
 00000AB3 70 75 6E 70 63      C     punpckhwd_text          db  "punpckhwd"
	   6B 68 77 64
 00000ABC 70 75 6E 70 63      C     punpckhdq_text          db  "punpckhdq"
	   6B 68 64 71
 00000AC5 70 75 6E 70 63      C     punpcklbw_text          db  "punpcklbw"
	   6B 6C 62 77
 00000ACE 70 75 6E 70 63      C     punpcklwd_text          db  "punpcklwd"
	   6B 6C 77 64
 00000AD7 70 75 6E 70 63      C     punpckldq_text          db  "punpckldq"
	   6B 6C 64 71
 00000AE0 70 78 6F 72	      C     pxor_text               db  "pxor"
			      C 
 00000AE4 00		      C     null_text               db  0
 00000AE5 7B 39 34 20 6F      C     bytes_94_108_text       db  "{94 or 108 bytes}",0
	   72 20 31 30 38
	   20 62 79 74 65
	   73 7D 00
 00000AF7 64		      C   dword_text                db  "d"
 00000AF8 77 6F 72 64 00      C     word_text               db  "word",0
 00000AFD 71 77 6F 72 64      C     qword_text              db  "qword",0
	   00
 00000B03 72 65 61 6C 33      C     real4_text              db  "real32",0
	   32 00
 00000B0A 72 65 61 6C 36      C     real8_text              db  "real64",0
	   34 00
 00000B11 72 65 61 6C 38      C     real10_text             db  "real80",0
	   30 00
 00000B18 73 74 30 2C 73      C     st0_comma_sti_text      db  "st0,sti",0
	   74 69 00
 00000B20 73 74 69 2C 73      C     sti_comma_st0_text      db  "sti,st0",0
	   74 30 00
			      C 
 00000B28 66 70 75 20 6F      C     fpu_unknown_opcode      db  "fpu opcode xx xx"
	   70 63 6F 64 65
	   20 78 78 20 78
	   78
 00000B38 6F 70 63 6F 64      C     unknown_opcode          db  "opcode xx"
	   65 20 78 78
 00000B41		      C   illegal_register:
 00000B41 3F 3F 3F 00	      C     unknown_text            db  "???",0
			      C 
 00000B45  00000064 [	      C     temp_buffer             db  100 dup(0)
	    00
	   ]
 00000BA9  00000064 [	      C     temp_buffer2            db  100 dup(0)
	    00
	   ]
			      C 
			      C 
			      C 
 00000C0D		      C x86_disassemble:
			      C ; This routine is used to disassemble an instruction
			      C ;
			      C ; Upon entry:   ds:[esi] - far ptr to instruction bytes (code)
			      C ;               es:[edi] - where to store instruction decoding format
			      C ;                          * Refer to x86\inf\disasm.inf for information on the disassembly format
			      C ; Upon exit:    string at es:[edi] is updated
			      C ;               ecx - total number of bytes in this instruction
			      C ;               no other registers or flags affected
			      C ;
 00000C0D  33 C9	      C     xor     ecx,ecx                                                 ; Initialize the count to zero at the start
			      C   ; [ebp+40] - eax
			      C   ; [ebp+36] - ecx
			      C   ; [ebp+32] - edx
			      C   ; [ebp+28] - ebx
			      C   ; [ebp+24] - esp
			      C   ; [ebp+20] - ebp
			      C   ; [ebp+16] - esi
			      C   ; [ebp+12] - edi
			      C   ; [ebp+08] - eflags
			      C   ; [ebp+04] - fs
			      C   ; [ebp+00] - bogus ebp (do not update)
 00000C0F  60		      C     pushad
 00000C10  9C		      C     pushfd
 00000C11  0F A0	      C     push    fs
 00000C13  C8 0000 00	      C     enter   0,0
			      C 
 00000C17  66| 2E: 8E 25      C     mov     fs,cs:data_segment
	   0000A4FD R
 00000C1F  64: C7 05	      C     mov     fs:cpu_mode,0
	   0000009B R
	   00000000
 00000C2A  64: C7 05	      C     mov     fs:prefix_bytes,0
	   0000009F R
	   00000000
 00000C35  64: C7 05	      C     mov     fs:sreg_override,0
	   000000A3 R
	   00000000
 00000C40  64: C7 05	      C     mov     fs:sign_extend,0
	   000000A7 R
	   00000000
 00000C4B  64: C7 05	      C     mov     fs:reverse_regs,0
	   000000AB R
	   00000000
 00000C56  64: C7 05	      C     mov     fs:special_reg,0
	   000000AF R
	   00000000
 00000C61  64: C7 05	      C     mov     fs:sib_byte,0
	   000000B3 R
	   00000000
 00000C6C  64: C7 05	      C     mov     fs:byte_word_size,0
	   000000B7 R
	   00000000
 00000C77  64: C7 05	      C     mov     fs:seg_override,0
	   000000BB R
	   00000000
 00000C82  64: C7 05	      C     mov     fs:op_size_override,0
	   000000BF R
	   00000000
 00000C8D  64: C7 05	      C     mov     fs:adr_size_override,0
	   000000C3 R
	   00000000
 00000C98  64: C7 05	      C     mov     fs:reverse_mod_reg_rm,0
	   000000C7 R
	   00000000
 00000CA3  64: C7 05	      C     mov     fs:scale_factor,0
	   000000CB R
	   00000000
 00000CAE  64: C7 05	      C     mov     fs:movxx_register,0
	   000000CF R
	   00000000
 00000CB9  64: C7 05	      C     mov     fs:first_gp_register,0
	   000000D3 R
	   00000000
 00000CC4  64: C7 05	      C     mov     fs:second_gp_register,0
	   000000D7 R
	   00000000
 00000CCF  64: C7 05	      C     mov     fs:display_second_register,1
	   000000DB R
	   00000001
 00000CDA  64: C7 05	      C     mov     fs:special_control,0
	   000000E3 R
	   00000000
 00000CE5  64: C7 05	      C     mov     fs:gp_reg_count,0
	   000000DF R
	   00000000
			      C 
 00000CF0  64: C7 05	      C     mov     fs:instruction_offset,0
	   000000E7 R
	   00000000
 00000CFB  64: C7 05	      C     mov     fs:instruction_bytes,0
	   000000EB R
	   00000000
 00000D06  64: C7 05	      C     mov     fs:instruction_text_length,0
	   000000EF R
	   00000000
 00000D11  64: C7 05	      C     mov     fs:instruction_text_offset,0
	   000000F3 R
	   00000000
 00000D1C  64: C7 05	      C     mov     fs:parameters_text_length,0
	   000000F7 R
	   00000000
 00000D27  64: C7 05	      C     mov     fs:parameters_text_offset,offset temp_buffer
	   000000FB R
	   00000B45 R
 00000D32  64: C7 05	      C     mov     fs:displacement_offset,0
	   000000FF R
	   00000000
 00000D3D  64: C7 05	      C     mov     fs:displacement_bytes,0
	   00000103 R
	   00000000
 00000D48  64: C7 05	      C     mov     fs:displacement_data,0
	   00000107 R
	   00000000
 00000D53  64: C7 05	      C     mov     fs:mod_reg_rm_bytes,0
	   0000010F R
	   00000000
 00000D5E  64: C7 05	      C     mov     fs:mod_reg_rm_offset,0
	   0000010B R
	   00000000
 00000D69  64: C7 05	      C     mov     fs:sib_bytes,0
	   00000117 R
	   00000000
 00000D74  64: C7 05	      C     mov     fs:sib_offset,0
	   00000113 R
	   00000000
 00000D7F  64: C7 05	      C     mov     fs:immediate_offset,0
	   0000011B R
	   00000000
 00000D8A  64: C7 05	      C     mov     fs:immediate_bytes,0
	   0000011F R
	   00000000
 00000D95  64: C7 05	      C     mov     fs:immediate_data,0
	   00000123 R
	   00000000
 00000DA0  64: C7 05	      C     mov     fs:operand_size,0
	   00000127 R
	   00000000
			      C 
 00000DAB		      C   next_byte:
 00000DAB  64: 89 35	      C     mov     fs:instruction_offset,esi
	   000000E7 R
 00000DB2  8B 06	      C     mov     eax,dword ptr ds:[esi]
 00000DB4  0F B6 C8	      C     movzx   ecx,al
 00000DB7  64: 0F B7 1C 4D    C     movzx   ebx,word ptr fs:[ecx*2 + offset opcode_map]
	   0000014B R
 00000DC0  FF E3	      C     jmp     ebx
			      C 
 00000DC2		      C   _two_byte_instruction:
 00000DC2  8B 46 01	      C     mov     eax,dword ptr ds:[esi+1]
 00000DC5  0F B6 C8	      C     movzx   ecx,al
 00000DC8  64: 0F B7 1C 4D    C     movzx   ebx,word ptr fs:[ecx*2 + offset two_byte_opcode_map]
	   0000034B R
 00000DD1  FF E3	      C     jmp     ebx
			      C 
			      C 
			      C ;; OVERRIDES
 00000DD3		      C   _op_size_override:
			      C   ; 32/16-bit register override
 00000DD3  64: FF 05	      C     inc     fs:op_size_override
	   000000BF R
 00000DDA		      C   process_override_byte:
 00000DDA  64: FF 05	      C     inc     fs:prefix_bytes
	   0000009F R
 00000DE1  46		      C     inc     esi
 00000DE2  EB C7	      C     jmp     next_byte
			      C 
 00000DE4		      C   _adr_size_override:
			      C   ; 32/16-bit memory override
 00000DE4  64: FF 05	      C     inc     fs:adr_size_override
	   000000C3 R
 00000DEB  EB ED	      C     jmp     process_override_byte
			      C 
 00000DED		      C   _cs_override:
			      C   ; cs segment override
 00000DED  64: C7 05	      C     mov     fs:seg_override,1
	   000000BB R
	   00000001
 00000DF8  EB E0	      C     jmp     process_override_byte
			      C 
 00000DFA		      C   _ds_override:
			      C   ; ds segment override
 00000DFA  64: C7 05	      C     mov     fs:seg_override,2
	   000000BB R
	   00000002
 00000E05  EB D3	      C     jmp     process_override_byte
			      C 
 00000E07		      C   _es_override:
			      C   ; es segment override
 00000E07  64: C7 05	      C     mov     fs:seg_override,3
	   000000BB R
	   00000003
 00000E12  EB C6	      C     jmp     process_override_byte
			      C 
 00000E14		      C   _ss_override:
			      C   ; SS segment override
 00000E14  64: C7 05	      C     mov     fs:seg_override,4
	   000000BB R
	   00000004
 00000E1F  EB B9	      C     jmp     process_override_byte
			      C 
 00000E21		      C   _fs_override:
			      C   ; FS segment override
 00000E21  64: C7 05	      C     mov     fs:seg_override,5
	   000000BB R
	   00000005
 00000E2C  EB AC	      C     jmp     process_override_byte
			      C 
 00000E2E		      C   _gs_override:
			      C   ; GS segment override
 00000E2E  64: C7 05	      C     mov     fs:seg_override,6
	   000000BB R
	   00000006
 00000E39  EB 9F	      C     jmp     process_override_byte
			      C 
			      C 
			      C 
			      C ;; INSTRUCTIONS
 00000E3B		      C   _aaa:
			      C     @instr_bytes    1
 00000E3B  64: C7 05	     1C     mov     fs:instruction_bytes,1
	   000000EB R
	   00000001
			     1C     IF 1 EQ 1
 00000E46  46		     1C         inc     esi
			     1C     ELSE
			     1C         add     esi,1
			     1C     ENDIF
			      C     @instr_text     aaa_text, 3
 00000E47  64: C7 05	     1C     mov     fs:instruction_text_offset,offset aaa_text
	   000000F3 R
	   0000056D R
 00000E52  64: C7 05	     1C     mov     fs:instruction_text_length,3
	   000000EF R
	   00000003
 00000E5D  E9 0000751D	      C     jmp     store_instruction
			      C 
 00000E62		      C   _aad:
			      C     @instr_bytes    2
 00000E62  64: C7 05	     1C     mov     fs:instruction_bytes,2
	   000000EB R
	   00000002
			     1C     IF 2 EQ 1
			     1C         inc     esi
			     1C     ELSE
 00000E6D  83 C6 02	     1C         add     esi,2
			     1C     ENDIF
			      C     @instr_text     aad_text, 3
 00000E70  64: C7 05	     1C     mov     fs:instruction_text_offset,offset aad_text
	   000000F3 R
	   000005E1 R
 00000E7B  64: C7 05	     1C     mov     fs:instruction_text_length,3
	   000000EF R
	   00000003
 00000E86  E9 000074F4	      C     jmp     store_instruction
			      C 
 00000E8B		      C   _aam:
			      C     @instr_bytes    2
 00000E8B  64: C7 05	     1C     mov     fs:instruction_bytes,2
	   000000EB R
	   00000002
			     1C     IF 2 EQ 1
			     1C         inc     esi
			     1C     ELSE
 00000E96  83 C6 02	     1C         add     esi,2
			     1C     ENDIF
			      C     @instr_text     aam_text, 3
 00000E99  64: C7 05	     1C     mov     fs:instruction_text_offset,offset aam_text
	   000000F3 R
	   000005E4 R
 00000EA4  64: C7 05	     1C     mov     fs:instruction_text_length,3
	   000000EF R
	   00000003
 00000EAF  E9 000074CB	      C     jmp     store_instruction
			      C 
 00000EB4		      C   _aas:
			      C     @instr_bytes    1
 00000EB4  64: C7 05	     1C     mov     fs:instruction_bytes,1
	   000000EB R
	   00000001
			     1C     IF 1 EQ 1
 00000EBF  46		     1C         inc     esi
			     1C     ELSE
			     1C         add     esi,1
			     1C     ENDIF
			      C     @instr_text     aas_text, 3
 00000EC0  64: C7 05	     1C     mov     fs:instruction_text_offset,offset aas_text
	   000000F3 R
	   00000574 R
 00000ECB  64: C7 05	     1C     mov     fs:instruction_text_length,3
	   000000EF R
	   00000003
 00000ED6  E9 000074A4	      C     jmp     store_instruction
			      C 
 00000EDB		      C   _adc_immed8:
			      C     @instr_bytes    1
 00000EDB  64: C7 05	     1C     mov     fs:instruction_bytes,1
	   000000EB R
	   00000001
			     1C     IF 1 EQ 1
 00000EE6  46		     1C         inc     esi
			     1C     ELSE
			     1C         add     esi,1
			     1C     ENDIF
			      C     @instr_text     adc_text, 3
 00000EE7  64: C7 05	     1C     mov     fs:instruction_text_offset,offset adc_text
	   000000F3 R
	   00000816 R
 00000EF2  64: C7 05	     1C     mov     fs:instruction_text_length,3
	   000000EF R
	   00000003
 00000EFD		      C   _al_w_immed8_common:
 00000EFD  E8 00007646	      C     call    start_offsets
 00000F02  64: C7 05	      C     mov     fs:operand_size,8
	   00000127 R
	   00000008
 00000F0D  33 DB	      C     xor     ebx,ebx
 00000F0F  E8 00007A2E	      C     call    store_gp_register
 00000F14  E8 00008976	      C     call    store_comma
 00000F19  E8 000088DF	      C     call    store_8_bit_signed_value
 00000F1E  E8 0000763B	      C     call    end_offsets
 00000F23  E9 00007457	      C     jmp     store_instruction
			      C 
 00000F28		      C   _adc_immed16_32:
			      C     @instr_bytes    1
 00000F28  64: C7 05	     1C     mov     fs:instruction_bytes,1
	   000000EB R
	   00000001
			     1C     IF 1 EQ 1
 00000F33  46		     1C         inc     esi
			     1C     ELSE
			     1C         add     esi,1
			     1C     ENDIF
			      C     @instr_text     adc_text, 3
 00000F34  64: C7 05	     1C     mov     fs:instruction_text_offset,offset adc_text
	   000000F3 R
	   00000816 R
 00000F3F  64: C7 05	     1C     mov     fs:instruction_text_length,3
	   000000EF R
	   00000003
 00000F4A		      C   _xax_w_immed16_32_common:
 00000F4A  E8 000075F9	      C     call    start_offsets
 00000F4F  E8 00007687	      C     call    determine_standard_operand_size
 00000F54  33 DB	      C     xor     ebx,ebx
 00000F56  E8 000079E7	      C     call    store_gp_register
 00000F5B  E8 0000892F	      C     call    store_comma
 00000F60  E8 000088D8	      C     call    store_signed_value
 00000F65  E8 000075F4	      C     call    end_offsets
 00000F6A  E9 00007410	      C     jmp     store_instruction
			      C 
 00000F6F		      C   _adc_rm_immed8:
			      C     @instr_bytes    1
 00000F6F  64: C7 05	     1C     mov     fs:instruction_bytes,1
	   000000EB R
	   00000001
			     1C     IF 1 EQ 1
 00000F7A  46		     1C         inc     esi
			     1C     ELSE
			     1C         add     esi,1
			     1C     ENDIF
			      C     @instr_text     adc_text, 3
 00000F7B  64: C7 05	     1C     mov     fs:instruction_text_offset,offset adc_text
	   000000F3 R
	   00000816 R
 00000F86  64: C7 05	     1C     mov     fs:instruction_text_length,3
	   000000EF R
	   00000003
 00000F91		      C   _xxx_rm_immed8:
 00000F91  64: C7 05	      C     mov     fs:operand_size,8
	   00000127 R
	   00000008
 00000F9C  E8 000078FA	      C     call    extract_mod_rm
 00000FA1  E8 000088E9	      C     call    store_comma
 00000FA6  E8 00008852	      C     call    store_8_bit_signed_value
 00000FAB  E9 000073CF	      C     jmp     store_instruction
			      C 
 00000FB0		      C   _adc_rm_immed16_32:
			      C     @instr_bytes    1
 00000FB0  64: C7 05	     1C     mov     fs:instruction_bytes,1
	   000000EB R
	   00000001
			     1C     IF 1 EQ 1
 00000FBB  46		     1C         inc     esi
			     1C     ELSE
			     1C         add     esi,1
			     1C     ENDIF
			      C     @instr_text     adc_text, 3
 00000FBC  64: C7 05	     1C     mov     fs:instruction_text_offset,offset adc_text
	   000000F3 R
	   00000816 R
 00000FC7  64: C7 05	     1C     mov     fs:instruction_text_length,3
	   000000EF R
	   00000003
 00000FD2		      C   _xxx_rm_immed16_32:
 00000FD2  E8 00007604	      C     call    determine_standard_operand_size
 00000FD7  E8 000078BF	      C     call    extract_mod_rm
 00000FDC  E8 000088AE	      C     call    store_comma
 00000FE1  E8 00008857	      C     call    store_signed_value
 00000FE6  E9 00007394	      C     jmp     store_instruction
			      C 
 00000FEB		      C   _adc_rm_16_32_with_immed8:
			      C     @instr_bytes    1
 00000FEB  64: C7 05	     1C     mov     fs:instruction_bytes,1
	   000000EB R
	   00000001
			     1C     IF 1 EQ 1
 00000FF6  46		     1C         inc     esi
			     1C     ELSE
			     1C         add     esi,1
			     1C     ENDIF
			      C     @instr_text     adc_text, 3
 00000FF7  64: C7 05	     1C     mov     fs:instruction_text_offset,offset adc_text
	   000000F3 R
	   00000816 R
 00001002  64: C7 05	     1C     mov     fs:instruction_text_length,3
	   000000EF R
	   00000003
 0000100D		      C   _xxx_rm_16_32_with_immed8:
 0000100D  E8 000075C9	      C     call    determine_standard_operand_size
 00001012  E8 00007531	      C     call    start_offsets
 00001017  E8 0000787F	      C     call    extract_mod_rm
 0000101C  E8 0000886E	      C     call    store_comma
 00001021  E8 000087D7	      C     call    store_8_bit_signed_value
 00001026  E8 00007533	      C     call    end_offsets
 0000102B  E9 0000734F	      C     jmp     store_instruction
			      C 
 00001030		      C   _adc:
			      C     @instr_bytes    1
 00001030  64: C7 05	     1C     mov     fs:instruction_bytes,1
	   000000EB R
	   00000001
			     1C     IF 1 EQ 1
 0000103B  46		     1C         inc     esi
			     1C     ELSE
			     1C         add     esi,1
			     1C     ENDIF
			      C     @instr_text     adc_text, 3
 0000103C  64: C7 05	     1C     mov     fs:instruction_text_offset,offset adc_text
	   000000F3 R
	   00000816 R
 00001047  64: C7 05	     1C     mov     fs:instruction_text_length,3
	   000000EF R
	   00000003
 00001052		      C   _dw_mod_reg_rm_common:
			      C   ; This label is used when the last two digits of the one-byte instruction are dw and a mod/reg/rm byte follows
 00001052  0F B6 D0	      C     movzx   edx,al
 00001055  83 E2 02	      C     and     edx,10b
 00001058  64: 89 15	      C     mov     fs:reverse_mod_reg_rm,edx
	   000000C7 R
 0000105F  83 E0 01	      C     and     eax,1b
 00001062  50		      C     push    eax
 00001063  E8 0000750C	      C     call    determine_operand_size
 00001068  E8 000075AF	      C     call    extract_mod_reg_rm
 0000106D  E9 0000730D	      C     jmp     store_instruction
			      C 
 00001072		      C   _add_immed8:
			      C     @instr_bytes    1
 00001072  64: C7 05	     1C     mov     fs:instruction_bytes,1
	   000000EB R
	   00000001
			     1C     IF 1 EQ 1
 0000107D  46		     1C         inc     esi
			     1C     ELSE
			     1C         add     esi,1
			     1C     ENDIF
			      C     @instr_text     add_text, 3
 0000107E  64: C7 05	     1C     mov     fs:instruction_text_offset,offset add_text
	   000000F3 R
	   00000571 R
 00001089  64: C7 05	     1C     mov     fs:instruction_text_length,3
	   000000EF R
	   00000003
 00001094  E9 FFFFFE64	      C     jmp     _al_w_immed8_common
			      C 
 00001099		      C   _add_immed16_32:
			      C     @instr_bytes    1
 00001099  64: C7 05	     1C     mov     fs:instruction_bytes,1
	   000000EB R
	   00000001
			     1C     IF 1 EQ 1
 000010A4  46		     1C         inc     esi
			     1C     ELSE
			     1C         add     esi,1
			     1C     ENDIF
			      C     @instr_text     add_text, 3
 000010A5  64: C7 05	     1C     mov     fs:instruction_text_offset,offset add_text
	   000000F3 R
	   00000571 R
 000010B0  64: C7 05	     1C     mov     fs:instruction_text_length,3
	   000000EF R
	   00000003
 000010BB  E9 FFFFFE8A	      C     jmp     _xax_w_immed16_32_common
			      C 
 000010C0		      C   _add_rm_immed8:
			      C     @instr_bytes    1
 000010C0  64: C7 05	     1C     mov     fs:instruction_bytes,1
	   000000EB R
	   00000001
			     1C     IF 1 EQ 1
 000010CB  46		     1C         inc     esi
			     1C     ELSE
			     1C         add     esi,1
			     1C     ENDIF
			      C     @instr_text     add_text, 3
 000010CC  64: C7 05	     1C     mov     fs:instruction_text_offset,offset add_text
	   000000F3 R
	   00000571 R
 000010D7  64: C7 05	     1C     mov     fs:instruction_text_length,3
	   000000EF R
	   00000003
 000010E2  E9 FFFFFEAA	      C     jmp     _xxx_rm_immed8
			      C 
 000010E7		      C   _add_rm_immed16_32:
			      C     @instr_bytes    1
 000010E7  64: C7 05	     1C     mov     fs:instruction_bytes,1
	   000000EB R
	   00000001
			     1C     IF 1 EQ 1
 000010F2  46		     1C         inc     esi
			     1C     ELSE
			     1C         add     esi,1
			     1C     ENDIF
			      C     @instr_text     add_text, 3
 000010F3  64: C7 05	     1C     mov     fs:instruction_text_offset,offset add_text
	   000000F3 R
	   00000571 R
 000010FE  64: C7 05	     1C     mov     fs:instruction_text_length,3
	   000000EF R
	   00000003
 00001109  E9 FFFFFEC4	      C     jmp     _xxx_rm_immed16_32
			      C 
 0000110E		      C   _add_rm_16_32_with_immed8:
			      C     @instr_bytes    1
 0000110E  64: C7 05	     1C     mov     fs:instruction_bytes,1
	   000000EB R
	   00000001
			     1C     IF 1 EQ 1
 00001119  46		     1C         inc     esi
			     1C     ELSE
			     1C         add     esi,1
			     1C     ENDIF
			      C     @instr_text     add_text, 3
 0000111A  64: C7 05	     1C     mov     fs:instruction_text_offset,offset add_text
	   000000F3 R
	   00000571 R
 00001125  64: C7 05	     1C     mov     fs:instruction_text_length,3
	   000000EF R
	   00000003
 00001130  E9 FFFFFED8	      C     jmp     _xxx_rm_16_32_with_immed8
			      C 
 00001135		      C   _add:
			      C     @instr_bytes    1
 00001135  64: C7 05	     1C     mov     fs:instruction_bytes,1
	   000000EB R
	   00000001
			     1C     IF 1 EQ 1
 00001140  46		     1C         inc     esi
			     1C     ELSE
			     1C         add     esi,1
			     1C     ENDIF
			      C     @instr_text     add_text, 3
 00001141  64: C7 05	     1C     mov     fs:instruction_text_offset,offset add_text
	   000000F3 R
	   00000571 R
 0000114C  64: C7 05	     1C     mov     fs:instruction_text_length,3
	   000000EF R
	   00000003
 00001157  E9 FFFFFEF6	      C     jmp     _dw_mod_reg_rm_common
			      C 
 0000115C		      C   _and:
			      C     @instr_bytes    1
 0000115C  64: C7 05	     1C     mov     fs:instruction_bytes,1
	   000000EB R
	   00000001
			     1C     IF 1 EQ 1
 00001167  46		     1C         inc     esi
			     1C     ELSE
			     1C         add     esi,1
			     1C     ENDIF
			      C     @instr_text     and_text, 3
 00001168  64: C7 05	     1C     mov     fs:instruction_text_offset,offset and_text
	   000000F3 R
	   0000081D R
 00001173  64: C7 05	     1C     mov     fs:instruction_text_length,3
	   000000EF R
	   00000003
 0000117E  E9 FFFFFECF	      C     jmp     _dw_mod_reg_rm_common
			      C 
 00001183		      C   _and_immed8:
			      C     @instr_bytes    1
 00001183  64: C7 05	     1C     mov     fs:instruction_bytes,1
	   000000EB R
	   00000001
			     1C     IF 1 EQ 1
 0000118E  46		     1C         inc     esi
			     1C     ELSE
			     1C         add     esi,1
			     1C     ENDIF
			      C     @instr_text     and_text, 3
 0000118F  64: C7 05	     1C     mov     fs:instruction_text_offset,offset and_text
	   000000F3 R
	   0000081D R
 0000119A  64: C7 05	     1C     mov     fs:instruction_text_length,3
	   000000EF R
	   00000003
 000011A5  E9 FFFFFD53	      C     jmp     _al_w_immed8_common
			      C 
 000011AA		      C   _and_immed16_32:
			      C     @instr_bytes    1
 000011AA  64: C7 05	     1C     mov     fs:instruction_bytes,1
	   000000EB R
	   00000001
			     1C     IF 1 EQ 1
 000011B5  46		     1C         inc     esi
			     1C     ELSE
			     1C         add     esi,1
			     1C     ENDIF
			      C     @instr_text     and_text, 3
 000011B6  64: C7 05	     1C     mov     fs:instruction_text_offset,offset and_text
	   000000F3 R
	   0000081D R
 000011C1  64: C7 05	     1C     mov     fs:instruction_text_length,3
	   000000EF R
	   00000003
 000011CC  E9 FFFFFD79	      C     jmp     _xax_w_immed16_32_common
			      C 
 000011D1		      C   _and_rm_immed8:
			      C     @instr_bytes    1
 000011D1  64: C7 05	     1C     mov     fs:instruction_bytes,1
	   000000EB R
	   00000001
			     1C     IF 1 EQ 1
 000011DC  46		     1C         inc     esi
			     1C     ELSE
			     1C         add     esi,1
			     1C     ENDIF
			      C     @instr_text     and_text, 3
 000011DD  64: C7 05	     1C     mov     fs:instruction_text_offset,offset and_text
	   000000F3 R
	   0000081D R
 000011E8  64: C7 05	     1C     mov     fs:instruction_text_length,3
	   000000EF R
	   00000003
 000011F3  E9 FFFFFD99	      C     jmp     _xxx_rm_immed8
			      C 
 000011F8		      C   _and_rm_immed16_32:
			      C     @instr_bytes    1
 000011F8  64: C7 05	     1C     mov     fs:instruction_bytes,1
	   000000EB R
	   00000001
			     1C     IF 1 EQ 1
 00001203  46		     1C         inc     esi
			     1C     ELSE
			     1C         add     esi,1
			     1C     ENDIF
			      C     @instr_text     and_text, 3
 00001204  64: C7 05	     1C     mov     fs:instruction_text_offset,offset and_text
	   000000F3 R
	   0000081D R
 0000120F  64: C7 05	     1C     mov     fs:instruction_text_length,3
	   000000EF R
	   00000003
 0000121A  E9 FFFFFDB3	      C     jmp     _xxx_rm_immed16_32
			      C 
 0000121F		      C   _and_rm_16_32_with_immed8:
			      C     @instr_bytes    1
 0000121F  64: C7 05	     1C     mov     fs:instruction_bytes,1
	   000000EB R
	   00000001
			     1C     IF 1 EQ 1
 0000122A  46		     1C         inc     esi
			     1C     ELSE
			     1C         add     esi,1
			     1C     ENDIF
			      C     @instr_text     and_text, 3
 0000122B  64: C7 05	     1C     mov     fs:instruction_text_offset,offset and_text
	   000000F3 R
	   0000081D R
 00001236  64: C7 05	     1C     mov     fs:instruction_text_length,3
	   000000EF R
	   00000003
 00001241  E9 FFFFFDC7	      C     jmp     _xxx_rm_16_32_with_immed8
			      C 
 00001246		      C   _arpl:
			      C     @instr_bytes    1
 00001246  64: C7 05	     1C     mov     fs:instruction_bytes,1
	   000000EB R
	   00000001
			     1C     IF 1 EQ 1
 00001251  46		     1C         inc     esi
			     1C     ELSE
			     1C         add     esi,1
			     1C     ENDIF
			      C     @instr_text     arpl_text, 4
 00001252  64: C7 05	     1C     mov     fs:instruction_text_offset,offset arpl_text
	   000000F3 R
	   000005F1 R
 0000125D  64: C7 05	     1C     mov     fs:instruction_text_length,4
	   000000EF R
	   00000004
 00001268  64: C7 05	      C     mov     fs:operand_size,16
	   00000127 R
	   00000010
 00001273  E8 000073A4	      C     call    extract_mod_reg_rm
 00001278  E9 00007102	      C     jmp     store_instruction
			      C 
 0000127D		      C   _bound:
			      C     @instr_bytes    1
 0000127D  64: C7 05	     1C     mov     fs:instruction_bytes,1
	   000000EB R
	   00000001
			     1C     IF 1 EQ 1
 00001288  46		     1C         inc     esi
			     1C     ELSE
			     1C         add     esi,1
			     1C     ENDIF
			      C     @instr_text     bound_text, 5
 00001289  64: C7 05	     1C     mov     fs:instruction_text_offset,offset bound_text
	   000000F3 R
	   000005F5 R
 00001294  64: C7 05	     1C     mov     fs:instruction_text_length,5
	   000000EF R
	   00000005
 0000129F  E8 00007337	      C     call    determine_standard_operand_size
 000012A4  64: C7 05	      C     mov     fs:reverse_mod_reg_rm,1
	   000000C7 R
	   00000001
 000012AF  E8 00007368	      C     call    extract_mod_reg_rm
 000012B4  E9 000070C6	      C     jmp     store_instruction
			      C 
 000012B9		      C   _bsf:
			      C     @instr_bytes    2
 000012B9  64: C7 05	     1C     mov     fs:instruction_bytes,2
	   000000EB R
	   00000002
			     1C     IF 2 EQ 1
			     1C         inc     esi
			     1C     ELSE
 000012C4  83 C6 02	     1C         add     esi,2
			     1C     ENDIF
			      C     @instr_text     bsf_text, 3
 000012C7  64: C7 05	     1C     mov     fs:instruction_text_offset,offset bsf_text
	   000000F3 R
	   0000078C R
 000012D2  64: C7 05	     1C     mov     fs:instruction_text_length,3
	   000000EF R
	   00000003
 000012DD  64: C7 05	      C     mov     fs:reverse_mod_reg_rm,1
	   000000C7 R
	   00000001
 000012E8  E8 0000732F	      C     call    extract_mod_reg_rm
 000012ED  E9 0000708D	      C     jmp     store_instruction
			      C 
 000012F2		      C   _bsr:
			      C     @instr_bytes    2
 000012F2  64: C7 05	     1C     mov     fs:instruction_bytes,2
	   000000EB R
	   00000002
			     1C     IF 2 EQ 1
			     1C         inc     esi
			     1C     ELSE
 000012FD  83 C6 02	     1C         add     esi,2
			     1C     ENDIF
			      C     @instr_text     bsr_text, 3
 00001300  64: C7 05	     1C     mov     fs:instruction_text_offset,offset bsr_text
	   000000F3 R
	   0000078F R
 0000130B  64: C7 05	     1C     mov     fs:instruction_text_length,3
	   000000EF R
	   00000003
 00001316  64: C7 05	      C     mov     fs:reverse_mod_reg_rm,1
	   000000C7 R
	   00000001
 00001321  E8 000072F6	      C     call    extract_mod_reg_rm
 00001326  E9 00007054	      C     jmp     store_instruction
			      C 
 0000132B		      C   _bswap_eax:
 0000132B		      C   _bswap_ebp:
 0000132B		      C   _bswap_ebx:
 0000132B		      C   _bswap_ecx:
 0000132B		      C   _bswap_edi:
 0000132B		      C   _bswap_edx:
 0000132B		      C   _bswap_esi:
 0000132B		      C   _bswap_esp:
 0000132B  8A 1E	      C     mov     bl,byte ptr ds:[esi]
			      C     @instr_bytes    2
 0000132D  64: C7 05	     1C     mov     fs:instruction_bytes,2
	   000000EB R
	   00000002
			     1C     IF 2 EQ 1
			     1C         inc     esi
			     1C     ELSE
 00001338  83 C6 02	     1C         add     esi,2
			     1C     ENDIF
			      C     @instr_text     bswap_text, 5
 0000133B  64: C7 05	     1C     mov     fs:instruction_text_offset,offset bswap_text
	   000000F3 R
	   000005FA R
 00001346  64: C7 05	     1C     mov     fs:instruction_text_length,5
	   000000EF R
	   00000005
 00001351  E8 000071F2	      C     call    start_offsets
 00001356  24 07	      C     and     al,111b
 00001358  8A D8	      C     mov     bl,al
 0000135A  64: C7 05	      C     mov     fs:operand_size,32
	   00000127 R
	   00000020
 00001365  E8 000075D8	      C     call    store_gp_register
 0000136A  E8 000071EF	      C     call    end_offsets
 0000136F  E9 0000700B	      C     jmp     store_instruction
			      C 
 00001374		      C   _bt:
			      C     @instr_bytes    2
 00001374  64: C7 05	     1C     mov     fs:instruction_bytes,2
	   000000EB R
	   00000002
			     1C     IF 2 EQ 1
			     1C         inc     esi
			     1C     ELSE
 0000137F  83 C6 02	     1C         add     esi,2
			     1C     ENDIF
			      C     @instr_text     bt_text, 2
 00001382  64: C7 05	     1C     mov     fs:instruction_text_offset,offset bt_text
	   000000F3 R
	   00000792 R
 0000138D  64: C7 05	     1C     mov     fs:instruction_text_length,2
	   000000EF R
	   00000002
 00001398  E8 0000727F	      C     call    extract_mod_reg_rm
 0000139D  E9 00006FDD	      C     jmp     store_instruction
			      C 
 000013A2		      C   _bt_immed8:
			      C     @instr_bytes    2
 000013A2  64: C7 05	     1C     mov     fs:instruction_bytes,2
	   000000EB R
	   00000002
			     1C     IF 2 EQ 1
			     1C         inc     esi
			     1C     ELSE
 000013AD  83 C6 02	     1C         add     esi,2
			     1C     ENDIF
			      C     @instr_text     bt_text, 2
 000013B0  64: C7 05	     1C     mov     fs:instruction_text_offset,offset bt_text
	   000000F3 R
	   00000792 R
 000013BB  64: C7 05	     1C     mov     fs:instruction_text_length,2
	   000000EF R
	   00000002
 000013C6  E9 FFFFFC42	      C     jmp     _xxx_rm_16_32_with_immed8
			      C 
 000013CB		      C   _btc:
			      C     @instr_bytes    2
 000013CB  64: C7 05	     1C     mov     fs:instruction_bytes,2
	   000000EB R
	   00000002
			     1C     IF 2 EQ 1
			     1C         inc     esi
			     1C     ELSE
 000013D6  83 C6 02	     1C         add     esi,2
			     1C     ENDIF
			      C     @instr_text     btc_text, 3
 000013D9  64: C7 05	     1C     mov     fs:instruction_text_offset,offset btc_text
	   000000F3 R
	   00000792 R
 000013E4  64: C7 05	     1C     mov     fs:instruction_text_length,3
	   000000EF R
	   00000003
 000013EF  E8 00007228	      C     call    extract_mod_reg_rm
 000013F4  E9 00006F86	      C     jmp     store_instruction
			      C 
 000013F9		      C   _btc_immed8:
			      C     @instr_bytes    2
 000013F9  64: C7 05	     1C     mov     fs:instruction_bytes,2
	   000000EB R
	   00000002
			     1C     IF 2 EQ 1
			     1C         inc     esi
			     1C     ELSE
 00001404  83 C6 02	     1C         add     esi,2
			     1C     ENDIF
			      C     @instr_text     btc_text, 3
 00001407  64: C7 05	     1C     mov     fs:instruction_text_offset,offset btc_text
	   000000F3 R
	   00000792 R
 00001412  64: C7 05	     1C     mov     fs:instruction_text_length,3
	   000000EF R
	   00000003
 0000141D  E9 FFFFFBEB	      C     jmp     _xxx_rm_16_32_with_immed8
			      C 
 00001422		      C   _btr:
			      C     @instr_bytes    2
 00001422  64: C7 05	     1C     mov     fs:instruction_bytes,2
	   000000EB R
	   00000002
			     1C     IF 2 EQ 1
			     1C         inc     esi
			     1C     ELSE
 0000142D  83 C6 02	     1C         add     esi,2
			     1C     ENDIF
			      C     @instr_text     btr_text, 3
 00001430  64: C7 05	     1C     mov     fs:instruction_text_offset,offset btr_text
	   000000F3 R
	   00000798 R
 0000143B  64: C7 05	     1C     mov     fs:instruction_text_length,3
	   000000EF R
	   00000003
 00001446  E8 000071D1	      C     call    extract_mod_reg_rm
 0000144B  E9 00006F2F	      C     jmp     store_instruction
			      C 
 00001450		      C   _btr_immed8:
			      C     @instr_bytes    2
 00001450  64: C7 05	     1C     mov     fs:instruction_bytes,2
	   000000EB R
	   00000002
			     1C     IF 2 EQ 1
			     1C         inc     esi
			     1C     ELSE
 0000145B  83 C6 02	     1C         add     esi,2
			     1C     ENDIF
			      C     @instr_text     btr_text, 3
 0000145E  64: C7 05	     1C     mov     fs:instruction_text_offset,offset btr_text
	   000000F3 R
	   00000798 R
 00001469  64: C7 05	     1C     mov     fs:instruction_text_length,3
	   000000EF R
	   00000003
 00001474  E9 FFFFFB94	      C     jmp     _xxx_rm_16_32_with_immed8
			      C 
 00001479		      C   _bts:
			      C     @instr_bytes    1
 00001479  64: C7 05	     1C     mov     fs:instruction_bytes,1
	   000000EB R
	   00000001
			     1C     IF 1 EQ 1
 00001484  46		     1C         inc     esi
			     1C     ELSE
			     1C         add     esi,1
			     1C     ENDIF
			      C     @instr_text     bts_text, 3
 00001485  64: C7 05	     1C     mov     fs:instruction_text_offset,offset bts_text
	   000000F3 R
	   00000795 R
 00001490  64: C7 05	     1C     mov     fs:instruction_text_length,3
	   000000EF R
	   00000003
 0000149B  E8 0000717C	      C     call    extract_mod_reg_rm
 000014A0  E9 00006EDA	      C     jmp     store_instruction
			      C 
 000014A5		      C   _bts_immed8:
			      C     @instr_bytes    2
 000014A5  64: C7 05	     1C     mov     fs:instruction_bytes,2
	   000000EB R
	   00000002
			     1C     IF 2 EQ 1
			     1C         inc     esi
			     1C     ELSE
 000014B0  83 C6 02	     1C         add     esi,2
			     1C     ENDIF
			      C     @instr_text     bts_text, 3
 000014B3  64: C7 05	     1C     mov     fs:instruction_text_offset,offset bts_text
	   000000F3 R
	   00000795 R
 000014BE  64: C7 05	     1C     mov     fs:instruction_text_length,3
	   000000EF R
	   00000003
 000014C9  E9 FFFFFB3F	      C     jmp     _xxx_rm_16_32_with_immed8
			      C 
 000014CE		      C   _call_near_relative:
			      C     @instr_bytes    1
 000014CE  64: C7 05	     1C     mov     fs:instruction_bytes,1
	   000000EB R
	   00000001
			     1C     IF 1 EQ 1
 000014D9  46		     1C         inc     esi
			     1C     ELSE
			     1C         add     esi,1
			     1C     ENDIF
			      C     @instr_text     call_text, 4
 000014DA  64: C7 05	     1C     mov     fs:instruction_text_offset,offset call_text
	   000000F3 R
	   000005FF R
 000014E5  64: C7 05	     1C     mov     fs:instruction_text_length,4
	   000000EF R
	   00000004
 000014F0  E8 00007053	      C     call    start_offsets
 000014F5  E8 000070E1	      C     call    determine_standard_operand_size
 000014FA  E8 0000833E	      C     call    store_signed_value
 000014FF  E8 0000705A	      C     call    end_offsets
 00001504  E9 00006E76	      C     jmp     store_instruction
			      C 
 00001509		      C   _call_rm:
			      C     @instr_bytes    1
 00001509  64: C7 05	     1C     mov     fs:instruction_bytes,1
	   000000EB R
	   00000001
			     1C     IF 1 EQ 1
 00001514  46		     1C         inc     esi
			     1C     ELSE
			     1C         add     esi,1
			     1C     ENDIF
			      C     @instr_text     call_text, 4
 00001515  64: C7 05	     1C     mov     fs:instruction_text_offset,offset call_text
	   000000F3 R
	   000005FF R
 00001520  64: C7 05	     1C     mov     fs:instruction_text_length,4
	   000000EF R
	   00000004
 0000152B  E8 0000736B	      C     call    extract_mod_rm
 00001530  E9 00006E4A	      C     jmp     store_instruction
			      C 
 00001535		      C   _call_far_rm:
			      C   ; This is a far call with the operand specified in a mod/rm byte
			      C     @instr_bytes    1
 00001535  64: C7 05	     1C     mov     fs:instruction_bytes,1
	   000000EB R
	   00000001
			     1C     IF 1 EQ 1
 00001540  46		     1C         inc     esi
			     1C     ELSE
			     1C         add     esi,1
			     1C     ENDIF
			      C     @instr_text     call_text, 4
 00001541  64: C7 05	     1C     mov     fs:instruction_text_offset,offset call_text
	   000000F3 R
	   000005FF R
 0000154C  64: C7 05	     1C     mov     fs:instruction_text_length,4
	   000000EF R
	   00000004
 00001557  E8 0000733F	      C     call    extract_mod_rm
 0000155C  E9 00006E1E	      C     jmp     store_instruction
			      C 
 00001561		      C   _call_far_operand:
			      C   ; This is a far call with the operand specified in the instruction
			      C     @instr_bytes    1
 00001561  64: C7 05	     1C     mov     fs:instruction_bytes,1
	   000000EB R
	   00000001
			     1C     IF 1 EQ 1
 0000156C  46		     1C         inc     esi
			     1C     ELSE
			     1C         add     esi,1
			     1C     ENDIF
			      C     @instr_text     call_text, 4
 0000156D  64: C7 05	     1C     mov     fs:instruction_text_offset,offset call_text
	   000000F3 R
	   000005FF R
 00001578  64: C7 05	     1C     mov     fs:instruction_text_length,4
	   000000EF R
	   00000004
 00001583  E8 00006FC0	      C     call    start_offsets
 00001588  E8 00007FF3	      C     call    store_16_bit_value
 0000158D  E8 00008333	      C     call    store_colon
 00001592  E8 0000804D	      C     call    store_value
 00001597  E8 00006FC2	      C     call    end_offsets
 0000159C  E9 00006DDE	      C     jmp     store_instruction
			      C 
 000015A1		      C   _cbw:
			      C     @instr_bytes    1
 000015A1  64: C7 05	     1C     mov     fs:instruction_bytes,1
	   000000EB R
	   00000001
			     1C     IF 1 EQ 1
 000015AC  46		     1C         inc     esi
			     1C     ELSE
			     1C         add     esi,1
			     1C     ENDIF
			      C     .IF ((fs:cpu_mode == 0 && fs:op_size_override != 0) || (fs:cpu_mode != 0 && fs:op_size_override == 0))
 000015AD  64: 83 3D
	   0000009B R 00   *	    cmp    fs : cpu_mode, 000h
 000015B5  75 0A	   *	    jne    @C000F
 000015B7  64: 83 3D
	   000000BF R 00   *	    cmp    fs : op_size_override, 000h
 000015BF  75 14	   *	    jne    @C000E
 000015C1		   *@C000F:
 000015C1  64: 83 3D
	   0000009B R 00   *	    cmp    fs : cpu_mode, 000h
 000015C9  74 22	   *	    je     @C000D
 000015CB  64: 83 3D
	   000000BF R 00   *	    cmp    fs : op_size_override, 000h
 000015D3  75 18	   *	    jne    @C000D
 000015D5		   *@C000E:
			      C         @instr_text     cbw_text, 3
 000015D5  64: C7 05	     1C     mov     fs:instruction_text_offset,offset cbw_text
	   000000F3 R
	   00000577 R
 000015E0  64: C7 05	     1C     mov     fs:instruction_text_length,3
	   000000EF R
	   00000003
			      C     .ELSE
 000015EB  EB 16	   *	    jmp    @C0012
 000015ED		   *@C000D:
			      C         @instr_text     cwde_text, 4
 000015ED  64: C7 05	     1C     mov     fs:instruction_text_offset,offset cwde_text
	   000000F3 R
	   0000057A R
 000015F8  64: C7 05	     1C     mov     fs:instruction_text_length,4
	   000000EF R
	   00000004
			      C     .ENDIF
 00001603		   *@C0012:
 00001603  E9 00006D77	      C     jmp     store_instruction
			      C 
 00001608		      C   _clc:
			      C     @instr_bytes    1
 00001608  64: C7 05	     1C     mov     fs:instruction_bytes,1
	   000000EB R
	   00000001
			     1C     IF 1 EQ 1
 00001613  46		     1C         inc     esi
			     1C     ELSE
			     1C         add     esi,1
			     1C     ENDIF
			      C     @instr_text     clc_text, 3
 00001614  64: C7 05	     1C     mov     fs:instruction_text_offset,offset clc_text
	   000000F3 R
	   00000581 R
 0000161F  64: C7 05	     1C     mov     fs:instruction_text_length,3
	   000000EF R
	   00000003
 0000162A  E9 00006D50	      C     jmp     store_instruction
			      C 
 0000162F		      C   _cld:
			      C     @instr_bytes    1
 0000162F  64: C7 05	     1C     mov     fs:instruction_bytes,1
	   000000EB R
	   00000001
			     1C     IF 1 EQ 1
 0000163A  46		     1C         inc     esi
			     1C     ELSE
			     1C         add     esi,1
			     1C     ENDIF
			      C     @instr_text     cld_text, 3
 0000163B  64: C7 05	     1C     mov     fs:instruction_text_offset,offset cld_text
	   000000F3 R
	   00000584 R
 00001646  64: C7 05	     1C     mov     fs:instruction_text_length,3
	   000000EF R
	   00000003
 00001651  E9 00006D29	      C     jmp     store_instruction
			      C 
 00001656		      C   _cli:
			      C     @instr_bytes    1
 00001656  64: C7 05	     1C     mov     fs:instruction_bytes,1
	   000000EB R
	   00000001
			     1C     IF 1 EQ 1
 00001661  46		     1C         inc     esi
			     1C     ELSE
			     1C         add     esi,1
			     1C     ENDIF
			      C     @instr_text     cli_text, 3
 00001662  64: C7 05	     1C     mov     fs:instruction_text_offset,offset cli_text
	   000000F3 R
	   00000587 R
 0000166D  64: C7 05	     1C     mov     fs:instruction_text_length,3
	   000000EF R
	   00000003
 00001678  E9 00006D02	      C     jmp     store_instruction
			      C 
 0000167D		      C   _clts:
			      C     @instr_bytes    2
 0000167D  64: C7 05	     1C     mov     fs:instruction_bytes,2
	   000000EB R
	   00000002
			     1C     IF 2 EQ 1
			     1C         inc     esi
			     1C     ELSE
 00001688  83 C6 02	     1C         add     esi,2
			     1C     ENDIF
			      C     @instr_text     clts_text, 4
 0000168B  64: C7 05	     1C     mov     fs:instruction_text_offset,offset clts_text
	   000000F3 R
	   000005E7 R
 00001696  64: C7 05	     1C     mov     fs:instruction_text_length,4
	   000000EF R
	   00000004
 000016A1  E9 00006CD9	      C     jmp     store_instruction
			      C 
 000016A6		      C   _cmc:
			      C     @instr_bytes    1
 000016A6  64: C7 05	     1C     mov     fs:instruction_bytes,1
	   000000EB R
	   00000001
			     1C     IF 1 EQ 1
 000016B1  46		     1C         inc     esi
			     1C     ELSE
			     1C         add     esi,1
			     1C     ENDIF
			      C     @instr_text     cmc_text, 3
 000016B2  64: C7 05	     1C     mov     fs:instruction_text_offset,offset cmc_text
	   000000F3 R
	   0000058A R
 000016BD  64: C7 05	     1C     mov     fs:instruction_text_length,3
	   000000EF R
	   00000003
 000016C8  E9 00006CB2	      C     jmp     store_instruction
			      C 
 000016CD		      C   _cmovo:
			      C     @instr_bytes    2
 000016CD  64: C7 05	     1C     mov     fs:instruction_bytes,2
	   000000EB R
	   00000002
			     1C     IF 2 EQ 1
			     1C         inc     esi
			     1C     ELSE
 000016D8  83 C6 02	     1C         add     esi,2
			     1C     ENDIF
			      C     @instr_text     cmovo_text, 5
 000016DB  64: C7 05	     1C     mov     fs:instruction_text_offset,offset cmovo_text
	   000000F3 R
	   00000647 R
 000016E6  64: C7 05	     1C     mov     fs:instruction_text_length,5
	   000000EF R
	   00000005
 000016F1		      C   cmovxx_common:
 000016F1  64: C7 05	      C     mov     fs:reverse_mod_reg_rm,1
	   000000C7 R
	   00000001
 000016FC  E8 00006EDA	      C     call    determine_standard_operand_size
 00001701  E8 00006F16	      C     call    extract_mod_reg_rm
 00001706  E9 00006C74	      C     jmp     store_instruction
			      C 
 0000170B		      C   _cmovno:
			      C     @instr_bytes    2
 0000170B  64: C7 05	     1C     mov     fs:instruction_bytes,2
	   000000EB R
	   00000002
			     1C     IF 2 EQ 1
			     1C         inc     esi
			     1C     ELSE
 00001716  83 C6 02	     1C         add     esi,2
			     1C     ENDIF
			      C     @instr_text     cmovno_text, 6
 00001719  64: C7 05	     1C     mov     fs:instruction_text_offset,offset cmovno_text
	   000000F3 R
	   0000064C R
 00001724  64: C7 05	     1C     mov     fs:instruction_text_length,6
	   000000EF R
	   00000006
 0000172F  EB C0	      C     jmp     cmovxx_common
			      C 
 00001731		      C   _cmovc:
			      C     @instr_bytes    2
 00001731  64: C7 05	     1C     mov     fs:instruction_bytes,2
	   000000EB R
	   00000002
			     1C     IF 2 EQ 1
			     1C         inc     esi
			     1C     ELSE
 0000173C  83 C6 02	     1C         add     esi,2
			     1C     ENDIF
			      C     @instr_text     cmovc_text, 5
 0000173F  64: C7 05	     1C     mov     fs:instruction_text_offset,offset cmovc_text
	   000000F3 R
	   00000652 R
 0000174A  64: C7 05	     1C     mov     fs:instruction_text_length,5
	   000000EF R
	   00000005
 00001755  EB 9A	      C     jmp     cmovxx_common
			      C 
 00001757		      C   _cmovnc:
			      C     @instr_bytes    2
 00001757  64: C7 05	     1C     mov     fs:instruction_bytes,2
	   000000EB R
	   00000002
			     1C     IF 2 EQ 1
			     1C         inc     esi
			     1C     ELSE
 00001762  83 C6 02	     1C         add     esi,2
			     1C     ENDIF
			      C     @instr_text     cmovnc_text, 6
 00001765  64: C7 05	     1C     mov     fs:instruction_text_offset,offset cmovnc_text
	   000000F3 R
	   00000657 R
 00001770  64: C7 05	     1C     mov     fs:instruction_text_length,6
	   000000EF R
	   00000006
 0000177B  E9 FFFFFF71	      C     jmp     cmovxx_common
			      C 
 00001780		      C   _cmovz:
			      C     @instr_bytes    2
 00001780  64: C7 05	     1C     mov     fs:instruction_bytes,2
	   000000EB R
	   00000002
			     1C     IF 2 EQ 1
			     1C         inc     esi
			     1C     ELSE
 0000178B  83 C6 02	     1C         add     esi,2
			     1C     ENDIF
			      C     @instr_text     cmovz_text, 5
 0000178E  64: C7 05	     1C     mov     fs:instruction_text_offset,offset cmovz_text
	   000000F3 R
	   0000065D R
 00001799  64: C7 05	     1C     mov     fs:instruction_text_length,5
	   000000EF R
	   00000005
 000017A4  E9 FFFFFF48	      C     jmp     cmovxx_common
			      C 
 000017A9		      C   _cmovnz:
			      C     @instr_bytes    2
 000017A9  64: C7 05	     1C     mov     fs:instruction_bytes,2
	   000000EB R
	   00000002
			     1C     IF 2 EQ 1
			     1C         inc     esi
			     1C     ELSE
 000017B4  83 C6 02	     1C         add     esi,2
			     1C     ENDIF
			      C     @instr_text     cmovnz_text, 6
 000017B7  64: C7 05	     1C     mov     fs:instruction_text_offset,offset cmovnz_text
	   000000F3 R
	   00000662 R
 000017C2  64: C7 05	     1C     mov     fs:instruction_text_length,6
	   000000EF R
	   00000006
 000017CD  E9 FFFFFF1F	      C     jmp     cmovxx_common
			      C 
 000017D2		      C   _cmovna:
			      C     @instr_bytes    2
 000017D2  64: C7 05	     1C     mov     fs:instruction_bytes,2
	   000000EB R
	   00000002
			     1C     IF 2 EQ 1
			     1C         inc     esi
			     1C     ELSE
 000017DD  83 C6 02	     1C         add     esi,2
			     1C     ENDIF
			      C     @instr_text     cmovna_text, 6
 000017E0  64: C7 05	     1C     mov     fs:instruction_text_offset,offset cmovna_text
	   000000F3 R
	   00000668 R
 000017EB  64: C7 05	     1C     mov     fs:instruction_text_length,6
	   000000EF R
	   00000006
 000017F6  E9 FFFFFEF6	      C     jmp     cmovxx_common
			      C 
 000017FB		      C   _cmova:
			      C     @instr_bytes    2
 000017FB  64: C7 05	     1C     mov     fs:instruction_bytes,2
	   000000EB R
	   00000002
			     1C     IF 2 EQ 1
			     1C         inc     esi
			     1C     ELSE
 00001806  83 C6 02	     1C         add     esi,2
			     1C     ENDIF
			      C     @instr_text     cmova_text, 5
 00001809  64: C7 05	     1C     mov     fs:instruction_text_offset,offset cmova_text
	   000000F3 R
	   0000066E R
 00001814  64: C7 05	     1C     mov     fs:instruction_text_length,5
	   000000EF R
	   00000005
 0000181F  E9 FFFFFECD	      C     jmp     cmovxx_common
			      C 
 00001824		      C   _cmovs:
			      C     @instr_bytes    2
 00001824  64: C7 05	     1C     mov     fs:instruction_bytes,2
	   000000EB R
	   00000002
			     1C     IF 2 EQ 1
			     1C         inc     esi
			     1C     ELSE
 0000182F  83 C6 02	     1C         add     esi,2
			     1C     ENDIF
			      C     @instr_text     cmovs_text, 5
 00001832  64: C7 05	     1C     mov     fs:instruction_text_offset,offset cmovs_text
	   000000F3 R
	   00000673 R
 0000183D  64: C7 05	     1C     mov     fs:instruction_text_length,5
	   000000EF R
	   00000005
 00001848  E9 FFFFFEA4	      C     jmp     cmovxx_common
			      C 
 0000184D		      C   _cmovns:
			      C     @instr_bytes    2
 0000184D  64: C7 05	     1C     mov     fs:instruction_bytes,2
	   000000EB R
	   00000002
			     1C     IF 2 EQ 1
			     1C         inc     esi
			     1C     ELSE
 00001858  83 C6 02	     1C         add     esi,2
			     1C     ENDIF
			      C     @instr_text     cmovns_text, 6
 0000185B  64: C7 05	     1C     mov     fs:instruction_text_offset,offset cmovns_text
	   000000F3 R
	   00000678 R
 00001866  64: C7 05	     1C     mov     fs:instruction_text_length,6
	   000000EF R
	   00000006
 00001871  E9 FFFFFE7B	      C     jmp     cmovxx_common
			      C 
 00001876		      C   _cmovpe:
			      C     @instr_bytes    2
 00001876  64: C7 05	     1C     mov     fs:instruction_bytes,2
	   000000EB R
	   00000002
			     1C     IF 2 EQ 1
			     1C         inc     esi
			     1C     ELSE
 00001881  83 C6 02	     1C         add     esi,2
			     1C     ENDIF
			      C     @instr_text     cmovpe_text, 6
 00001884  64: C7 05	     1C     mov     fs:instruction_text_offset,offset cmovpe_text
	   000000F3 R
	   0000067E R
 0000188F  64: C7 05	     1C     mov     fs:instruction_text_length,6
	   000000EF R
	   00000006
 0000189A  E9 FFFFFE52	      C     jmp     cmovxx_common
			      C 
 0000189F		      C   _cmovpo:
			      C     @instr_bytes    2
 0000189F  64: C7 05	     1C     mov     fs:instruction_bytes,2
	   000000EB R
	   00000002
			     1C     IF 2 EQ 1
			     1C         inc     esi
			     1C     ELSE
 000018AA  83 C6 02	     1C         add     esi,2
			     1C     ENDIF
			      C     @instr_text     cmovpo_text, 6
 000018AD  64: C7 05	     1C     mov     fs:instruction_text_offset,offset cmovpo_text
	   000000F3 R
	   00000684 R
 000018B8  64: C7 05	     1C     mov     fs:instruction_text_length,6
	   000000EF R
	   00000006
 000018C3  E9 FFFFFE29	      C     jmp     cmovxx_common
			      C 
 000018C8		      C   _cmovl:
			      C     @instr_bytes    2
 000018C8  64: C7 05	     1C     mov     fs:instruction_bytes,2
	   000000EB R
	   00000002
			     1C     IF 2 EQ 1
			     1C         inc     esi
			     1C     ELSE
 000018D3  83 C6 02	     1C         add     esi,2
			     1C     ENDIF
			      C     @instr_text     cmovl_text, 5
 000018D6  64: C7 05	     1C     mov     fs:instruction_text_offset,offset cmovl_text
	   000000F3 R
	   0000068A R
 000018E1  64: C7 05	     1C     mov     fs:instruction_text_length,5
	   000000EF R
	   00000005
 000018EC  E9 FFFFFE00	      C     jmp     cmovxx_common
			      C 
 000018F1		      C   _cmovnl:
			      C     @instr_bytes    2
 000018F1  64: C7 05	     1C     mov     fs:instruction_bytes,2
	   000000EB R
	   00000002
			     1C     IF 2 EQ 1
			     1C         inc     esi
			     1C     ELSE
 000018FC  83 C6 02	     1C         add     esi,2
			     1C     ENDIF
			      C     @instr_text     cmovnl_text, 6
 000018FF  64: C7 05	     1C     mov     fs:instruction_text_offset,offset cmovnl_text
	   000000F3 R
	   0000068F R
 0000190A  64: C7 05	     1C     mov     fs:instruction_text_length,6
	   000000EF R
	   00000006
 00001915  E9 FFFFFDD7	      C     jmp     cmovxx_common
			      C 
 0000191A		      C   _cmovng:
			      C     @instr_bytes    2
 0000191A  64: C7 05	     1C     mov     fs:instruction_bytes,2
	   000000EB R
	   00000002
			     1C     IF 2 EQ 1
			     1C         inc     esi
			     1C     ELSE
 00001925  83 C6 02	     1C         add     esi,2
			     1C     ENDIF
			      C     @instr_text     cmovng_text, 6
 00001928  64: C7 05	     1C     mov     fs:instruction_text_offset,offset cmovng_text
	   000000F3 R
	   00000695 R
 00001933  64: C7 05	     1C     mov     fs:instruction_text_length,6
	   000000EF R
	   00000006
 0000193E  E9 FFFFFDAE	      C     jmp     cmovxx_common
			      C 
 00001943		      C   _cmovg:
			      C     @instr_bytes    2
 00001943  64: C7 05	     1C     mov     fs:instruction_bytes,2
	   000000EB R
	   00000002
			     1C     IF 2 EQ 1
			     1C         inc     esi
			     1C     ELSE
 0000194E  83 C6 02	     1C         add     esi,2
			     1C     ENDIF
			      C     @instr_text     cmovg_text, 5
 00001951  64: C7 05	     1C     mov     fs:instruction_text_offset,offset cmovg_text
	   000000F3 R
	   0000069B R
 0000195C  64: C7 05	     1C     mov     fs:instruction_text_length,5
	   000000EF R
	   00000005
 00001967  E9 FFFFFD85	      C     jmp     cmovxx_common
			      C 
 0000196C		      C   _cmp_immed8:
			      C     @instr_bytes    1
 0000196C  64: C7 05	     1C     mov     fs:instruction_bytes,1
	   000000EB R
	   00000001
			     1C     IF 1 EQ 1
 00001977  46		     1C         inc     esi
			     1C     ELSE
			     1C         add     esi,1
			     1C     ENDIF
			      C     @instr_text     cmp_text, 3
 00001978  64: C7 05	     1C     mov     fs:instruction_text_offset,offset cmp_text
	   000000F3 R
	   00000823 R
 00001983  64: C7 05	     1C     mov     fs:instruction_text_length,3
	   000000EF R
	   00000003
 0000198E  E9 FFFFF56A	      C     jmp     _al_w_immed8_common
			      C 
 00001993		      C   _cmp_immed16_32:
			      C     @instr_bytes    1
 00001993  64: C7 05	     1C     mov     fs:instruction_bytes,1
	   000000EB R
	   00000001
			     1C     IF 1 EQ 1
 0000199E  46		     1C         inc     esi
			     1C     ELSE
			     1C         add     esi,1
			     1C     ENDIF
			      C     @instr_text     cmp_text, 3
 0000199F  64: C7 05	     1C     mov     fs:instruction_text_offset,offset cmp_text
	   000000F3 R
	   00000823 R
 000019AA  64: C7 05	     1C     mov     fs:instruction_text_length,3
	   000000EF R
	   00000003
 000019B5  E9 FFFFF590	      C     jmp     _xax_w_immed16_32_common
			      C 
			      C ;;;;;;;;;;;;;;
 000019BA		      C   _cmp_rm8_r8:
			      C     @instr_bytes    1
 000019BA  64: C7 05	     1C     mov     fs:instruction_bytes,1
	   000000EB R
	   00000001
			     1C     IF 1 EQ 1
 000019C5  46		     1C         inc     esi
			     1C     ELSE
			     1C         add     esi,1
			     1C     ENDIF
			      C     @instr_text     cmp_text, 3
 000019C6  64: C7 05	     1C     mov     fs:instruction_text_offset,offset cmp_text
	   000000F3 R
	   00000823 R
 000019D1  64: C7 05	     1C     mov     fs:instruction_text_length,3
	   000000EF R
	   00000003
 000019DC  64: C7 05	      C     mov     fs:operand_size,8
	   00000127 R
	   00000008
 000019E7  E8 00006C30	      C     call    extract_mod_reg_rm
 000019EC  E9 0000698E	      C     jmp     store_instruction
			      C 
 000019F1		      C   _cmp_rm16_r16:
			      C     @instr_bytes    1
 000019F1  64: C7 05	     1C     mov     fs:instruction_bytes,1
	   000000EB R
	   00000001
			     1C     IF 1 EQ 1
 000019FC  46		     1C         inc     esi
			     1C     ELSE
			     1C         add     esi,1
			     1C     ENDIF
			      C     @instr_text     cmp_text, 3
 000019FD  64: C7 05	     1C     mov     fs:instruction_text_offset,offset cmp_text
	   000000F3 R
	   00000823 R
 00001A08  64: C7 05	     1C     mov     fs:instruction_text_length,3
	   000000EF R
	   00000003
 00001A13  E8 00006BC3	      C     call    determine_standard_operand_size
 00001A18  E8 00006BFF	      C     call    extract_mod_reg_rm
 00001A1D  E9 0000695D	      C     jmp     store_instruction
			      C 
 00001A22		      C   _cmp_r8_rm8:
			      C     @instr_bytes    1
 00001A22  64: C7 05	     1C     mov     fs:instruction_bytes,1
	   000000EB R
	   00000001
			     1C     IF 1 EQ 1
 00001A2D  46		     1C         inc     esi
			     1C     ELSE
			     1C         add     esi,1
			     1C     ENDIF
			      C     @instr_text     cmp_text, 3
 00001A2E  64: C7 05	     1C     mov     fs:instruction_text_offset,offset cmp_text
	   000000F3 R
	   00000823 R
 00001A39  64: C7 05	     1C     mov     fs:instruction_text_length,3
	   000000EF R
	   00000003
 00001A44  64: C7 05	      C     mov     fs:operand_size,8
	   00000127 R
	   00000008
 00001A4F  64: C7 05	      C     mov     fs:reverse_mod_reg_rm,1
	   000000C7 R
	   00000001
 00001A5A  E8 00006BBD	      C     call    extract_mod_reg_rm
 00001A5F  E9 0000691B	      C     jmp     store_instruction
			      C 
 00001A64		      C   _cmp_r16_rm16:
			      C     @instr_bytes    1
 00001A64  64: C7 05	     1C     mov     fs:instruction_bytes,1
	   000000EB R
	   00000001
			     1C     IF 1 EQ 1
 00001A6F  46		     1C         inc     esi
			     1C     ELSE
			     1C         add     esi,1
			     1C     ENDIF
			      C     @instr_text     cmp_text, 3
 00001A70  64: C7 05	     1C     mov     fs:instruction_text_offset,offset cmp_text
	   000000F3 R
	   00000823 R
 00001A7B  64: C7 05	     1C     mov     fs:instruction_text_length,3
	   000000EF R
	   00000003
 00001A86  E8 00006B50	      C     call    determine_standard_operand_size
 00001A8B  64: C7 05	      C     mov     fs:reverse_mod_reg_rm,1
	   000000C7 R
	   00000001
 00001A96  E8 00006B81	      C     call    extract_mod_reg_rm
 00001A9B  E9 000068DF	      C     jmp     store_instruction
			      C ;;;;;;;;;;;;;;
			      C 
 00001AA0		      C   _cmp_rm_immed8:
			      C     @instr_bytes    1
 00001AA0  64: C7 05	     1C     mov     fs:instruction_bytes,1
	   000000EB R
	   00000001
			     1C     IF 1 EQ 1
 00001AAB  46		     1C         inc     esi
			     1C     ELSE
			     1C         add     esi,1
			     1C     ENDIF
			      C     @instr_text     cmp_text, 3
 00001AAC  64: C7 05	     1C     mov     fs:instruction_text_offset,offset cmp_text
	   000000F3 R
	   00000823 R
 00001AB7  64: C7 05	     1C     mov     fs:instruction_text_length,3
	   000000EF R
	   00000003
 00001AC2  E9 FFFFF4CA	      C     jmp     _xxx_rm_immed8
			      C 
 00001AC7		      C   _cmp_rm_immed16_32:
			      C     @instr_bytes    1
 00001AC7  64: C7 05	     1C     mov     fs:instruction_bytes,1
	   000000EB R
	   00000001
			     1C     IF 1 EQ 1
 00001AD2  46		     1C         inc     esi
			     1C     ELSE
			     1C         add     esi,1
			     1C     ENDIF
			      C     @instr_text     cmp_text, 3
 00001AD3  64: C7 05	     1C     mov     fs:instruction_text_offset,offset cmp_text
	   000000F3 R
	   00000823 R
 00001ADE  64: C7 05	     1C     mov     fs:instruction_text_length,3
	   000000EF R
	   00000003
 00001AE9  E9 FFFFF4E4	      C     jmp     _xxx_rm_immed16_32
			      C 
 00001AEE		      C   _cmp_rm_16_32_with_immed8:
			      C     @instr_bytes    1
 00001AEE  64: C7 05	     1C     mov     fs:instruction_bytes,1
	   000000EB R
	   00000001
			     1C     IF 1 EQ 1
 00001AF9  46		     1C         inc     esi
			     1C     ELSE
			     1C         add     esi,1
			     1C     ENDIF
			      C     @instr_text     cmp_text, 3
 00001AFA  64: C7 05	     1C     mov     fs:instruction_text_offset,offset cmp_text
	   000000F3 R
	   00000823 R
 00001B05  64: C7 05	     1C     mov     fs:instruction_text_length,3
	   000000EF R
	   00000003
 00001B10  E9 FFFFF4F8	      C     jmp     _xxx_rm_16_32_with_immed8
			      C 
 00001B15		      C   _cmpsb:
			      C     @instr_bytes    1
 00001B15  64: C7 05	     1C     mov     fs:instruction_bytes,1
	   000000EB R
	   00000001
			     1C     IF 1 EQ 1
 00001B20  46		     1C         inc     esi
			     1C     ELSE
			     1C         add     esi,1
			     1C     ENDIF
			      C     @instr_text     cmpsb_text, 5
 00001B21  64: C7 05	     1C     mov     fs:instruction_text_offset,offset cmpsb_text
	   000000F3 R
	   00000768 R
 00001B2C  64: C7 05	     1C     mov     fs:instruction_text_length,5
	   000000EF R
	   00000005
 00001B37  E9 00006843	      C     jmp     store_instruction
			      C 
 00001B3C		      C   _cmpsw:
			      C     @instr_bytes    1
 00001B3C  64: C7 05	     1C     mov     fs:instruction_bytes,1
	   000000EB R
	   00000001
			     1C     IF 1 EQ 1
 00001B47  46		     1C         inc     esi
			     1C     ELSE
			     1C         add     esi,1
			     1C     ENDIF
			      C     .IF ((fs:cpu_mode == 0 && fs:op_size_override != 0) || (fs:cpu_mode != 0 && fs:op_size_override == 0))
 00001B48  64: 83 3D
	   0000009B R 00   *	    cmp    fs : cpu_mode, 000h
 00001B50  75 0A	   *	    jne    @C0015
 00001B52  64: 83 3D
	   000000BF R 00   *	    cmp    fs : op_size_override, 000h
 00001B5A  75 14	   *	    jne    @C0014
 00001B5C		   *@C0015:
 00001B5C  64: 83 3D
	   0000009B R 00   *	    cmp    fs : cpu_mode, 000h
 00001B64  74 22	   *	    je     @C0013
 00001B66  64: 83 3D
	   000000BF R 00   *	    cmp    fs : op_size_override, 000h
 00001B6E  75 18	   *	    jne    @C0013
 00001B70		   *@C0014:
			      C         @instr_text     cmpsw_text, 5
 00001B70  64: C7 05	     1C     mov     fs:instruction_text_offset,offset cmpsw_text
	   000000F3 R
	   0000076D R
 00001B7B  64: C7 05	     1C     mov     fs:instruction_text_length,5
	   000000EF R
	   00000005
			      C     .ELSE
 00001B86  EB 16	   *	    jmp    @C0018
 00001B88		   *@C0013:
			      C         @instr_text     cmpsd_text, 5
 00001B88  64: C7 05	     1C     mov     fs:instruction_text_offset,offset cmpsd_text
	   000000F3 R
	   00000772 R
 00001B93  64: C7 05	     1C     mov     fs:instruction_text_length,5
	   000000EF R
	   00000005
			      C     .ENDIF
 00001B9E		   *@C0018:
 00001B9E  E9 000067DC	      C     jmp     store_instruction
			      C 
 00001BA3		      C   _cmpxchg_byte:
			      C     @instr_bytes    2
 00001BA3  64: C7 05	     1C     mov     fs:instruction_bytes,2
	   000000EB R
	   00000002
			     1C     IF 2 EQ 1
			     1C         inc     esi
			     1C     ELSE
 00001BAE  83 C6 02	     1C         add     esi,2
			     1C     ENDIF
			      C     @instr_text     cmpxchg_text, 7
 00001BB1  64: C7 05	     1C     mov     fs:instruction_text_offset,offset cmpxchg_text
	   000000F3 R
	   00000604 R
 00001BBC  64: C7 05	     1C     mov     fs:instruction_text_length,7
	   000000EF R
	   00000007
 00001BC7  64: C7 05	      C     mov     fs:operand_size,8
	   00000127 R
	   00000008
 00001BD2  E8 00006A45	      C     call    extract_mod_reg_rm
 00001BD7  E9 000067A3	      C     jmp     store_instruction
			      C 
 00001BDC		      C   _cmpxchg:
			      C     @instr_bytes    2
 00001BDC  64: C7 05	     1C     mov     fs:instruction_bytes,2
	   000000EB R
	   00000002
			     1C     IF 2 EQ 1
			     1C         inc     esi
			     1C     ELSE
 00001BE7  83 C6 02	     1C         add     esi,2
			     1C     ENDIF
			      C     @instr_text     cmpxchg_text, 7
 00001BEA  64: C7 05	     1C     mov     fs:instruction_text_offset,offset cmpxchg_text
	   000000F3 R
	   00000604 R
 00001BF5  64: C7 05	     1C     mov     fs:instruction_text_length,7
	   000000EF R
	   00000007
 00001C00  E8 000069D6	      C     call    determine_standard_operand_size
 00001C05  E8 00006A12	      C     call    extract_mod_reg_rm
 00001C0A  E9 00006770	      C     jmp     store_instruction
			      C 
 00001C0F		      C   _cmpxchg8b:
			      C     @instr_bytes    2
 00001C0F  64: C7 05	     1C     mov     fs:instruction_bytes,2
	   000000EB R
	   00000002
			     1C     IF 2 EQ 1
			     1C         inc     esi
			     1C     ELSE
 00001C1A  83 C6 02	     1C         add     esi,2
			     1C     ENDIF
			      C     @instr_text     cmpxchg8b_text, 9
 00001C1D  64: C7 05	     1C     mov     fs:instruction_text_offset,offset cmpxchg8b_text
	   000000F3 R
	   00000604 R
 00001C28  64: C7 05	     1C     mov     fs:instruction_text_length,9
	   000000EF R
	   00000009
 00001C33  64: C7 05	      C     mov     fs:operand_size,64
	   00000127 R
	   00000040
 00001C3E  E8 00006C58	      C     call    extract_mod_rm
 00001C43  E9 00006737	      C     jmp     store_instruction
			      C 
 00001C48		      C   _cpuid:
			      C     @instr_bytes    2
 00001C48  64: C7 05	     1C     mov     fs:instruction_bytes,2
	   000000EB R
	   00000002
			     1C     IF 2 EQ 1
			     1C         inc     esi
			     1C     ELSE
 00001C53  83 C6 02	     1C         add     esi,2
			     1C     ENDIF
			      C     @instr_text     cpuid_text, 5
 00001C56  64: C7 05	     1C     mov     fs:instruction_text_offset,offset cpuid_text
	   000000F3 R
	   00000826 R
 00001C61  64: C7 05	     1C     mov     fs:instruction_text_length,5
	   000000EF R
	   00000005
 00001C6C  E9 0000670E	      C     jmp     store_instruction
			      C 
 00001C71		      C   _cwd:
			      C     @instr_bytes    1
 00001C71  64: C7 05	     1C     mov     fs:instruction_bytes,1
	   000000EB R
	   00000001
			     1C     IF 1 EQ 1
 00001C7C  46		     1C         inc     esi
			     1C     ELSE
			     1C         add     esi,1
			     1C     ENDIF
			      C     .IF ((fs:cpu_mode == 0 && fs:op_size_override != 0) || (fs:cpu_mode != 0 && fs:op_size_override == 0))
 00001C7D  64: 83 3D
	   0000009B R 00   *	    cmp    fs : cpu_mode, 000h
 00001C85  75 0A	   *	    jne    @C001B
 00001C87  64: 83 3D
	   000000BF R 00   *	    cmp    fs : op_size_override, 000h
 00001C8F  75 14	   *	    jne    @C001A
 00001C91		   *@C001B:
 00001C91  64: 83 3D
	   0000009B R 00   *	    cmp    fs : cpu_mode, 000h
 00001C99  74 22	   *	    je     @C0019
 00001C9B  64: 83 3D
	   000000BF R 00   *	    cmp    fs : op_size_override, 000h
 00001CA3  75 18	   *	    jne    @C0019
 00001CA5		   *@C001A:
			      C         @instr_text     cwd_text, 3
 00001CA5  64: C7 05	     1C     mov     fs:instruction_text_offset,offset cwd_text
	   000000F3 R
	   0000057A R
 00001CB0  64: C7 05	     1C     mov     fs:instruction_text_length,3
	   000000EF R
	   00000003
			      C     .ELSE
 00001CBB  EB 16	   *	    jmp    @C001E
 00001CBD		   *@C0019:
			      C         @instr_text     cdq_text, 3
 00001CBD  64: C7 05	     1C     mov     fs:instruction_text_offset,offset cdq_text
	   000000F3 R
	   0000057E R
 00001CC8  64: C7 05	     1C     mov     fs:instruction_text_length,3
	   000000EF R
	   00000003
			      C     .ENDIF
 00001CD3		   *@C001E:
 00001CD3  E9 000066A7	      C     jmp     store_instruction
			      C 
 00001CD8		      C   _daa:
			      C     @instr_bytes    1
 00001CD8  64: C7 05	     1C     mov     fs:instruction_bytes,1
	   000000EB R
	   00000001
			     1C     IF 1 EQ 1
 00001CE3  46		     1C         inc     esi
			     1C     ELSE
			     1C         add     esi,1
			     1C     ENDIF
			      C     @instr_text     daa_text, 3
 00001CE4  64: C7 05	     1C     mov     fs:instruction_text_offset,offset daa_text
	   000000F3 R
	   0000058D R
 00001CEF  64: C7 05	     1C     mov     fs:instruction_text_length,3
	   000000EF R
	   00000003
 00001CFA  E9 00006680	      C     jmp     store_instruction
			      C 
 00001CFF		      C   _das:
			      C     @instr_bytes    1
 00001CFF  64: C7 05	     1C     mov     fs:instruction_bytes,1
	   000000EB R
	   00000001
			     1C     IF 1 EQ 1
 00001D0A  46		     1C         inc     esi
			     1C     ELSE
			     1C         add     esi,1
			     1C     ENDIF
			      C     @instr_text     das_text, 3
 00001D0B  64: C7 05	     1C     mov     fs:instruction_text_offset,offset das_text
	   000000F3 R
	   00000590 R
 00001D16  64: C7 05	     1C     mov     fs:instruction_text_length,3
	   000000EF R
	   00000003
 00001D21  E9 00006659	      C     jmp     store_instruction
			      C 
 00001D26		      C   _dec_xax:
 00001D26		      C   _dec_xbp:
 00001D26		      C   _dec_xbx:
 00001D26		      C   _dec_xcx:
 00001D26		      C   _dec_xdi:
 00001D26		      C   _dec_xdx:
 00001D26		      C   _dec_xsi:
 00001D26		      C   _dec_xsp:
			      C     @instr_bytes    1
 00001D26  64: C7 05	     1C     mov     fs:instruction_bytes,1
	   000000EB R
	   00000001
			     1C     IF 1 EQ 1
 00001D31  46		     1C         inc     esi
			     1C     ELSE
			     1C         add     esi,1
			     1C     ENDIF
			      C     @instr_text     dec_text, 3
 00001D32  64: C7 05	     1C     mov     fs:instruction_text_offset,offset dec_text
	   000000F3 R
	   00000801 R
 00001D3D  64: C7 05	     1C     mov     fs:instruction_text_length,3
	   000000EF R
	   00000003
 00001D48		      C   xnc_common1:
 00001D48  E8 000067FB	      C     call    start_offsets
 00001D4D  83 E0 07	      C     and     eax,111b
 00001D50  8A D8	      C     mov     bl,al
 00001D52  E8 00006884	      C     call    determine_standard_operand_size
 00001D57  E8 00006BE6	      C     call    store_gp_register
 00001D5C  E8 000067FD	      C     call    end_offsets
 00001D61  E9 00006619	      C     jmp     store_instruction
			      C 
 00001D66		      C   _dec_rm8:
			      C     @instr_bytes    1
 00001D66  64: C7 05	     1C     mov     fs:instruction_bytes,1
	   000000EB R
	   00000001
			     1C     IF 1 EQ 1
 00001D71  46		     1C         inc     esi
			     1C     ELSE
			     1C         add     esi,1
			     1C     ENDIF
			      C     @instr_text     dec_text, 3
 00001D72  64: C7 05	     1C     mov     fs:instruction_text_offset,offset dec_text
	   000000F3 R
	   00000801 R
 00001D7D  64: C7 05	     1C     mov     fs:instruction_text_length,3
	   000000EF R
	   00000003
 00001D88		      C   xnc_common2:
 00001D88  64: C7 05	      C     mov     fs:operand_size,8
	   00000127 R
	   00000008
 00001D93  E8 00006B03	      C     call    extract_mod_rm
 00001D98  E9 000065E2	      C     jmp     store_instruction
			      C 
 00001D9D		      C   _dec_rm16_32:
			      C     @instr_bytes    1
 00001D9D  64: C7 05	     1C     mov     fs:instruction_bytes,1
	   000000EB R
	   00000001
			     1C     IF 1 EQ 1
 00001DA8  46		     1C         inc     esi
			     1C     ELSE
			     1C         add     esi,1
			     1C     ENDIF
			      C     @instr_text     dec_text, 3
 00001DA9  64: C7 05	     1C     mov     fs:instruction_text_offset,offset dec_text
	   000000F3 R
	   00000801 R
 00001DB4  64: C7 05	     1C     mov     fs:instruction_text_length,3
	   000000EF R
	   00000003
 00001DBF		      C   xnc_common3:
 00001DBF  E8 00006817	      C     call    determine_standard_operand_size
 00001DC4  E8 00006AD2	      C     call    extract_mod_rm
 00001DC9  E9 000065B1	      C     jmp     store_instruction
			      C 
 00001DCE		      C   _div_byte:
			      C     @instr_bytes    1
 00001DCE  64: C7 05	     1C     mov     fs:instruction_bytes,1
	   000000EB R
	   00000001
			     1C     IF 1 EQ 1
 00001DD9  46		     1C         inc     esi
			     1C     ELSE
			     1C         add     esi,1
			     1C     ENDIF
			      C     @instr_text     div_text, 3
 00001DDA  64: C7 05	     1C     mov     fs:instruction_text_offset,offset div_text
	   000000F3 R
	   000007FB R
 00001DE5  64: C7 05	     1C     mov     fs:instruction_text_length,3
	   000000EF R
	   00000003
 00001DF0  64: C7 05	      C     mov     fs:operand_size,8
	   00000127 R
	   00000008
 00001DFB  E8 00006A9B	      C     call    extract_mod_rm
 00001E00  E9 0000657A	      C     jmp     store_instruction
			      C 
 00001E05		      C   _div:
			      C     @instr_bytes    1
 00001E05  64: C7 05	     1C     mov     fs:instruction_bytes,1
	   000000EB R
	   00000001
			     1C     IF 1 EQ 1
 00001E10  46		     1C         inc     esi
			     1C     ELSE
			     1C         add     esi,1
			     1C     ENDIF
			      C     @instr_text     div_text, 3
 00001E11  64: C7 05	     1C     mov     fs:instruction_text_offset,offset div_text
	   000000F3 R
	   000007FB R
 00001E1C  64: C7 05	     1C     mov     fs:instruction_text_length,3
	   000000EF R
	   00000003
 00001E27  E8 000067AF	      C     call    determine_standard_operand_size
 00001E2C  E8 00006A6A	      C     call    extract_mod_rm
 00001E31  E9 00006549	      C     jmp     store_instruction
			      C 
 00001E36		      C   _emms:
			      C     @instr_bytes    2
 00001E36  64: C7 05	     1C     mov     fs:instruction_bytes,2
	   000000EB R
	   00000002
			     1C     IF 2 EQ 1
			     1C         inc     esi
			     1C     ELSE
 00001E41  83 C6 02	     1C         add     esi,2
			     1C     ENDIF
			      C     @instr_text     emms_text, 4
 00001E44  64: C7 05	     1C     mov     fs:instruction_text_offset,offset emms_text
	   000000F3 R
	   000009CB R
 00001E4F  64: C7 05	     1C     mov     fs:instruction_text_length,4
	   000000EF R
	   00000004
 00001E5A  E9 00006520	      C     jmp     store_instruction
			      C 
 00001E5F		      C   _enter:
			      C     @instr_bytes    1
 00001E5F  64: C7 05	     1C     mov     fs:instruction_bytes,1
	   000000EB R
	   00000001
			     1C     IF 1 EQ 1
 00001E6A  46		     1C         inc     esi
			     1C     ELSE
			     1C         add     esi,1
			     1C     ENDIF
			      C     @instr_text     enter_text, 5
 00001E6B  64: C7 05	     1C     mov     fs:instruction_text_offset,offset enter_text
	   000000F3 R
	   0000060D R
 00001E76  64: C7 05	     1C     mov     fs:instruction_text_length,5
	   000000EF R
	   00000005
 00001E81  E8 000066C2	      C     call    start_offsets
 00001E86  E8 000076F5	      C     call    store_16_bit_value
 00001E8B  E8 000079FF	      C     call    store_comma
 00001E90  E8 00007725	      C     call    store_8_bit_value
 00001E95  E8 000066C4	      C     call    end_offsets
 00001E9A  E9 000064E0	      C     jmp     store_instruction
			      C 
 00001E9F		      C   _fpu_d8:
 00001E9F  8A 46 01	      C     mov     al,byte ptr ds:[esi+1]
			      C     .IF (al >= 0c0h && al <= 0c7h)
 00001EA2  3C C0	   *	    cmp    al, 0C0h
 00001EA4  72 69	   *	    jb     @C001F
 00001EA6  3C C7	   *	    cmp    al, 0C7h
 00001EA8  77 65	   *	    ja     @C001F
			      C       ; It's FADD st(0),st(i)
			      C         @instr_bytes    2
 00001EAA  64: C7 05	     1C     mov     fs:instruction_bytes,2
	   000000EB R
	   00000002
			     1C     IF 2 EQ 1
			     1C         inc     esi
			     1C     ELSE
 00001EB5  83 C6 02	     1C         add     esi,2
			     1C     ENDIF
			      C         @instr_text     fadd_text, 4
 00001EB8  64: C7 05	     1C     mov     fs:instruction_text_offset,offset fadd_text
	   000000F3 R
	   00000897 R
 00001EC3  64: C7 05	     1C     mov     fs:instruction_text_length,4
	   000000EF R
	   00000004
 00001ECE		      C       _st0_sti_common:
 00001ECE  E8 00006675	      C         call    start_offsets
 00001ED3  64: C7 05	      C         mov     fs:operand_size,80
	   00000127 R
	   00000050
 00001EDE  64: C7 05	      C         mov     fs:special_reg,_STx_REGS
	   000000AF R
	   00000005
 00001EE9  24 07	      C         and     al,111b
 00001EEB  8A D8	      C         mov     bl,al
 00001EED  53		      C         push    ebx
 00001EEE  32 DB	      C         xor     bl,bl
 00001EF0  E8 00006A4D	      C         call    store_gp_register
 00001EF5  E8 00007995	      C         call    store_comma
 00001EFA  5B		      C         pop     ebx
 00001EFB  E8 00006A42	      C         call    store_gp_register
 00001F00  E8 00006659	      C         call    end_offsets
 00001F05  E9 00006475	      C         jmp     store_instruction
			      C     .ELSEIF (al >= 0c8h && al <= 0cfh)
 00001F0A  E9 00000168	   *	    jmp    @C0022
 00001F0F		   *@C001F:
 00001F0F  3C C8	   *	    cmp    al, 0C8h
 00001F11  72 2F	   *	    jb     @C0023
 00001F13  3C CF	   *	    cmp    al, 0CFh
 00001F15  77 2B	   *	    ja     @C0023
			      C       ; It's FMUL st(0),st(i)
			      C         @instr_bytes    2
 00001F17  64: C7 05	     1C     mov     fs:instruction_bytes,2
	   000000EB R
	   00000002
			     1C     IF 2 EQ 1
			     1C         inc     esi
			     1C     ELSE
 00001F22  83 C6 02	     1C         add     esi,2
			     1C     ENDIF
			      C         @instr_text     fmul_text, 4
 00001F25  64: C7 05	     1C     mov     fs:instruction_text_offset,offset fmul_text
	   000000F3 R
	   0000089C R
 00001F30  64: C7 05	     1C     mov     fs:instruction_text_length,4
	   000000EF R
	   00000004
 00001F3B  EB 91	      C         jmp     _st0_sti_common
			      C     .ELSEIF (al >= 0d0h && al <= 0d7h)
 00001F3D  E9 00000135	   *	    jmp    @C0026
 00001F42		   *@C0023:
 00001F42  3C D0	   *	    cmp    al, 0D0h
 00001F44  72 32	   *	    jb     @C0027
 00001F46  3C D7	   *	    cmp    al, 0D7h
 00001F48  77 2E	   *	    ja     @C0027
			      C       ; It's FCOM st(0),st(i)
			      C         @instr_bytes    2
 00001F4A  64: C7 05	     1C     mov     fs:instruction_bytes,2
	   000000EB R
	   00000002
			     1C     IF 2 EQ 1
			     1C         inc     esi
			     1C     ELSE
 00001F55  83 C6 02	     1C         add     esi,2
			     1C     ENDIF
			      C         @instr_text     fcom_text, 4
 00001F58  64: C7 05	     1C     mov     fs:instruction_text_offset,offset fcom_text
	   000000F3 R
	   000008A1 R
 00001F63  64: C7 05	     1C     mov     fs:instruction_text_length,4
	   000000EF R
	   00000004
 00001F6E  E9 FFFFFF5B	      C         jmp     _st0_sti_common
			      C     .ELSEIF (al >= 0d8h && al <= 0dfh)
 00001F73  E9 000000FF	   *	    jmp    @C002A
 00001F78		   *@C0027:
 00001F78  3C D8	   *	    cmp    al, 0D8h
 00001F7A  72 32	   *	    jb     @C002B
 00001F7C  3C DF	   *	    cmp    al, 0DFh
 00001F7E  77 2E	   *	    ja     @C002B
			      C       ; It's FCOMP st(0),st(i)
			      C         @instr_bytes    2
 00001F80  64: C7 05	     1C     mov     fs:instruction_bytes,2
	   000000EB R
	   00000002
			     1C     IF 2 EQ 1
			     1C         inc     esi
			     1C     ELSE
 00001F8B  83 C6 02	     1C         add     esi,2
			     1C     ENDIF
			      C         @instr_text     fcomp_text, 5
 00001F8E  64: C7 05	     1C     mov     fs:instruction_text_offset,offset fcomp_text
	   000000F3 R
	   000008A1 R
 00001F99  64: C7 05	     1C     mov     fs:instruction_text_length,5
	   000000EF R
	   00000005
 00001FA4  E9 FFFFFF25	      C         jmp     _st0_sti_common
			      C     .ELSEIF (al >= 0e0h && al <= 0e7h)
 00001FA9  E9 000000C9	   *	    jmp    @C002E
 00001FAE		   *@C002B:
 00001FAE  3C E0	   *	    cmp    al, 0E0h
 00001FB0  72 32	   *	    jb     @C002F
 00001FB2  3C E7	   *	    cmp    al, 0E7h
 00001FB4  77 2E	   *	    ja     @C002F
			      C       ; It's FSUB st(0),st(i)
			      C         @instr_bytes    2
 00001FB6  64: C7 05	     1C     mov     fs:instruction_bytes,2
	   000000EB R
	   00000002
			     1C     IF 2 EQ 1
			     1C         inc     esi
			     1C     ELSE
 00001FC1  83 C6 02	     1C         add     esi,2
			     1C     ENDIF
			      C         @instr_text     fsub_text, 4
 00001FC4  64: C7 05	     1C     mov     fs:instruction_text_offset,offset fsub_text
	   000000F3 R
	   000008A7 R
 00001FCF  64: C7 05	     1C     mov     fs:instruction_text_length,4
	   000000EF R
	   00000004
 00001FDA  E9 FFFFFEEF	      C         jmp     _st0_sti_common
			      C     .ELSEIF (al >= 0e8h && al <= 0efh)
 00001FDF  E9 00000093	   *	    jmp    @C0032
 00001FE4		   *@C002F:
 00001FE4  3C E8	   *	    cmp    al, 0E8h
 00001FE6  72 2F	   *	    jb     @C0033
 00001FE8  3C EF	   *	    cmp    al, 0EFh
 00001FEA  77 2B	   *	    ja     @C0033
			      C       ; It's FSUBR st(0),st(i)
			      C         @instr_bytes    2
 00001FEC  64: C7 05	     1C     mov     fs:instruction_bytes,2
	   000000EB R
	   00000002
			     1C     IF 2 EQ 1
			     1C         inc     esi
			     1C     ELSE
 00001FF7  83 C6 02	     1C         add     esi,2
			     1C     ENDIF
			      C         @instr_text     fsubr_text, 5
 00001FFA  64: C7 05	     1C     mov     fs:instruction_text_offset,offset fsubr_text
	   000000F3 R
	   000008A7 R
 00002005  64: C7 05	     1C     mov     fs:instruction_text_length,5
	   000000EF R
	   00000005
 00002010  E9 FFFFFEB9	      C         jmp     _st0_sti_common
			      C     .ELSEIF (al >= 0f0h && al <= 0f7h)
 00002015  EB 60	   *	    jmp    @C0036
 00002017		   *@C0033:
 00002017  3C F0	   *	    cmp    al, 0F0h
 00002019  72 2D	   *	    jb     @C0037
 0000201B  3C F7	   *	    cmp    al, 0F7h
 0000201D  77 29	   *	    ja     @C0037
			      C       ; It's FDIV st(0),st(i)
			      C         @instr_bytes    1
 0000201F  64: C7 05	     1C     mov     fs:instruction_bytes,1
	   000000EB R
	   00000001
			     1C     IF 1 EQ 1
 0000202A  46		     1C         inc     esi
			     1C     ELSE
			     1C         add     esi,1
			     1C     ENDIF
			      C         @instr_text     fdiv_text, 4
 0000202B  64: C7 05	     1C     mov     fs:instruction_text_offset,offset fdiv_text
	   000000F3 R
	   000008B2 R
 00002036  64: C7 05	     1C     mov     fs:instruction_text_length,4
	   000000EF R
	   00000004
 00002041  E9 FFFFFE88	      C         jmp     _st0_sti_common
			      C     .ELSEIF (al >= 0f8h && al <= 0ffh)
 00002046  EB 2F	   *	    jmp    @C003A
 00002048		   *@C0037:
 00002048  3C F8	   *	    cmp    al, 0F8h
 0000204A  72 2B	   *	    jb     @C003B
 0000204C  3C FF	   *	    cmp    al, 0FFh
 0000204E  77 27	   *	    ja     @C003B
			      C       ; It's FDIVR st(0),st(i)
			      C         @instr_bytes    1
 00002050  64: C7 05	     1C     mov     fs:instruction_bytes,1
	   000000EB R
	   00000001
			     1C     IF 1 EQ 1
 0000205B  46		     1C         inc     esi
			     1C     ELSE
			     1C         add     esi,1
			     1C     ENDIF
			      C         @instr_text     fdivr_text, 5
 0000205C  64: C7 05	     1C     mov     fs:instruction_text_offset,offset fdivr_text
	   000000F3 R
	   000008B2 R
 00002067  64: C7 05	     1C     mov     fs:instruction_text_length,5
	   000000EF R
	   00000005
 00002072  E9 FFFFFE57	      C         jmp     _st0_sti_common
			      C     .ENDIF
 00002077		   *@C003B:
 00002077		   *@C003A:
 00002077		   *@C0036:
 00002077		   *@C0032:
 00002077		   *@C002E:
 00002077		   *@C002A:
 00002077		   *@C0026:
 00002077		   *@C0022:
 00002077  C0 E8 03	      C     shr     al,3
 0000207A  24 07	      C     and     al,111b
			      C     .IF (al == 000b)
 0000207C  0A C0	   *	    or	al, al
 0000207E  75 3C	   *	    jne    @C003E
			      C       ; It's FADD real4
			      C         @instr_bytes    1
 00002080  64: C7 05	     1C     mov     fs:instruction_bytes,1
	   000000EB R
	   00000001
			     1C     IF 1 EQ 1
 0000208B  46		     1C         inc     esi
			     1C     ELSE
			     1C         add     esi,1
			     1C     ENDIF
			      C         @instr_text     fadd_text, 4
 0000208C  64: C7 05	     1C     mov     fs:instruction_text_offset,offset fadd_text
	   000000F3 R
	   00000897 R
 00002097  64: C7 05	     1C     mov     fs:instruction_text_length,4
	   000000EF R
	   00000004
 000020A2  64: C7 05	      C         mov     fs:operand_size,32
	   00000127 R
	   00000020
 000020AD  E8 000067E9	      C         call    extract_mod_rm
 000020B2  E9 000062C8	      C         jmp     store_instruction
			      C     .ELSEIF (al == 001b)
 000020B7  E9 000001B5	   *	    jmp    @C0040
 000020BC		   *@C003E:
 000020BC  3C 01	   *	    cmp    al, 001h
 000020BE  75 3C	   *	    jne    @C0041
			      C       ; It's FMUL real4
			      C         @instr_bytes    1
 000020C0  64: C7 05	     1C     mov     fs:instruction_bytes,1
	   000000EB R
	   00000001
			     1C     IF 1 EQ 1
 000020CB  46		     1C         inc     esi
			     1C     ELSE
			     1C         add     esi,1
			     1C     ENDIF
			      C         @instr_text     fmul_text, 4
 000020CC  64: C7 05	     1C     mov     fs:instruction_text_offset,offset fmul_text
	   000000F3 R
	   0000089C R
 000020D7  64: C7 05	     1C     mov     fs:instruction_text_length,4
	   000000EF R
	   00000004
 000020E2  64: C7 05	      C         mov     fs:operand_size,32
	   00000127 R
	   00000020
 000020ED  E8 000067A9	      C         call    extract_mod_rm
 000020F2  E9 00006288	      C         jmp     store_instruction
			      C     .ELSEIF (al == 010b)
 000020F7  E9 00000175	   *	    jmp    @C0043
 000020FC		   *@C0041:
 000020FC  3C 02	   *	    cmp    al, 002h
 000020FE  75 3C	   *	    jne    @C0044
			      C       ; It's FCOM real4
			      C         @instr_bytes    1
 00002100  64: C7 05	     1C     mov     fs:instruction_bytes,1
	   000000EB R
	   00000001
			     1C     IF 1 EQ 1
 0000210B  46		     1C         inc     esi
			     1C     ELSE
			     1C         add     esi,1
			     1C     ENDIF
			      C         @instr_text     fcom_text, 4
 0000210C  64: C7 05	     1C     mov     fs:instruction_text_offset,offset fcom_text
	   000000F3 R
	   000008A1 R
 00002117  64: C7 05	     1C     mov     fs:instruction_text_length,4
	   000000EF R
	   00000004
 00002122  64: C7 05	      C         mov     fs:operand_size,32
	   00000127 R
	   00000020
 0000212D  E8 00006769	      C         call    extract_mod_rm
 00002132  E9 00006248	      C         jmp     store_instruction
			      C     .ELSEIF (al == 011b)
 00002137  E9 00000135	   *	    jmp    @C0046
 0000213C		   *@C0044:
 0000213C  3C 03	   *	    cmp    al, 003h
 0000213E  75 3C	   *	    jne    @C0047
			      C       ; It's FCOMP real4
			      C         @instr_bytes    1
 00002140  64: C7 05	     1C     mov     fs:instruction_bytes,1
	   000000EB R
	   00000001
			     1C     IF 1 EQ 1
 0000214B  46		     1C         inc     esi
			     1C     ELSE
			     1C         add     esi,1
			     1C     ENDIF
			      C         @instr_text     fcomp_text, 5
 0000214C  64: C7 05	     1C     mov     fs:instruction_text_offset,offset fcomp_text
	   000000F3 R
	   000008A1 R
 00002157  64: C7 05	     1C     mov     fs:instruction_text_length,5
	   000000EF R
	   00000005
 00002162  64: C7 05	      C         mov     fs:operand_size,32
	   00000127 R
	   00000020
 0000216D  E8 00006729	      C         call    extract_mod_rm
 00002172  E9 00006208	      C         jmp     store_instruction
			      C     .ELSEIF (al == 100b)
 00002177  E9 000000F5	   *	    jmp    @C0049
 0000217C		   *@C0047:
 0000217C  3C 04	   *	    cmp    al, 004h
 0000217E  75 3C	   *	    jne    @C004A
			      C       ; It's FSUB real4
			      C         @instr_bytes    1
 00002180  64: C7 05	     1C     mov     fs:instruction_bytes,1
	   000000EB R
	   00000001
			     1C     IF 1 EQ 1
 0000218B  46		     1C         inc     esi
			     1C     ELSE
			     1C         add     esi,1
			     1C     ENDIF
			      C         @instr_text     fsub_text, 4
 0000218C  64: C7 05	     1C     mov     fs:instruction_text_offset,offset fsub_text
	   000000F3 R
	   000008A7 R
 00002197  64: C7 05	     1C     mov     fs:instruction_text_length,4
	   000000EF R
	   00000004
 000021A2  64: C7 05	      C         mov     fs:operand_size,32
	   00000127 R
	   00000020
 000021AD  E8 000066E9	      C         call    extract_mod_rm
 000021B2  E9 000061C8	      C         jmp     store_instruction
			      C     .ELSEIF (al == 101b)
 000021B7  E9 000000B5	   *	    jmp    @C004C
 000021BC		   *@C004A:
 000021BC  3C 05	   *	    cmp    al, 005h
 000021BE  75 39	   *	    jne    @C004D
			      C       ; It's FSUBR real4
			      C         @instr_bytes    1
 000021C0  64: C7 05	     1C     mov     fs:instruction_bytes,1
	   000000EB R
	   00000001
			     1C     IF 1 EQ 1
 000021CB  46		     1C         inc     esi
			     1C     ELSE
			     1C         add     esi,1
			     1C     ENDIF
			      C         @instr_text     fsubr_text, 5
 000021CC  64: C7 05	     1C     mov     fs:instruction_text_offset,offset fsubr_text
	   000000F3 R
	   000008A7 R
 000021D7  64: C7 05	     1C     mov     fs:instruction_text_length,5
	   000000EF R
	   00000005
 000021E2  64: C7 05	      C         mov     fs:operand_size,32
	   00000127 R
	   00000020
 000021ED  E8 000066A9	      C         call    extract_mod_rm
 000021F2  E9 00006188	      C         jmp     store_instruction
			      C     .ELSEIF (al == 110b)
 000021F7  EB 78	   *	    jmp    @C004F
 000021F9		   *@C004D:
 000021F9  3C 06	   *	    cmp    al, 006h
 000021FB  75 39	   *	    jne    @C0050
			      C       ; It's FDIV real4
			      C         @instr_bytes    1
 000021FD  64: C7 05	     1C     mov     fs:instruction_bytes,1
	   000000EB R
	   00000001
			     1C     IF 1 EQ 1
 00002208  46		     1C         inc     esi
			     1C     ELSE
			     1C         add     esi,1
			     1C     ENDIF
			      C         @instr_text     fdiv_text, 4
 00002209  64: C7 05	     1C     mov     fs:instruction_text_offset,offset fdiv_text
	   000000F3 R
	   000008B2 R
 00002214  64: C7 05	     1C     mov     fs:instruction_text_length,4
	   000000EF R
	   00000004
 0000221F  64: C7 05	      C         mov     fs:operand_size,32
	   00000127 R
	   00000020
 0000222A  E8 0000666C	      C         call    extract_mod_rm
 0000222F  E9 0000614B	      C         jmp     store_instruction
			      C     .ELSEIF (al == 111b)
 00002234  EB 3B	   *	    jmp    @C0052
 00002236		   *@C0050:
 00002236  3C 07	   *	    cmp    al, 007h
 00002238  75 37	   *	    jne    @C0053
			      C       ; It's FDIVR real4
			      C         @instr_bytes    1
 0000223A  64: C7 05	     1C     mov     fs:instruction_bytes,1
	   000000EB R
	   00000001
			     1C     IF 1 EQ 1
 00002245  46		     1C         inc     esi
			     1C     ELSE
			     1C         add     esi,1
			     1C     ENDIF
			      C         @instr_text     fdivr_text, 5
 00002246  64: C7 05	     1C     mov     fs:instruction_text_offset,offset fdivr_text
	   000000F3 R
	   000008B2 R
 00002251  64: C7 05	     1C     mov     fs:instruction_text_length,5
	   000000EF R
	   00000005
 0000225C  64: C7 05	      C         mov     fs:operand_size,32
	   00000127 R
	   00000020
 00002267  E8 0000662F	      C         call    extract_mod_rm
 0000226C  E9 0000610E	      C         jmp     store_instruction
			      C     .ENDIF
 00002271		   *@C0053:
 00002271		   *@C0052:
 00002271		   *@C004F:
 00002271		   *@C004C:
 00002271		   *@C0049:
 00002271		   *@C0046:
 00002271		   *@C0043:
 00002271		   *@C0040:
 00002271  E9 000060BA	      C     jmp     _fpu_unused
			      C 
 00002276		      C   _fpu_d9:
 00002276  8A 46 01	      C     mov     al,byte ptr ds:[esi+1]
			      C     .IF (al >= 0c0h && al <= 0c7h)
 00002279  3C C0	   *	    cmp    al, 0C0h
 0000227B  72 30	   *	    jb     @C0055
 0000227D  3C C7	   *	    cmp    al, 0C7h
 0000227F  77 2C	   *	    ja     @C0055
			      C       ; It's FLD st(i)
			      C         @instr_bytes    1
 00002281  64: C7 05	     1C     mov     fs:instruction_bytes,1
	   000000EB R
	   00000001
			     1C     IF 1 EQ 1
 0000228C  46		     1C         inc     esi
			     1C     ELSE
			     1C         add     esi,1
			     1C     ENDIF
			      C         @instr_text     fld_text, 3
 0000228D  64: C7 05	     1C     mov     fs:instruction_text_offset,offset fld_text
	   000000F3 R
	   000008C2 R
 00002298  64: C7 05	     1C     mov     fs:instruction_text_length,3
	   000000EF R
	   00000003
 000022A3  E9 00001136	      C         jmp     _sti_common
			      C     .ELSEIF (al >= 0c8h && al <= 0cfh)
 000022A8  E9 000005A1	   *	    jmp    @C0058
 000022AD		   *@C0055:
 000022AD  3C C8	   *	    cmp    al, 0C8h
 000022AF  72 30	   *	    jb     @C0059
 000022B1  3C CF	   *	    cmp    al, 0CFh
 000022B3  77 2C	   *	    ja     @C0059
			      C       ; It's FXCH st(i)
			      C         @instr_bytes    1
 000022B5  64: C7 05	     1C     mov     fs:instruction_bytes,1
	   000000EB R
	   00000001
			     1C     IF 1 EQ 1
 000022C0  46		     1C         inc     esi
			     1C     ELSE
			     1C         add     esi,1
			     1C     ENDIF
			      C         @instr_text     fxch_text, 4
 000022C1  64: C7 05	     1C     mov     fs:instruction_text_offset,offset fxch_text
	   000000F3 R
	   000008CB R
 000022CC  64: C7 05	     1C     mov     fs:instruction_text_length,4
	   000000EF R
	   00000004
 000022D7  E9 00001102	      C         jmp     _sti_common
			      C     .ELSEIF (al == 0d0h)
 000022DC  E9 0000056D	   *	    jmp    @C005C
 000022E1		   *@C0059:
 000022E1  3C D0	   *	    cmp    al, 0D0h
 000022E3  75 2E	   *	    jne    @C005D
			      C       ; fnop
			      C         @instr_bytes    2
 000022E5  64: C7 05	     1C     mov     fs:instruction_bytes,2
	   000000EB R
	   00000002
			     1C     IF 2 EQ 1
			     1C         inc     esi
			     1C     ELSE
 000022F0  83 C6 02	     1C         add     esi,2
			     1C     ENDIF
			      C         @instr_text     fnop_text, 4
 000022F3  64: C7 05	     1C     mov     fs:instruction_text_offset,offset fnop_text
	   000000F3 R
	   000008CF R
 000022FE  64: C7 05	     1C     mov     fs:instruction_text_length,4
	   000000EF R
	   00000004
 00002309  E9 00006071	      C         jmp     store_instruction
			      C     .ELSEIF (al == 0e0h)
 0000230E  E9 0000053B	   *	    jmp    @C005F
 00002313		   *@C005D:
 00002313  3C E0	   *	    cmp    al, 0E0h
 00002315  75 2E	   *	    jne    @C0060
			      C       ; fchs
			      C         @instr_bytes    2
 00002317  64: C7 05	     1C     mov     fs:instruction_bytes,2
	   000000EB R
	   00000002
			     1C     IF 2 EQ 1
			     1C         inc     esi
			     1C     ELSE
 00002322  83 C6 02	     1C         add     esi,2
			     1C     ENDIF
			      C         @instr_text     fchs_text, 4
 00002325  64: C7 05	     1C     mov     fs:instruction_text_offset,offset fchs_text
	   000000F3 R
	   000008D3 R
 00002330  64: C7 05	     1C     mov     fs:instruction_text_length,4
	   000000EF R
	   00000004
 0000233B  E9 0000603F	      C         jmp     store_instruction
			      C     .ELSEIF (al == 0e1h)
 00002340  E9 00000509	   *	    jmp    @C0062
 00002345		   *@C0060:
 00002345  3C E1	   *	    cmp    al, 0E1h
 00002347  75 2E	   *	    jne    @C0063
			      C       ; fabs
			      C         @instr_bytes    2
 00002349  64: C7 05	     1C     mov     fs:instruction_bytes,2
	   000000EB R
	   00000002
			     1C     IF 2 EQ 1
			     1C         inc     esi
			     1C     ELSE
 00002354  83 C6 02	     1C         add     esi,2
			     1C     ENDIF
			      C         @instr_text     fabs_text, 4
 00002357  64: C7 05	     1C     mov     fs:instruction_text_offset,offset fabs_text
	   000000F3 R
	   000008D7 R
 00002362  64: C7 05	     1C     mov     fs:instruction_text_length,4
	   000000EF R
	   00000004
 0000236D  E9 0000600D	      C         jmp     store_instruction
			      C     .ELSEIF (al == 0e4h)
 00002372  E9 000004D7	   *	    jmp    @C0065
 00002377		   *@C0063:
 00002377  3C E4	   *	    cmp    al, 0E4h
 00002379  75 2E	   *	    jne    @C0066
			      C       ; ftst
			      C         @instr_bytes    2
 0000237B  64: C7 05	     1C     mov     fs:instruction_bytes,2
	   000000EB R
	   00000002
			     1C     IF 2 EQ 1
			     1C         inc     esi
			     1C     ELSE
 00002386  83 C6 02	     1C         add     esi,2
			     1C     ENDIF
			      C         @instr_text     ftst_text, 4
 00002389  64: C7 05	     1C     mov     fs:instruction_text_offset,offset ftst_text
	   000000F3 R
	   000008DB R
 00002394  64: C7 05	     1C     mov     fs:instruction_text_length,4
	   000000EF R
	   00000004
 0000239F  E9 00005FDB	      C         jmp     store_instruction
			      C     .ELSEIF (al == 0e5h)
 000023A4  E9 000004A5	   *	    jmp    @C0068
 000023A9		   *@C0066:
 000023A9  3C E5	   *	    cmp    al, 0E5h
 000023AB  75 2E	   *	    jne    @C0069
			      C       ; fxam
			      C         @instr_bytes    2
 000023AD  64: C7 05	     1C     mov     fs:instruction_bytes,2
	   000000EB R
	   00000002
			     1C     IF 2 EQ 1
			     1C         inc     esi
			     1C     ELSE
 000023B8  83 C6 02	     1C         add     esi,2
			     1C     ENDIF
			      C         @instr_text     fxam_text, 4
 000023BB  64: C7 05	     1C     mov     fs:instruction_text_offset,offset fxam_text
	   000000F3 R
	   000008DF R
 000023C6  64: C7 05	     1C     mov     fs:instruction_text_length,4
	   000000EF R
	   00000004
 000023D1  E9 00005FA9	      C         jmp     store_instruction
			      C     .ELSEIF (al == 0e8h)
 000023D6  E9 00000473	   *	    jmp    @C006B
 000023DB		   *@C0069:
 000023DB  3C E8	   *	    cmp    al, 0E8h
 000023DD  75 2E	   *	    jne    @C006C
			      C       ; fld1
			      C         @instr_bytes    2
 000023DF  64: C7 05	     1C     mov     fs:instruction_bytes,2
	   000000EB R
	   00000002
			     1C     IF 2 EQ 1
			     1C         inc     esi
			     1C     ELSE
 000023EA  83 C6 02	     1C         add     esi,2
			     1C     ENDIF
			      C         @instr_text     fld1_text, 4
 000023ED  64: C7 05	     1C     mov     fs:instruction_text_offset,offset fld1_text
	   000000F3 R
	   000008E3 R
 000023F8  64: C7 05	     1C     mov     fs:instruction_text_length,4
	   000000EF R
	   00000004
 00002403  E9 00005F77	      C         jmp     store_instruction
			      C     .ELSEIF (al == 0e9h)
 00002408  E9 00000441	   *	    jmp    @C006E
 0000240D		   *@C006C:
 0000240D  3C E9	   *	    cmp    al, 0E9h
 0000240F  75 2E	   *	    jne    @C006F
			      C       ; fldl2t
			      C         @instr_bytes    2
 00002411  64: C7 05	     1C     mov     fs:instruction_bytes,2
	   000000EB R
	   00000002
			     1C     IF 2 EQ 1
			     1C         inc     esi
			     1C     ELSE
 0000241C  83 C6 02	     1C         add     esi,2
			     1C     ENDIF
			      C         @instr_text     fldl2t_text, 6
 0000241F  64: C7 05	     1C     mov     fs:instruction_text_offset,offset fldl2t_text
	   000000F3 R
	   000008E7 R
 0000242A  64: C7 05	     1C     mov     fs:instruction_text_length,6
	   000000EF R
	   00000006
 00002435  E9 00005F45	      C         jmp     store_instruction
			      C     .ELSEIF (al == 0eah)
 0000243A  E9 0000040F	   *	    jmp    @C0071
 0000243F		   *@C006F:
 0000243F  3C EA	   *	    cmp    al, 0EAh
 00002441  75 2E	   *	    jne    @C0072
			      C       ; fldl2e
			      C         @instr_bytes    2
 00002443  64: C7 05	     1C     mov     fs:instruction_bytes,2
	   000000EB R
	   00000002
			     1C     IF 2 EQ 1
			     1C         inc     esi
			     1C     ELSE
 0000244E  83 C6 02	     1C         add     esi,2
			     1C     ENDIF
			      C         @instr_text     fldl2e_text, 6
 00002451  64: C7 05	     1C     mov     fs:instruction_text_offset,offset fldl2e_text
	   000000F3 R
	   000008ED R
 0000245C  64: C7 05	     1C     mov     fs:instruction_text_length,6
	   000000EF R
	   00000006
 00002467  E9 00005F13	      C         jmp     store_instruction
			      C     .ELSEIF (al == 0ebh)
 0000246C  E9 000003DD	   *	    jmp    @C0074
 00002471		   *@C0072:
 00002471  3C EB	   *	    cmp    al, 0EBh
 00002473  75 2E	   *	    jne    @C0075
			      C       ; fldpi
			      C         @instr_bytes    2
 00002475  64: C7 05	     1C     mov     fs:instruction_bytes,2
	   000000EB R
	   00000002
			     1C     IF 2 EQ 1
			     1C         inc     esi
			     1C     ELSE
 00002480  83 C6 02	     1C         add     esi,2
			     1C     ENDIF
			      C         @instr_text     fldpi_text, 5
 00002483  64: C7 05	     1C     mov     fs:instruction_text_offset,offset fldpi_text
	   000000F3 R
	   000008F3 R
 0000248E  64: C7 05	     1C     mov     fs:instruction_text_length,5
	   000000EF R
	   00000005
 00002499  E9 00005EE1	      C         jmp     store_instruction
			      C     .ELSEIF (al == 0ech)
 0000249E  E9 000003AB	   *	    jmp    @C0077
 000024A3		   *@C0075:
 000024A3  3C EC	   *	    cmp    al, 0ECh
 000024A5  75 2E	   *	    jne    @C0078
			      C       ; fldlg2
			      C         @instr_bytes    2
 000024A7  64: C7 05	     1C     mov     fs:instruction_bytes,2
	   000000EB R
	   00000002
			     1C     IF 2 EQ 1
			     1C         inc     esi
			     1C     ELSE
 000024B2  83 C6 02	     1C         add     esi,2
			     1C     ENDIF
			      C         @instr_text     fldlg2_text, 6
 000024B5  64: C7 05	     1C     mov     fs:instruction_text_offset,offset fldlg2_text
	   000000F3 R
	   000008F8 R
 000024C0  64: C7 05	     1C     mov     fs:instruction_text_length,6
	   000000EF R
	   00000006
 000024CB  E9 00005EAF	      C         jmp     store_instruction
			      C     .ELSEIF (al == 0edh)
 000024D0  E9 00000379	   *	    jmp    @C007A
 000024D5		   *@C0078:
 000024D5  3C ED	   *	    cmp    al, 0EDh
 000024D7  75 2E	   *	    jne    @C007B
			      C       ; fldln2
			      C         @instr_bytes    2
 000024D9  64: C7 05	     1C     mov     fs:instruction_bytes,2
	   000000EB R
	   00000002
			     1C     IF 2 EQ 1
			     1C         inc     esi
			     1C     ELSE
 000024E4  83 C6 02	     1C         add     esi,2
			     1C     ENDIF
			      C         @instr_text     fldln2_text, 6
 000024E7  64: C7 05	     1C     mov     fs:instruction_text_offset,offset fldln2_text
	   000000F3 R
	   000008FE R
 000024F2  64: C7 05	     1C     mov     fs:instruction_text_length,6
	   000000EF R
	   00000006
 000024FD  E9 00005E7D	      C         jmp     store_instruction
			      C     .ELSEIF (al == 0eeh)
 00002502  E9 00000347	   *	    jmp    @C007D
 00002507		   *@C007B:
 00002507  3C EE	   *	    cmp    al, 0EEh
 00002509  75 2E	   *	    jne    @C007E
			      C       ; fldz
			      C         @instr_bytes    2
 0000250B  64: C7 05	     1C     mov     fs:instruction_bytes,2
	   000000EB R
	   00000002
			     1C     IF 2 EQ 1
			     1C         inc     esi
			     1C     ELSE
 00002516  83 C6 02	     1C         add     esi,2
			     1C     ENDIF
			      C         @instr_text     fldz_text, 4
 00002519  64: C7 05	     1C     mov     fs:instruction_text_offset,offset fldz_text
	   000000F3 R
	   00000904 R
 00002524  64: C7 05	     1C     mov     fs:instruction_text_length,4
	   000000EF R
	   00000004
 0000252F  E9 00005E4B	      C         jmp     store_instruction
			      C     .ELSEIF (al == 0f0h)
 00002534  E9 00000315	   *	    jmp    @C0080
 00002539		   *@C007E:
 00002539  3C F0	   *	    cmp    al, 0F0h
 0000253B  75 2E	   *	    jne    @C0081
			      C       ; f2xm1
			      C         @instr_bytes    2
 0000253D  64: C7 05	     1C     mov     fs:instruction_bytes,2
	   000000EB R
	   00000002
			     1C     IF 2 EQ 1
			     1C         inc     esi
			     1C     ELSE
 00002548  83 C6 02	     1C         add     esi,2
			     1C     ENDIF
			      C         @instr_text     f2xm1_text, 5
 0000254B  64: C7 05	     1C     mov     fs:instruction_text_offset,offset f2xm1_text
	   000000F3 R
	   00000908 R
 00002556  64: C7 05	     1C     mov     fs:instruction_text_length,5
	   000000EF R
	   00000005
 00002561  E9 00005E19	      C         jmp     store_instruction
			      C     .ELSEIF (al == 0f1h)
 00002566  E9 000002E3	   *	    jmp    @C0083
 0000256B		   *@C0081:
 0000256B  3C F1	   *	    cmp    al, 0F1h
 0000256D  75 2E	   *	    jne    @C0084
			      C       ; fyl2x
			      C         @instr_bytes    2
 0000256F  64: C7 05	     1C     mov     fs:instruction_bytes,2
	   000000EB R
	   00000002
			     1C     IF 2 EQ 1
			     1C         inc     esi
			     1C     ELSE
 0000257A  83 C6 02	     1C         add     esi,2
			     1C     ENDIF
			      C         @instr_text     fyl2x_text, 5
 0000257D  64: C7 05	     1C     mov     fs:instruction_text_offset,offset fyl2x_text
	   000000F3 R
	   0000090D R
 00002588  64: C7 05	     1C     mov     fs:instruction_text_length,5
	   000000EF R
	   00000005
 00002593  E9 00005DE7	      C         jmp     store_instruction
			      C     .ELSEIF (al == 0f2h)
 00002598  E9 000002B1	   *	    jmp    @C0086
 0000259D		   *@C0084:
 0000259D  3C F2	   *	    cmp    al, 0F2h
 0000259F  75 2E	   *	    jne    @C0087
			      C       ; fptan
			      C         @instr_bytes    2
 000025A1  64: C7 05	     1C     mov     fs:instruction_bytes,2
	   000000EB R
	   00000002
			     1C     IF 2 EQ 1
			     1C         inc     esi
			     1C     ELSE
 000025AC  83 C6 02	     1C         add     esi,2
			     1C     ENDIF
			      C         @instr_text     fptan_text,5
 000025AF  64: C7 05	     1C     mov     fs:instruction_text_offset,offset fptan_text
	   000000F3 R
	   00000912 R
 000025BA  64: C7 05	     1C     mov     fs:instruction_text_length,5
	   000000EF R
	   00000005
 000025C5  E9 00005DB5	      C         jmp     store_instruction
			      C     .ELSEIF (al == 0f3h)
 000025CA  E9 0000027F	   *	    jmp    @C0089
 000025CF		   *@C0087:
 000025CF  3C F3	   *	    cmp    al, 0F3h
 000025D1  75 2E	   *	    jne    @C008A
			      C       ; fpatan
			      C         @instr_bytes    2
 000025D3  64: C7 05	     1C     mov     fs:instruction_bytes,2
	   000000EB R
	   00000002
			     1C     IF 2 EQ 1
			     1C         inc     esi
			     1C     ELSE
 000025DE  83 C6 02	     1C         add     esi,2
			     1C     ENDIF
			      C         @instr_text     fpatan_text,6
 000025E1  64: C7 05	     1C     mov     fs:instruction_text_offset,offset fpatan_text
	   000000F3 R
	   00000917 R
 000025EC  64: C7 05	     1C     mov     fs:instruction_text_length,6
	   000000EF R
	   00000006
 000025F7  E9 00005D83	      C         jmp     store_instruction
			      C     .ELSEIF (al == 0f4h)
 000025FC  E9 0000024D	   *	    jmp    @C008C
 00002601		   *@C008A:
 00002601  3C F4	   *	    cmp    al, 0F4h
 00002603  75 2E	   *	    jne    @C008D
			      C       ; fxtract
			      C         @instr_bytes    2
 00002605  64: C7 05	     1C     mov     fs:instruction_bytes,2
	   000000EB R
	   00000002
			     1C     IF 2 EQ 1
			     1C         inc     esi
			     1C     ELSE
 00002610  83 C6 02	     1C         add     esi,2
			     1C     ENDIF
			      C         @instr_text     fxtract_text,7
 00002613  64: C7 05	     1C     mov     fs:instruction_text_offset,offset fxtract_text
	   000000F3 R
	   0000091D R
 0000261E  64: C7 05	     1C     mov     fs:instruction_text_length,7
	   000000EF R
	   00000007
 00002629  E9 00005D51	      C         jmp     store_instruction
			      C     .ELSEIF (al == 0f5h)
 0000262E  E9 0000021B	   *	    jmp    @C008F
 00002633		   *@C008D:
 00002633  3C F5	   *	    cmp    al, 0F5h
 00002635  75 2E	   *	    jne    @C0090
			      C       ; fprem1
			      C         @instr_bytes    2
 00002637  64: C7 05	     1C     mov     fs:instruction_bytes,2
	   000000EB R
	   00000002
			     1C     IF 2 EQ 1
			     1C         inc     esi
			     1C     ELSE
 00002642  83 C6 02	     1C         add     esi,2
			     1C     ENDIF
			      C         @instr_text     fprem1_text,6
 00002645  64: C7 05	     1C     mov     fs:instruction_text_offset,offset fprem1_text
	   000000F3 R
	   00000924 R
 00002650  64: C7 05	     1C     mov     fs:instruction_text_length,6
	   000000EF R
	   00000006
 0000265B  E9 00005D1F	      C         jmp     store_instruction
			      C     .ELSEIF (al == 0f6h)
 00002660  E9 000001E9	   *	    jmp    @C0092
 00002665		   *@C0090:
 00002665  3C F6	   *	    cmp    al, 0F6h
 00002667  75 2E	   *	    jne    @C0093
			      C       ; fdecstp
			      C         @instr_bytes    2
 00002669  64: C7 05	     1C     mov     fs:instruction_bytes,2
	   000000EB R
	   00000002
			     1C     IF 2 EQ 1
			     1C         inc     esi
			     1C     ELSE
 00002674  83 C6 02	     1C         add     esi,2
			     1C     ENDIF
			      C         @instr_text     fdecstp_text,7
 00002677  64: C7 05	     1C     mov     fs:instruction_text_offset,offset fdecstp_text
	   000000F3 R
	   0000092A R
 00002682  64: C7 05	     1C     mov     fs:instruction_text_length,7
	   000000EF R
	   00000007
 0000268D  E9 00005CED	      C         jmp     store_instruction
			      C     .ELSEIF (al == 0f7h)
 00002692  E9 000001B7	   *	    jmp    @C0095
 00002697		   *@C0093:
 00002697  3C F7	   *	    cmp    al, 0F7h
 00002699  75 2E	   *	    jne    @C0096
			      C       ; fincstp
			      C         @instr_bytes    2
 0000269B  64: C7 05	     1C     mov     fs:instruction_bytes,2
	   000000EB R
	   00000002
			     1C     IF 2 EQ 1
			     1C         inc     esi
			     1C     ELSE
 000026A6  83 C6 02	     1C         add     esi,2
			     1C     ENDIF
			      C         @instr_text     fincstp_text,7
 000026A9  64: C7 05	     1C     mov     fs:instruction_text_offset,offset fincstp_text
	   000000F3 R
	   00000931 R
 000026B4  64: C7 05	     1C     mov     fs:instruction_text_length,7
	   000000EF R
	   00000007
 000026BF  E9 00005CBB	      C         jmp     store_instruction
			      C     .ELSEIF (al == 0f8h)
 000026C4  E9 00000185	   *	    jmp    @C0098
 000026C9		   *@C0096:
 000026C9  3C F8	   *	    cmp    al, 0F8h
 000026CB  75 2E	   *	    jne    @C0099
			      C       ; fprem
			      C         @instr_bytes    2
 000026CD  64: C7 05	     1C     mov     fs:instruction_bytes,2
	   000000EB R
	   00000002
			     1C     IF 2 EQ 1
			     1C         inc     esi
			     1C     ELSE
 000026D8  83 C6 02	     1C         add     esi,2
			     1C     ENDIF
			      C         @instr_text     fprem_text,5
 000026DB  64: C7 05	     1C     mov     fs:instruction_text_offset,offset fprem_text
	   000000F3 R
	   00000924 R
 000026E6  64: C7 05	     1C     mov     fs:instruction_text_length,5
	   000000EF R
	   00000005
 000026F1  E9 00005C89	      C         jmp     store_instruction
			      C     .ELSEIF (al == 0f9h)
 000026F6  E9 00000153	   *	    jmp    @C009B
 000026FB		   *@C0099:
 000026FB  3C F9	   *	    cmp    al, 0F9h
 000026FD  75 2E	   *	    jne    @C009C
			      C       ; fyl2xp1
			      C         @instr_bytes    2
 000026FF  64: C7 05	     1C     mov     fs:instruction_bytes,2
	   000000EB R
	   00000002
			     1C     IF 2 EQ 1
			     1C         inc     esi
			     1C     ELSE
 0000270A  83 C6 02	     1C         add     esi,2
			     1C     ENDIF
			      C         @instr_text     fyl2xp1_text,7
 0000270D  64: C7 05	     1C     mov     fs:instruction_text_offset,offset fyl2xp1_text
	   000000F3 R
	   00000938 R
 00002718  64: C7 05	     1C     mov     fs:instruction_text_length,7
	   000000EF R
	   00000007
 00002723  E9 00005C57	      C         jmp     store_instruction
			      C     .ELSEIF (al == 0fah)
 00002728  E9 00000121	   *	    jmp    @C009E
 0000272D		   *@C009C:
 0000272D  3C FA	   *	    cmp    al, 0FAh
 0000272F  75 2E	   *	    jne    @C009F
			      C       ; fsqrt
			      C         @instr_bytes    2
 00002731  64: C7 05	     1C     mov     fs:instruction_bytes,2
	   000000EB R
	   00000002
			     1C     IF 2 EQ 1
			     1C         inc     esi
			     1C     ELSE
 0000273C  83 C6 02	     1C         add     esi,2
			     1C     ENDIF
			      C         @instr_text     fsqrt_text,5
 0000273F  64: C7 05	     1C     mov     fs:instruction_text_offset,offset fsqrt_text
	   000000F3 R
	   0000093F R
 0000274A  64: C7 05	     1C     mov     fs:instruction_text_length,5
	   000000EF R
	   00000005
 00002755  E9 00005C25	      C         jmp     store_instruction
			      C     .ELSEIF (al == 0fbh)
 0000275A  E9 000000EF	   *	    jmp    @C00A1
 0000275F		   *@C009F:
 0000275F  3C FB	   *	    cmp    al, 0FBh
 00002761  75 2E	   *	    jne    @C00A2
			      C       ; fsincos
			      C         @instr_bytes    2
 00002763  64: C7 05	     1C     mov     fs:instruction_bytes,2
	   000000EB R
	   00000002
			     1C     IF 2 EQ 1
			     1C         inc     esi
			     1C     ELSE
 0000276E  83 C6 02	     1C         add     esi,2
			     1C     ENDIF
			      C         @instr_text     fsincos_text,7
 00002771  64: C7 05	     1C     mov     fs:instruction_text_offset,offset fsincos_text
	   000000F3 R
	   00000944 R
 0000277C  64: C7 05	     1C     mov     fs:instruction_text_length,7
	   000000EF R
	   00000007
 00002787  E9 00005BF3	      C         jmp     store_instruction
			      C     .ELSEIF (al == 0fch)
 0000278C  E9 000000BD	   *	    jmp    @C00A4
 00002791		   *@C00A2:
 00002791  3C FC	   *	    cmp    al, 0FCh
 00002793  75 2E	   *	    jne    @C00A5
			      C       ; frndint
			      C         @instr_bytes    2
 00002795  64: C7 05	     1C     mov     fs:instruction_bytes,2
	   000000EB R
	   00000002
			     1C     IF 2 EQ 1
			     1C         inc     esi
			     1C     ELSE
 000027A0  83 C6 02	     1C         add     esi,2
			     1C     ENDIF
			      C         @instr_text     frndint_text,7
 000027A3  64: C7 05	     1C     mov     fs:instruction_text_offset,offset frndint_text
	   000000F3 R
	   0000094B R
 000027AE  64: C7 05	     1C     mov     fs:instruction_text_length,7
	   000000EF R
	   00000007
 000027B9  E9 00005BC1	      C         jmp     store_instruction
			      C     .ELSEIF (al == 0fdh)
 000027BE  E9 0000008B	   *	    jmp    @C00A7
 000027C3		   *@C00A5:
 000027C3  3C FD	   *	    cmp    al, 0FDh
 000027C5  75 2B	   *	    jne    @C00A8
			      C       ; fscale
			      C         @instr_bytes    2
 000027C7  64: C7 05	     1C     mov     fs:instruction_bytes,2
	   000000EB R
	   00000002
			     1C     IF 2 EQ 1
			     1C         inc     esi
			     1C     ELSE
 000027D2  83 C6 02	     1C         add     esi,2
			     1C     ENDIF
			      C         @instr_text     fscale_text,6
 000027D5  64: C7 05	     1C     mov     fs:instruction_text_offset,offset fscale_text
	   000000F3 R
	   00000952 R
 000027E0  64: C7 05	     1C     mov     fs:instruction_text_length,6
	   000000EF R
	   00000006
 000027EB  E9 00005B8F	      C         jmp     store_instruction
			      C     .ELSEIF (al == 0feh)
 000027F0  EB 5C	   *	    jmp    @C00AA
 000027F2		   *@C00A8:
 000027F2  3C FE	   *	    cmp    al, 0FEh
 000027F4  75 2B	   *	    jne    @C00AB
			      C       ; fsin
			      C         @instr_bytes    2
 000027F6  64: C7 05	     1C     mov     fs:instruction_bytes,2
	   000000EB R
	   00000002
			     1C     IF 2 EQ 1
			     1C         inc     esi
			     1C     ELSE
 00002801  83 C6 02	     1C         add     esi,2
			     1C     ENDIF
			      C         @instr_text     fsin_text,4
 00002804  64: C7 05	     1C     mov     fs:instruction_text_offset,offset fsin_text
	   000000F3 R
	   00000958 R
 0000280F  64: C7 05	     1C     mov     fs:instruction_text_length,4
	   000000EF R
	   00000004
 0000281A  E9 00005B60	      C         jmp     store_instruction
			      C     .ELSEIF (al == 0ffh)
 0000281F  EB 2D	   *	    jmp    @C00AD
 00002821		   *@C00AB:
 00002821  3C FF	   *	    cmp    al, 0FFh
 00002823  75 29	   *	    jne    @C00AE
			      C       ; fcos
			      C         @instr_bytes    2
 00002825  64: C7 05	     1C     mov     fs:instruction_bytes,2
	   000000EB R
	   00000002
			     1C     IF 2 EQ 1
			     1C         inc     esi
			     1C     ELSE
 00002830  83 C6 02	     1C         add     esi,2
			     1C     ENDIF
			      C         @instr_text     fcos_text, 4
 00002833  64: C7 05	     1C     mov     fs:instruction_text_offset,offset fcos_text
	   000000F3 R
	   0000095C R
 0000283E  64: C7 05	     1C     mov     fs:instruction_text_length,4
	   000000EF R
	   00000004
 00002849  E9 00005B31	      C         jmp     store_instruction
			      C     .ENDIF
 0000284E		   *@C00AE:
 0000284E		   *@C00AD:
 0000284E		   *@C00AA:
 0000284E		   *@C00A7:
 0000284E		   *@C00A4:
 0000284E		   *@C00A1:
 0000284E		   *@C009E:
 0000284E		   *@C009B:
 0000284E		   *@C0098:
 0000284E		   *@C0095:
 0000284E		   *@C0092:
 0000284E		   *@C008F:
 0000284E		   *@C008C:
 0000284E		   *@C0089:
 0000284E		   *@C0086:
 0000284E		   *@C0083:
 0000284E		   *@C0080:
 0000284E		   *@C007D:
 0000284E		   *@C007A:
 0000284E		   *@C0077:
 0000284E		   *@C0074:
 0000284E		   *@C0071:
 0000284E		   *@C006E:
 0000284E		   *@C006B:
 0000284E		   *@C0068:
 0000284E		   *@C0065:
 0000284E		   *@C0062:
 0000284E		   *@C005F:
 0000284E		   *@C005C:
 0000284E		   *@C0058:
 0000284E  C0 E8 03	      C     shr     al,3
 00002851  24 07	      C     and     al,111b
			      C     .IF (al == 000b)
 00002853  0A C0	   *	    or	al, al
 00002855  75 3C	   *	    jne    @C00B0
			      C       ; It's FLD real4
			      C         @instr_bytes    1
 00002857  64: C7 05	     1C     mov     fs:instruction_bytes,1
	   000000EB R
	   00000001
			     1C     IF 1 EQ 1
 00002862  46		     1C         inc     esi
			     1C     ELSE
			     1C         add     esi,1
			     1C     ENDIF
			      C         @instr_text     fld_text, 3
 00002863  64: C7 05	     1C     mov     fs:instruction_text_offset,offset fld_text
	   000000F3 R
	   000008C2 R
 0000286E  64: C7 05	     1C     mov     fs:instruction_text_length,3
	   000000EF R
	   00000003
 00002879  64: C7 05	      C         mov     fs:operand_size,32
	   00000127 R
	   00000020
 00002884  E8 00006012	      C         call    extract_mod_rm
 00002889  E9 00005AF1	      C         jmp     store_instruction
			      C     .ELSEIF (al == 010b)
 0000288E  E9 000001E2	   *	    jmp    @C00B2
 00002893		   *@C00B0:
 00002893  3C 02	   *	    cmp    al, 002h
 00002895  75 3C	   *	    jne    @C00B3
			      C       ; It's FST real4
			      C         @instr_bytes    1
 00002897  64: C7 05	     1C     mov     fs:instruction_bytes,1
	   000000EB R
	   00000001
			     1C     IF 1 EQ 1
 000028A2  46		     1C         inc     esi
			     1C     ELSE
			     1C         add     esi,1
			     1C     ENDIF
			      C         @instr_text     fst_text, 3
 000028A3  64: C7 05	     1C     mov     fs:instruction_text_offset,offset fst_text
	   000000F3 R
	   000008C7 R
 000028AE  64: C7 05	     1C     mov     fs:instruction_text_length,3
	   000000EF R
	   00000003
 000028B9  64: C7 05	      C         mov     fs:operand_size,32
	   00000127 R
	   00000020
 000028C4  E8 00005FD2	      C         call    extract_mod_rm
 000028C9  E9 00005AB1	      C         jmp     store_instruction
			      C     .ELSEIF (al == 011b)
 000028CE  E9 000001A2	   *	    jmp    @C00B5
 000028D3		   *@C00B3:
 000028D3  3C 03	   *	    cmp    al, 003h
 000028D5  75 3C	   *	    jne    @C00B6
			      C       ; It's FSTP real4
			      C         @instr_bytes    1
 000028D7  64: C7 05	     1C     mov     fs:instruction_bytes,1
	   000000EB R
	   00000001
			     1C     IF 1 EQ 1
 000028E2  46		     1C         inc     esi
			     1C     ELSE
			     1C         add     esi,1
			     1C     ENDIF
			      C         @instr_text     fstp_text, 4
 000028E3  64: C7 05	     1C     mov     fs:instruction_text_offset,offset fstp_text
	   000000F3 R
	   000008C7 R
 000028EE  64: C7 05	     1C     mov     fs:instruction_text_length,4
	   000000EF R
	   00000004
 000028F9  64: C7 05	      C         mov     fs:operand_size,32
	   00000127 R
	   00000020
 00002904  E8 00005F92	      C         call    extract_mod_rm
 00002909  E9 00005A71	      C         jmp     store_instruction
			      C     .ELSEIF (al == 100b)
 0000290E  E9 00000162	   *	    jmp    @C00B8
 00002913		   *@C00B6:
 00002913  3C 04	   *	    cmp    al, 004h
 00002915  75 71	   *	    jne    @C00B9
			      C       ; It's fldenv
			      C         @instr_bytes    1
 00002917  64: C7 05	     1C     mov     fs:instruction_bytes,1
	   000000EB R
	   00000001
			     1C     IF 1 EQ 1
 00002922  46		     1C         inc     esi
			     1C     ELSE
			     1C         add     esi,1
			     1C     ENDIF
			      C         @instr_text     fldenv_text, 6
 00002923  64: C7 05	     1C     mov     fs:instruction_text_offset,offset fldenv_text
	   000000F3 R
	   00000960 R
 0000292E  64: C7 05	     1C     mov     fs:instruction_text_length,6
	   000000EF R
	   00000006
			      C         .IF ((fs:cpu_mode == 0 && fs:op_size_override != 0) || (fs:cpu_mode != 0 && fs:op_size_override == 0))
 00002939  64: 83 3D
	   0000009B R 00   *	    cmp    fs : cpu_mode, 000h
 00002941  75 0A	   *	    jne    @C00BD
 00002943  64: 83 3D
	   000000BF R 00   *	    cmp    fs : op_size_override, 000h
 0000294B  75 14	   *	    jne    @C00BC
 0000294D		   *@C00BD:
 0000294D  64: 83 3D
	   0000009B R 00   *	    cmp    fs : cpu_mode, 000h
 00002955  74 17	   *	    je     @C00BB
 00002957  64: 83 3D
	   000000BF R 00   *	    cmp    fs : op_size_override, 000h
 0000295F  75 0D	   *	    jne    @C00BB
 00002961		   *@C00BC:
 00002961  64: C7 05	      C             mov     fs:operand_size,14
	   00000127 R
	   0000000E
			      C         .ELSE
 0000296C  EB 0B	   *	    jmp    @C00C0
 0000296E		   *@C00BB:
 0000296E  64: C7 05	      C             mov     fs:operand_size,28
	   00000127 R
	   0000001C
			      C         .ENDIF
 00002979		   *@C00C0:
 00002979  E8 00005F1D	      C         call    extract_mod_rm
 0000297E  E9 000059FC	      C         jmp     store_instruction
			      C     .ELSEIF (al == 101b)
 00002983  E9 000000ED	   *	    jmp    @C00C1
 00002988		   *@C00B9:
 00002988  3C 05	   *	    cmp    al, 005h
 0000298A  75 3C	   *	    jne    @C00C2
			      C       ; It's fldcw m16
			      C         @instr_bytes    1
 0000298C  64: C7 05	     1C     mov     fs:instruction_bytes,1
	   000000EB R
	   00000001
			     1C     IF 1 EQ 1
 00002997  46		     1C         inc     esi
			     1C     ELSE
			     1C         add     esi,1
			     1C     ENDIF
			      C         @instr_text     fldcw_text, 5
 00002998  64: C7 05	     1C     mov     fs:instruction_text_offset,offset fldcw_text
	   000000F3 R
	   000008C2 R
 000029A3  64: C7 05	     1C     mov     fs:instruction_text_length,5
	   000000EF R
	   00000005
 000029AE  64: C7 05	      C         mov     fs:operand_size,16
	   00000127 R
	   00000010
 000029B9  E8 00005EDD	      C         call    extract_mod_rm
 000029BE  E9 000059BC	      C         jmp     store_instruction
			      C     .ELSEIF (al == 110b)
 000029C3  E9 000000AD	   *	    jmp    @C00C4
 000029C8		   *@C00C2:
 000029C8  3C 06	   *	    cmp    al, 006h
 000029CA  75 6E	   *	    jne    @C00C5
			      C       ; It's fnstenv
			      C         @instr_bytes    1
 000029CC  64: C7 05	     1C     mov     fs:instruction_bytes,1
	   000000EB R
	   00000001
			     1C     IF 1 EQ 1
 000029D7  46		     1C         inc     esi
			     1C     ELSE
			     1C         add     esi,1
			     1C     ENDIF
			      C         @instr_text     fnstenv_text, 7
 000029D8  64: C7 05	     1C     mov     fs:instruction_text_offset,offset fnstenv_text
	   000000F3 R
	   00000966 R
 000029E3  64: C7 05	     1C     mov     fs:instruction_text_length,7
	   000000EF R
	   00000007
			      C         .IF ((fs:cpu_mode == 0 && fs:op_size_override != 0) || (fs:cpu_mode != 0 && fs:op_size_override == 0))
 000029EE  64: 83 3D
	   0000009B R 00   *	    cmp    fs : cpu_mode, 000h
 000029F6  75 0A	   *	    jne    @C00C9
 000029F8  64: 83 3D
	   000000BF R 00   *	    cmp    fs : op_size_override, 000h
 00002A00  75 14	   *	    jne    @C00C8
 00002A02		   *@C00C9:
 00002A02  64: 83 3D
	   0000009B R 00   *	    cmp    fs : cpu_mode, 000h
 00002A0A  74 17	   *	    je     @C00C7
 00002A0C  64: 83 3D
	   000000BF R 00   *	    cmp    fs : op_size_override, 000h
 00002A14  75 0D	   *	    jne    @C00C7
 00002A16		   *@C00C8:
 00002A16  64: C7 05	      C             mov     fs:operand_size,14
	   00000127 R
	   0000000E
			      C         .ELSE
 00002A21  EB 0B	   *	    jmp    @C00CC
 00002A23		   *@C00C7:
 00002A23  64: C7 05	      C             mov     fs:operand_size,28
	   00000127 R
	   0000001C
			      C         .ENDIF
 00002A2E		   *@C00CC:
 00002A2E  E8 00005E68	      C         call    extract_mod_rm
 00002A33  E9 00005947	      C         jmp     store_instruction
			      C     .ELSEIF (al == 111b)
 00002A38  EB 3B	   *	    jmp    @C00CD
 00002A3A		   *@C00C5:
 00002A3A  3C 07	   *	    cmp    al, 007h
 00002A3C  75 37	   *	    jne    @C00CE
			      C       ; It's fnstcw m16
			      C         @instr_bytes    1
 00002A3E  64: C7 05	     1C     mov     fs:instruction_bytes,1
	   000000EB R
	   00000001
			     1C     IF 1 EQ 1
 00002A49  46		     1C         inc     esi
			     1C     ELSE
			     1C         add     esi,1
			     1C     ENDIF
			      C         @instr_text     fnstcw_text, 6
 00002A4A  64: C7 05	     1C     mov     fs:instruction_text_offset,offset fnstcw_text
	   000000F3 R
	   0000096D R
 00002A55  64: C7 05	     1C     mov     fs:instruction_text_length,6
	   000000EF R
	   00000006
 00002A60  64: C7 05	      C         mov     fs:operand_size,16
	   00000127 R
	   00000010
 00002A6B  E8 00005E2B	      C         call    extract_mod_rm
 00002A70  E9 0000590A	      C         jmp     store_instruction
			      C     .ENDIF
 00002A75		   *@C00CE:
 00002A75		   *@C00CD:
 00002A75		   *@C00C4:
 00002A75		   *@C00C1:
 00002A75		   *@C00B8:
 00002A75		   *@C00B5:
 00002A75		   *@C00B2:
 00002A75  E9 000058B6	      C     jmp     _fpu_unused
			      C 
 00002A7A		      C   _fpu_da:
 00002A7A  8A 46 01	      C     mov     al,byte ptr ds:[esi+1]
			      C     .IF (al >= 0c0h && al <= 0c7h)
 00002A7D  3C C0	   *	    cmp    al, 0C0h
 00002A7F  72 30	   *	    jb     @C00D0
 00002A81  3C C7	   *	    cmp    al, 0C7h
 00002A83  77 2C	   *	    ja     @C00D0
			      C       ; It's FCMOVB st0,sti
			      C         @instr_bytes    1
 00002A85  64: C7 05	     1C     mov     fs:instruction_bytes,1
	   000000EB R
	   00000001
			     1C     IF 1 EQ 1
 00002A90  46		     1C         inc     esi
			     1C     ELSE
			     1C         add     esi,1
			     1C     ENDIF
			      C         @instr_text     fcmovb_text, 6
 00002A91  64: C7 05	     1C     mov     fs:instruction_text_offset,offset fcmovb_text
	   000000F3 R
	   00000852 R
 00002A9C  64: C7 05	     1C     mov     fs:instruction_text_length,6
	   000000EF R
	   00000006
 00002AA7  E9 FFFFF422	      C         jmp     _st0_sti_common
			      C     .ELSEIF (al >= 0c8h && al <= 0cfh)
 00002AAC  E9 000000C1	   *	    jmp    @C00D3
 00002AB1		   *@C00D0:
 00002AB1  3C C8	   *	    cmp    al, 0C8h
 00002AB3  72 30	   *	    jb     @C00D4
 00002AB5  3C CF	   *	    cmp    al, 0CFh
 00002AB7  77 2C	   *	    ja     @C00D4
			      C       ; It's FCMOVZ st0,sti
			      C         @instr_bytes    1
 00002AB9  64: C7 05	     1C     mov     fs:instruction_bytes,1
	   000000EB R
	   00000001
			     1C     IF 1 EQ 1
 00002AC4  46		     1C         inc     esi
			     1C     ELSE
			     1C         add     esi,1
			     1C     ENDIF
			      C         @instr_text     fcmovz_text, 6
 00002AC5  64: C7 05	     1C     mov     fs:instruction_text_offset,offset fcmovz_text
	   000000F3 R
	   00000858 R
 00002AD0  64: C7 05	     1C     mov     fs:instruction_text_length,6
	   000000EF R
	   00000006
 00002ADB  E9 FFFFF3EE	      C         jmp     _st0_sti_common
			      C     .ELSEIF (al >= 0d0h && al <= 0d7h)
 00002AE0  E9 0000008D	   *	    jmp    @C00D7
 00002AE5		   *@C00D4:
 00002AE5  3C D0	   *	    cmp    al, 0D0h
 00002AE7  72 2D	   *	    jb     @C00D8
 00002AE9  3C D7	   *	    cmp    al, 0D7h
 00002AEB  77 29	   *	    ja     @C00D8
			      C       ; It's FCMOVNG st0,sti
			      C         @instr_bytes    1
 00002AED  64: C7 05	     1C     mov     fs:instruction_bytes,1
	   000000EB R
	   00000001
			     1C     IF 1 EQ 1
 00002AF8  46		     1C         inc     esi
			     1C     ELSE
			     1C         add     esi,1
			     1C     ENDIF
			      C         @instr_text     fcmovng_text, 7
 00002AF9  64: C7 05	     1C     mov     fs:instruction_text_offset,offset fcmovng_text
	   000000F3 R
	   0000085E R
 00002B04  64: C7 05	     1C     mov     fs:instruction_text_length,7
	   000000EF R
	   00000007
 00002B0F  E9 FFFFF3BA	      C         jmp     _st0_sti_common
			      C     .ELSEIF (al >= 0d8h && al <= 0dFh)
 00002B14  EB 5C	   *	    jmp    @C00DB
 00002B16		   *@C00D8:
 00002B16  3C D8	   *	    cmp    al, 0D8h
 00002B18  72 2D	   *	    jb     @C00DC
 00002B1A  3C DF	   *	    cmp    al, 0DFh
 00002B1C  77 29	   *	    ja     @C00DC
			      C       ; It's FCMOVPO st0,sti
			      C         @instr_bytes    1
 00002B1E  64: C7 05	     1C     mov     fs:instruction_bytes,1
	   000000EB R
	   00000001
			     1C     IF 1 EQ 1
 00002B29  46		     1C         inc     esi
			     1C     ELSE
			     1C         add     esi,1
			     1C     ENDIF
			      C         @instr_text     fcmovpo_text, 7
 00002B2A  64: C7 05	     1C     mov     fs:instruction_text_offset,offset fcmovpo_text
	   000000F3 R
	   00000865 R
 00002B35  64: C7 05	     1C     mov     fs:instruction_text_length,7
	   000000EF R
	   00000007
 00002B40  E9 FFFFF389	      C         jmp     _st0_sti_common
			      C     .ELSEIF (al == 0e9h)
 00002B45  EB 2B	   *	    jmp    @C00DF
 00002B47		   *@C00DC:
 00002B47  3C E9	   *	    cmp    al, 0E9h
 00002B49  75 27	   *	    jne    @C00E0
			      C       ; It's FUCOMPP
			      C         @instr_bytes    1
 00002B4B  64: C7 05	     1C     mov     fs:instruction_bytes,1
	   000000EB R
	   00000001
			     1C     IF 1 EQ 1
 00002B56  46		     1C         inc     esi
			     1C     ELSE
			     1C         add     esi,1
			     1C     ENDIF
			      C         @instr_text     fucompp_text, 7
 00002B57  64: C7 05	     1C     mov     fs:instruction_text_offset,offset fucompp_text
	   000000F3 R
	   00000973 R
 00002B62  64: C7 05	     1C     mov     fs:instruction_text_length,7
	   000000EF R
	   00000007
 00002B6D  E9 0000580D	      C         jmp     store_instruction
			      C     .ENDIF
 00002B72		   *@C00E0:
 00002B72		   *@C00DF:
 00002B72		   *@C00DB:
 00002B72		   *@C00D7:
 00002B72		   *@C00D3:
 00002B72  C0 E8 03	      C     shr     al,3
 00002B75  24 07	      C     and     al,111b
			      C     .IF (al == 000b)
 00002B77  0A C0	   *	    or	al, al
 00002B79  75 3C	   *	    jne    @C00E2
			      C       ; It's FIADD m32_int
			      C         @instr_bytes    1
 00002B7B  64: C7 05	     1C     mov     fs:instruction_bytes,1
	   000000EB R
	   00000001
			     1C     IF 1 EQ 1
 00002B86  46		     1C         inc     esi
			     1C     ELSE
			     1C         add     esi,1
			     1C     ENDIF
			      C         @instr_text     fiadd_text, 5
 00002B87  64: C7 05	     1C     mov     fs:instruction_text_offset,offset fiadd_text
	   000000F3 R
	   0000097A R
 00002B92  64: C7 05	     1C     mov     fs:instruction_text_length,5
	   000000EF R
	   00000005
 00002B9D  64: C7 05	      C         mov     fs:operand_size,32
	   00000127 R
	   00000020
 00002BA8  E8 00005CEE	      C         call    extract_mod_rm
 00002BAD  E9 000057CD	      C         jmp     store_instruction
			      C     .ELSEIF (al == 001b)
 00002BB2  E9 000001B5	   *	    jmp    @C00E4
 00002BB7		   *@C00E2:
 00002BB7  3C 01	   *	    cmp    al, 001h
 00002BB9  75 3C	   *	    jne    @C00E5
			      C       ; It's FIMUL m32_int
			      C         @instr_bytes    1
 00002BBB  64: C7 05	     1C     mov     fs:instruction_bytes,1
	   000000EB R
	   00000001
			     1C     IF 1 EQ 1
 00002BC6  46		     1C         inc     esi
			     1C     ELSE
			     1C         add     esi,1
			     1C     ENDIF
			      C         @instr_text     fimul_text, 5
 00002BC7  64: C7 05	     1C     mov     fs:instruction_text_offset,offset fimul_text
	   000000F3 R
	   0000097F R
 00002BD2  64: C7 05	     1C     mov     fs:instruction_text_length,5
	   000000EF R
	   00000005
 00002BDD  64: C7 05	      C         mov     fs:operand_size,32
	   00000127 R
	   00000020
 00002BE8  E8 00005CAE	      C         call    extract_mod_rm
 00002BED  E9 0000578D	      C         jmp     store_instruction
			      C     .ELSEIF (al == 010b)
 00002BF2  E9 00000175	   *	    jmp    @C00E7
 00002BF7		   *@C00E5:
 00002BF7  3C 02	   *	    cmp    al, 002h
 00002BF9  75 3C	   *	    jne    @C00E8
			      C       ; It's FICOM m32_int
			      C         @instr_bytes    1
 00002BFB  64: C7 05	     1C     mov     fs:instruction_bytes,1
	   000000EB R
	   00000001
			     1C     IF 1 EQ 1
 00002C06  46		     1C         inc     esi
			     1C     ELSE
			     1C         add     esi,1
			     1C     ENDIF
			      C         @instr_text     ficom_text, 5
 00002C07  64: C7 05	     1C     mov     fs:instruction_text_offset,offset ficom_text
	   000000F3 R
	   00000984 R
 00002C12  64: C7 05	     1C     mov     fs:instruction_text_length,5
	   000000EF R
	   00000005
 00002C1D  64: C7 05	      C         mov     fs:operand_size,32
	   00000127 R
	   00000020
 00002C28  E8 00005C6E	      C         call    extract_mod_rm
 00002C2D  E9 0000574D	      C         jmp     store_instruction
			      C     .ELSEIF (al == 011b)
 00002C32  E9 00000135	   *	    jmp    @C00EA
 00002C37		   *@C00E8:
 00002C37  3C 03	   *	    cmp    al, 003h
 00002C39  75 3C	   *	    jne    @C00EB
			      C       ; It's FICOMP m32_int
			      C         @instr_bytes    1
 00002C3B  64: C7 05	     1C     mov     fs:instruction_bytes,1
	   000000EB R
	   00000001
			     1C     IF 1 EQ 1
 00002C46  46		     1C         inc     esi
			     1C     ELSE
			     1C         add     esi,1
			     1C     ENDIF
			      C         @instr_text     ficomp_text, 6
 00002C47  64: C7 05	     1C     mov     fs:instruction_text_offset,offset ficomp_text
	   000000F3 R
	   00000984 R
 00002C52  64: C7 05	     1C     mov     fs:instruction_text_length,6
	   000000EF R
	   00000006
 00002C5D  64: C7 05	      C         mov     fs:operand_size,32
	   00000127 R
	   00000020
 00002C68  E8 00005C2E	      C         call    extract_mod_rm
 00002C6D  E9 0000570D	      C         jmp     store_instruction
			      C     .ELSEIF (al == 100b)
 00002C72  E9 000000F5	   *	    jmp    @C00ED
 00002C77		   *@C00EB:
 00002C77  3C 04	   *	    cmp    al, 004h
 00002C79  75 3C	   *	    jne    @C00EE
			      C       ; It's FISUB m32_int
			      C         @instr_bytes    1
 00002C7B  64: C7 05	     1C     mov     fs:instruction_bytes,1
	   000000EB R
	   00000001
			     1C     IF 1 EQ 1
 00002C86  46		     1C         inc     esi
			     1C     ELSE
			     1C         add     esi,1
			     1C     ENDIF
			      C         @instr_text     fisub_text, 5
 00002C87  64: C7 05	     1C     mov     fs:instruction_text_offset,offset fisub_text
	   000000F3 R
	   0000098A R
 00002C92  64: C7 05	     1C     mov     fs:instruction_text_length,5
	   000000EF R
	   00000005
 00002C9D  64: C7 05	      C         mov     fs:operand_size,32
	   00000127 R
	   00000020
 00002CA8  E8 00005BEE	      C         call    extract_mod_rm
 00002CAD  E9 000056CD	      C         jmp     store_instruction
			      C     .ELSEIF (al == 101b)
 00002CB2  E9 000000B5	   *	    jmp    @C00F0
 00002CB7		   *@C00EE:
 00002CB7  3C 05	   *	    cmp    al, 005h
 00002CB9  75 39	   *	    jne    @C00F1
			      C       ; It's FISUBR m32_int
			      C         @instr_bytes    1
 00002CBB  64: C7 05	     1C     mov     fs:instruction_bytes,1
	   000000EB R
	   00000001
			     1C     IF 1 EQ 1
 00002CC6  46		     1C         inc     esi
			     1C     ELSE
			     1C         add     esi,1
			     1C     ENDIF
			      C         @instr_text     fisubr_text, 6
 00002CC7  64: C7 05	     1C     mov     fs:instruction_text_offset,offset fisubr_text
	   000000F3 R
	   0000098A R
 00002CD2  64: C7 05	     1C     mov     fs:instruction_text_length,6
	   000000EF R
	   00000006
 00002CDD  64: C7 05	      C         mov     fs:operand_size,32
	   00000127 R
	   00000020
 00002CE8  E8 00005BAE	      C         call    extract_mod_rm
 00002CED  E9 0000568D	      C         jmp     store_instruction
			      C     .ELSEIF (al == 110b)
 00002CF2  EB 78	   *	    jmp    @C00F3
 00002CF4		   *@C00F1:
 00002CF4  3C 06	   *	    cmp    al, 006h
 00002CF6  75 39	   *	    jne    @C00F4
			      C       ; It's FIDIV m32_int
			      C         @instr_bytes    1
 00002CF8  64: C7 05	     1C     mov     fs:instruction_bytes,1
	   000000EB R
	   00000001
			     1C     IF 1 EQ 1
 00002D03  46		     1C         inc     esi
			     1C     ELSE
			     1C         add     esi,1
			     1C     ENDIF
			      C         @instr_text     fidiv_text, 5
 00002D04  64: C7 05	     1C     mov     fs:instruction_text_offset,offset fidiv_text
	   000000F3 R
	   00000990 R
 00002D0F  64: C7 05	     1C     mov     fs:instruction_text_length,5
	   000000EF R
	   00000005
 00002D1A  64: C7 05	      C         mov     fs:operand_size,32
	   00000127 R
	   00000020
 00002D25  E8 00005B71	      C         call    extract_mod_rm
 00002D2A  E9 00005650	      C         jmp     store_instruction
			      C     .ELSEIF (al == 111b)
 00002D2F  EB 3B	   *	    jmp    @C00F6
 00002D31		   *@C00F4:
 00002D31  3C 07	   *	    cmp    al, 007h
 00002D33  75 37	   *	    jne    @C00F7
			      C       ; It's FIDIVR m32_int
			      C         @instr_bytes    1
 00002D35  64: C7 05	     1C     mov     fs:instruction_bytes,1
	   000000EB R
	   00000001
			     1C     IF 1 EQ 1
 00002D40  46		     1C         inc     esi
			     1C     ELSE
			     1C         add     esi,1
			     1C     ENDIF
			      C         @instr_text     fidivr_text, 6
 00002D41  64: C7 05	     1C     mov     fs:instruction_text_offset,offset fidivr_text
	   000000F3 R
	   00000990 R
 00002D4C  64: C7 05	     1C     mov     fs:instruction_text_length,6
	   000000EF R
	   00000006
 00002D57  64: C7 05	      C         mov     fs:operand_size,32
	   00000127 R
	   00000020
 00002D62  E8 00005B34	      C         call    extract_mod_rm
 00002D67  E9 00005613	      C         jmp     store_instruction
			      C     .ENDIF
 00002D6C		   *@C00F7:
 00002D6C		   *@C00F6:
 00002D6C		   *@C00F3:
 00002D6C		   *@C00F0:
 00002D6C		   *@C00ED:
 00002D6C		   *@C00EA:
 00002D6C		   *@C00E7:
 00002D6C		   *@C00E4:
 00002D6C  E9 000055BF	      C     jmp     _fpu_unused
			      C 
 00002D71		      C   _fpu_db:
 00002D71  8A 46 01	      C     mov     al,byte ptr ds:[esi+1]
			      C     .IF (al >= 0c0h && al <= 0c7h)
 00002D74  3C C0	   *	    cmp    al, 0C0h
 00002D76  72 30	   *	    jb     @C00F9
 00002D78  3C C7	   *	    cmp    al, 0C7h
 00002D7A  77 2C	   *	    ja     @C00F9
			      C       ; It's FCMOVNB st0,sti
			      C         @instr_bytes    1
 00002D7C  64: C7 05	     1C     mov     fs:instruction_bytes,1
	   000000EB R
	   00000001
			     1C     IF 1 EQ 1
 00002D87  46		     1C         inc     esi
			     1C     ELSE
			     1C         add     esi,1
			     1C     ENDIF
			      C         @instr_text     fcmovnb_text, 7
 00002D88  64: C7 05	     1C     mov     fs:instruction_text_offset,offset fcmovnb_text
	   000000F3 R
	   0000086C R
 00002D93  64: C7 05	     1C     mov     fs:instruction_text_length,7
	   000000EF R
	   00000007
 00002D9E  E9 FFFFF12B	      C         jmp     _st0_sti_common
			      C     .ELSEIF (al >= 0c8h && al <= 0cfh)
 00002DA3  E9 00000161	   *	    jmp    @C00FC
 00002DA8		   *@C00F9:
 00002DA8  3C C8	   *	    cmp    al, 0C8h
 00002DAA  72 30	   *	    jb     @C00FD
 00002DAC  3C CF	   *	    cmp    al, 0CFh
 00002DAE  77 2C	   *	    ja     @C00FD
			      C       ; It's FCMOVNZ st0,sti
			      C         @instr_bytes    1
 00002DB0  64: C7 05	     1C     mov     fs:instruction_bytes,1
	   000000EB R
	   00000001
			     1C     IF 1 EQ 1
 00002DBB  46		     1C         inc     esi
			     1C     ELSE
			     1C         add     esi,1
			     1C     ENDIF
			      C         @instr_text     fcmovnz_text, 7
 00002DBC  64: C7 05	     1C     mov     fs:instruction_text_offset,offset fcmovnz_text
	   000000F3 R
	   00000873 R
 00002DC7  64: C7 05	     1C     mov     fs:instruction_text_length,7
	   000000EF R
	   00000007
 00002DD2  E9 FFFFF0F7	      C         jmp     _st0_sti_common
			      C     .ELSEIF (al >= 0d0h && al <= 0d7h)
 00002DD7  E9 0000012D	   *	    jmp    @C0100
 00002DDC		   *@C00FD:
 00002DDC  3C D0	   *	    cmp    al, 0D0h
 00002DDE  72 30	   *	    jb     @C0101
 00002DE0  3C D7	   *	    cmp    al, 0D7h
 00002DE2  77 2C	   *	    ja     @C0101
			      C       ; It's FCMOVG st0,sti
			      C         @instr_bytes    1
 00002DE4  64: C7 05	     1C     mov     fs:instruction_bytes,1
	   000000EB R
	   00000001
			     1C     IF 1 EQ 1
 00002DEF  46		     1C         inc     esi
			     1C     ELSE
			     1C         add     esi,1
			     1C     ENDIF
			      C         @instr_text     fcmovg_text, 6
 00002DF0  64: C7 05	     1C     mov     fs:instruction_text_offset,offset fcmovg_text
	   000000F3 R
	   0000087A R
 00002DFB  64: C7 05	     1C     mov     fs:instruction_text_length,6
	   000000EF R
	   00000006
 00002E06  E9 FFFFF0C3	      C         jmp     _st0_sti_common
			      C     .ELSEIF (al >= 0d8h && al <= 0dfh)
 00002E0B  E9 000000F9	   *	    jmp    @C0104
 00002E10		   *@C0101:
 00002E10  3C D8	   *	    cmp    al, 0D8h
 00002E12  72 30	   *	    jb     @C0105
 00002E14  3C DF	   *	    cmp    al, 0DFh
 00002E16  77 2C	   *	    ja     @C0105
			      C       ; It's FCMOVPE st0,sti
			      C         @instr_bytes    1
 00002E18  64: C7 05	     1C     mov     fs:instruction_bytes,1
	   000000EB R
	   00000001
			     1C     IF 1 EQ 1
 00002E23  46		     1C         inc     esi
			     1C     ELSE
			     1C         add     esi,1
			     1C     ENDIF
			      C         @instr_text     fcmovpe_text, 7
 00002E24  64: C7 05	     1C     mov     fs:instruction_text_offset,offset fcmovpe_text
	   000000F3 R
	   00000880 R
 00002E2F  64: C7 05	     1C     mov     fs:instruction_text_length,7
	   000000EF R
	   00000007
 00002E3A  E9 FFFFF08F	      C         jmp     _st0_sti_common
			      C     .ELSEIF (al == 0e2h)
 00002E3F  E9 000000C5	   *	    jmp    @C0108
 00002E44		   *@C0105:
 00002E44  3C E2	   *	    cmp    al, 0E2h
 00002E46  75 2E	   *	    jne    @C0109
			      C       ; It's fnclex
			      C         @instr_bytes    2
 00002E48  64: C7 05	     1C     mov     fs:instruction_bytes,2
	   000000EB R
	   00000002
			     1C     IF 2 EQ 1
			     1C         inc     esi
			     1C     ELSE
 00002E53  83 C6 02	     1C         add     esi,2
			     1C     ENDIF
			      C         @instr_text     fnclex_text, 6
 00002E56  64: C7 05	     1C     mov     fs:instruction_text_offset,offset fnclex_text
	   000000F3 R
	   00000996 R
 00002E61  64: C7 05	     1C     mov     fs:instruction_text_length,6
	   000000EF R
	   00000006
 00002E6C  E9 0000550E	      C         jmp     store_instruction
			      C     .ELSEIF (al == 0e3h)
 00002E71  E9 00000093	   *	    jmp    @C010B
 00002E76		   *@C0109:
 00002E76  3C E3	   *	    cmp    al, 0E3h
 00002E78  75 2B	   *	    jne    @C010C
			      C       ; It's fninit
			      C         @instr_bytes    2
 00002E7A  64: C7 05	     1C     mov     fs:instruction_bytes,2
	   000000EB R
	   00000002
			     1C     IF 2 EQ 1
			     1C         inc     esi
			     1C     ELSE
 00002E85  83 C6 02	     1C         add     esi,2
			     1C     ENDIF
			      C         @instr_text     fninit_text, 6
 00002E88  64: C7 05	     1C     mov     fs:instruction_text_offset,offset fninit_text
	   000000F3 R
	   0000099C R
 00002E93  64: C7 05	     1C     mov     fs:instruction_text_length,6
	   000000EF R
	   00000006
 00002E9E  E9 000054DC	      C         jmp     store_instruction
			      C     .ELSEIF (al >= 0e8h && al <= 0efh)
 00002EA3  EB 64	   *	    jmp    @C010E
 00002EA5		   *@C010C:
 00002EA5  3C E8	   *	    cmp    al, 0E8h
 00002EA7  72 2F	   *	    jb     @C010F
 00002EA9  3C EF	   *	    cmp    al, 0EFh
 00002EAB  77 2B	   *	    ja     @C010F
			      C       ; It's FUCOMI st(0),st(i)
			      C         @instr_bytes    2
 00002EAD  64: C7 05	     1C     mov     fs:instruction_bytes,2
	   000000EB R
	   00000002
			     1C     IF 2 EQ 1
			     1C         inc     esi
			     1C     ELSE
 00002EB8  83 C6 02	     1C         add     esi,2
			     1C     ENDIF
			      C         @instr_text     fucomi_text, 6
 00002EBB  64: C7 05	     1C     mov     fs:instruction_text_offset,offset fucomi_text
	   000000F3 R
	   0000088D R
 00002EC6  64: C7 05	     1C     mov     fs:instruction_text_length,6
	   000000EF R
	   00000006
 00002ED1  E9 FFFFEFF8	      C         jmp     _st0_sti_common
			      C     .ELSEIF (al >= 0f0h && al <= 0f7h)
 00002ED6  EB 31	   *	    jmp    @C0112
 00002ED8		   *@C010F:
 00002ED8  3C F0	   *	    cmp    al, 0F0h
 00002EDA  72 2D	   *	    jb     @C0113
 00002EDC  3C F7	   *	    cmp    al, 0F7h
 00002EDE  77 29	   *	    ja     @C0113
			      C       ; It's FCOMI st(0),st(i)
			      C         @instr_bytes    2
 00002EE0  64: C7 05	     1C     mov     fs:instruction_bytes,2
	   000000EB R
	   00000002
			     1C     IF 2 EQ 1
			     1C         inc     esi
			     1C     ELSE
 00002EEB  83 C6 02	     1C         add     esi,2
			     1C     ENDIF
			      C         @instr_text     fcomi_text, 5
 00002EEE  64: C7 05	     1C     mov     fs:instruction_text_offset,offset fcomi_text
	   000000F3 R
	   00000887 R
 00002EF9  64: C7 05	     1C     mov     fs:instruction_text_length,5
	   000000EF R
	   00000005
 00002F04  E9 FFFFEFC5	      C         jmp     _st0_sti_common
			      C     .ENDIF
 00002F09		   *@C0113:
 00002F09		   *@C0112:
 00002F09		   *@C010E:
 00002F09		   *@C010B:
 00002F09		   *@C0108:
 00002F09		   *@C0104:
 00002F09		   *@C0100:
 00002F09		   *@C00FC:
 00002F09  C0 E8 03	      C     shr     al,3
 00002F0C  24 07	      C     and     al,111b
			      C     .IF (al == 000b)
 00002F0E  0A C0	   *	    or	al, al
 00002F10  75 3C	   *	    jne    @C0116
			      C       ; It's FILD m32_int
			      C         @instr_bytes    1
 00002F12  64: C7 05	     1C     mov     fs:instruction_bytes,1
	   000000EB R
	   00000001
			     1C     IF 1 EQ 1
 00002F1D  46		     1C         inc     esi
			     1C     ELSE
			     1C         add     esi,1
			     1C     ENDIF
			      C         @instr_text     fild_text, 4
 00002F1E  64: C7 05	     1C     mov     fs:instruction_text_offset,offset fild_text
	   000000F3 R
	   000009A2 R
 00002F29  64: C7 05	     1C     mov     fs:instruction_text_length,4
	   000000EF R
	   00000004
 00002F34  64: C7 05	      C         mov     fs:operand_size,32
	   00000127 R
	   00000020
 00002F3F  E8 00005957	      C         call    extract_mod_rm
 00002F44  E9 00005436	      C         jmp     store_instruction
			      C     .ELSEIF (al == 010b)
 00002F49  E9 000000F5	   *	    jmp    @C0118
 00002F4E		   *@C0116:
 00002F4E  3C 02	   *	    cmp    al, 002h
 00002F50  75 3C	   *	    jne    @C0119
			      C       ; It's FIST m32_int
			      C         @instr_bytes    1
 00002F52  64: C7 05	     1C     mov     fs:instruction_bytes,1
	   000000EB R
	   00000001
			     1C     IF 1 EQ 1
 00002F5D  46		     1C         inc     esi
			     1C     ELSE
			     1C         add     esi,1
			     1C     ENDIF
			      C         @instr_text     fist_text, 4
 00002F5E  64: C7 05	     1C     mov     fs:instruction_text_offset,offset fist_text
	   000000F3 R
	   000009A6 R
 00002F69  64: C7 05	     1C     mov     fs:instruction_text_length,4
	   000000EF R
	   00000004
 00002F74  64: C7 05	      C         mov     fs:operand_size,32
	   00000127 R
	   00000020
 00002F7F  E8 00005917	      C         call    extract_mod_rm
 00002F84  E9 000053F6	      C         jmp     store_instruction
			      C     .ELSEIF (al == 011b)
 00002F89  E9 000000B5	   *	    jmp    @C011B
 00002F8E		   *@C0119:
 00002F8E  3C 03	   *	    cmp    al, 003h
 00002F90  75 39	   *	    jne    @C011C
			      C       ; It's FISTP m32_int
			      C         @instr_bytes    1
 00002F92  64: C7 05	     1C     mov     fs:instruction_bytes,1
	   000000EB R
	   00000001
			     1C     IF 1 EQ 1
 00002F9D  46		     1C         inc     esi
			     1C     ELSE
			     1C         add     esi,1
			     1C     ENDIF
			      C         @instr_text     fistp_text, 5
 00002F9E  64: C7 05	     1C     mov     fs:instruction_text_offset,offset fistp_text
	   000000F3 R
	   000009A6 R
 00002FA9  64: C7 05	     1C     mov     fs:instruction_text_length,5
	   000000EF R
	   00000005
 00002FB4  64: C7 05	      C         mov     fs:operand_size,32
	   00000127 R
	   00000020
 00002FBF  E8 000058D7	      C         call    extract_mod_rm
 00002FC4  E9 000053B6	      C         jmp     store_instruction
			      C     .ELSEIF (al == 101b)
 00002FC9  EB 78	   *	    jmp    @C011E
 00002FCB		   *@C011C:
 00002FCB  3C 05	   *	    cmp    al, 005h
 00002FCD  75 39	   *	    jne    @C011F
			      C       ; It's FLD real10
			      C         @instr_bytes    1
 00002FCF  64: C7 05	     1C     mov     fs:instruction_bytes,1
	   000000EB R
	   00000001
			     1C     IF 1 EQ 1
 00002FDA  46		     1C         inc     esi
			     1C     ELSE
			     1C         add     esi,1
			     1C     ENDIF
			      C         @instr_text     fld_text, 3
 00002FDB  64: C7 05	     1C     mov     fs:instruction_text_offset,offset fld_text
	   000000F3 R
	   000008C2 R
 00002FE6  64: C7 05	     1C     mov     fs:instruction_text_length,3
	   000000EF R
	   00000003
 00002FF1  64: C7 05	      C         mov     fs:operand_size,80
	   00000127 R
	   00000050
 00002FFC  E8 0000589A	      C         call    extract_mod_rm
 00003001  E9 00005379	      C         jmp     store_instruction
			      C     .ELSEIF (al == 111b)
 00003006  EB 3B	   *	    jmp    @C0121
 00003008		   *@C011F:
 00003008  3C 07	   *	    cmp    al, 007h
 0000300A  75 37	   *	    jne    @C0122
			      C       ; It's FSTP real10
			      C         @instr_bytes    1
 0000300C  64: C7 05	     1C     mov     fs:instruction_bytes,1
	   000000EB R
	   00000001
			     1C     IF 1 EQ 1
 00003017  46		     1C         inc     esi
			     1C     ELSE
			     1C         add     esi,1
			     1C     ENDIF
			      C         @instr_text     fstp_text, 4
 00003018  64: C7 05	     1C     mov     fs:instruction_text_offset,offset fstp_text
	   000000F3 R
	   000008C7 R
 00003023  64: C7 05	     1C     mov     fs:instruction_text_length,4
	   000000EF R
	   00000004
 0000302E  64: C7 05	      C         mov     fs:operand_size,80
	   00000127 R
	   00000050
 00003039  E8 0000585D	      C         call    extract_mod_rm
 0000303E  E9 0000533C	      C         jmp     store_instruction
			      C     .ENDIF
 00003043		   *@C0122:
 00003043		   *@C0121:
 00003043		   *@C011E:
 00003043		   *@C011B:
 00003043		   *@C0118:
 00003043  E9 000052E8	      C     jmp     _fpu_unused
			      C 
 00003048		      C   _fpu_dc:
 00003048  8A 46 01	      C     mov     al,byte ptr ds:[esi+1]
			      C     .IF (al >= 0c0h && al <= 0c7h)
 0000304B  3C C0	   *	    cmp    al, 0C0h
 0000304D  72 67	   *	    jb     @C0124
 0000304F  3C C7	   *	    cmp    al, 0C7h
 00003051  77 63	   *	    ja     @C0124
			      C       ; It's FADD st(i),st(0)
			      C         @instr_bytes    2
 00003053  64: C7 05	     1C     mov     fs:instruction_bytes,2
	   000000EB R
	   00000002
			     1C     IF 2 EQ 1
			     1C         inc     esi
			     1C     ELSE
 0000305E  83 C6 02	     1C         add     esi,2
			     1C     ENDIF
			      C         @instr_text     fadd_text, 4
 00003061  64: C7 05	     1C     mov     fs:instruction_text_offset,offset fadd_text
	   000000F3 R
	   00000897 R
 0000306C  64: C7 05	     1C     mov     fs:instruction_text_length,4
	   000000EF R
	   00000004
 00003077		      C       _sti_st0_common:
 00003077  E8 000054CC	      C         call    start_offsets
 0000307C  64: C7 05	      C         mov     fs:operand_size,80
	   00000127 R
	   00000050
 00003087  64: C7 05	      C         mov     fs:special_reg,_STx_REGS
	   000000AF R
	   00000005
 00003092  24 07	      C         and     al,111b
 00003094  8A D8	      C         mov     bl,al
 00003096  E8 000058A7	      C         call    store_gp_register
 0000309B  E8 000067EF	      C         call    store_comma
 000030A0  32 DB	      C         xor     bl,bl
 000030A2  E8 0000589B	      C         call    store_gp_register
 000030A7  E8 000054B2	      C         call    end_offsets
 000030AC  E9 000052CE	      C         jmp     store_instruction
			      C     .ELSEIF (al >= 0c8h && al <= 0cfh)
 000030B1  E9 000000FC	   *	    jmp    @C0127
 000030B6		   *@C0124:
 000030B6  3C C8	   *	    cmp    al, 0C8h
 000030B8  72 2F	   *	    jb     @C0128
 000030BA  3C CF	   *	    cmp    al, 0CFh
 000030BC  77 2B	   *	    ja     @C0128
			      C       ; It's FMUL st(i),st(0)
			      C         @instr_bytes    2
 000030BE  64: C7 05	     1C     mov     fs:instruction_bytes,2
	   000000EB R
	   00000002
			     1C     IF 2 EQ 1
			     1C         inc     esi
			     1C     ELSE
 000030C9  83 C6 02	     1C         add     esi,2
			     1C     ENDIF
			      C         @instr_text     fmul_text, 4
 000030CC  64: C7 05	     1C     mov     fs:instruction_text_offset,offset fmul_text
	   000000F3 R
	   0000089C R
 000030D7  64: C7 05	     1C     mov     fs:instruction_text_length,4
	   000000EF R
	   00000004
 000030E2  EB 93	      C         jmp     _sti_st0_common
			      C     .ELSEIF (al >= 0e0h && al <= 0e7h)
 000030E4  E9 000000C9	   *	    jmp    @C012B
 000030E9		   *@C0128:
 000030E9  3C E0	   *	    cmp    al, 0E0h
 000030EB  72 32	   *	    jb     @C012C
 000030ED  3C E7	   *	    cmp    al, 0E7h
 000030EF  77 2E	   *	    ja     @C012C
			      C       ; It's FSUBR st(i),st(0)
			      C         @instr_bytes    2
 000030F1  64: C7 05	     1C     mov     fs:instruction_bytes,2
	   000000EB R
	   00000002
			     1C     IF 2 EQ 1
			     1C         inc     esi
			     1C     ELSE
 000030FC  83 C6 02	     1C         add     esi,2
			     1C     ENDIF
			      C         @instr_text     fsubr_text, 5
 000030FF  64: C7 05	     1C     mov     fs:instruction_text_offset,offset fsubr_text
	   000000F3 R
	   000008A7 R
 0000310A  64: C7 05	     1C     mov     fs:instruction_text_length,5
	   000000EF R
	   00000005
 00003115  E9 FFFFFF5D	      C         jmp     _sti_st0_common
			      C     .ELSEIF (al >= 0e8h && al <= 0efh)
 0000311A  E9 00000093	   *	    jmp    @C012F
 0000311F		   *@C012C:
 0000311F  3C E8	   *	    cmp    al, 0E8h
 00003121  72 2F	   *	    jb     @C0130
 00003123  3C EF	   *	    cmp    al, 0EFh
 00003125  77 2B	   *	    ja     @C0130
			      C       ; It's FSUB st(i),st(0)
			      C         @instr_bytes    2
 00003127  64: C7 05	     1C     mov     fs:instruction_bytes,2
	   000000EB R
	   00000002
			     1C     IF 2 EQ 1
			     1C         inc     esi
			     1C     ELSE
 00003132  83 C6 02	     1C         add     esi,2
			     1C     ENDIF
			      C         @instr_text     fsub_text, 4
 00003135  64: C7 05	     1C     mov     fs:instruction_text_offset,offset fsub_text
	   000000F3 R
	   000008A7 R
 00003140  64: C7 05	     1C     mov     fs:instruction_text_length,4
	   000000EF R
	   00000004
 0000314B  E9 FFFFFF27	      C         jmp     _sti_st0_common
			      C     .ELSEIF (al >= 0f0h && al <= 0f7h)
 00003150  EB 60	   *	    jmp    @C0133
 00003152		   *@C0130:
 00003152  3C F0	   *	    cmp    al, 0F0h
 00003154  72 2D	   *	    jb     @C0134
 00003156  3C F7	   *	    cmp    al, 0F7h
 00003158  77 29	   *	    ja     @C0134
			      C       ; It's FDIVR st(i),st(0)
			      C         @instr_bytes    1
 0000315A  64: C7 05	     1C     mov     fs:instruction_bytes,1
	   000000EB R
	   00000001
			     1C     IF 1 EQ 1
 00003165  46		     1C         inc     esi
			     1C     ELSE
			     1C         add     esi,1
			     1C     ENDIF
			      C         @instr_text     fdivr_text, 5
 00003166  64: C7 05	     1C     mov     fs:instruction_text_offset,offset fdivr_text
	   000000F3 R
	   000008B2 R
 00003171  64: C7 05	     1C     mov     fs:instruction_text_length,5
	   000000EF R
	   00000005
 0000317C  E9 FFFFFEF6	      C         jmp     _sti_st0_common
			      C     .ELSEIF (al >= 0f8h && al <= 0ffh)
 00003181  EB 2F	   *	    jmp    @C0137
 00003183		   *@C0134:
 00003183  3C F8	   *	    cmp    al, 0F8h
 00003185  72 2B	   *	    jb     @C0138
 00003187  3C FF	   *	    cmp    al, 0FFh
 00003189  77 27	   *	    ja     @C0138
			      C       ; It's FDIV st(i),st(0)
			      C         @instr_bytes    1
 0000318B  64: C7 05	     1C     mov     fs:instruction_bytes,1
	   000000EB R
	   00000001
			     1C     IF 1 EQ 1
 00003196  46		     1C         inc     esi
			     1C     ELSE
			     1C         add     esi,1
			     1C     ENDIF
			      C         @instr_text     fdiv_text, 4
 00003197  64: C7 05	     1C     mov     fs:instruction_text_offset,offset fdiv_text
	   000000F3 R
	   000008B2 R
 000031A2  64: C7 05	     1C     mov     fs:instruction_text_length,4
	   000000EF R
	   00000004
 000031AD  E9 FFFFFEC5	      C         jmp     _sti_st0_common
			      C     .ENDIF
 000031B2		   *@C0138:
 000031B2		   *@C0137:
 000031B2		   *@C0133:
 000031B2		   *@C012F:
 000031B2		   *@C012B:
 000031B2		   *@C0127:
 000031B2  C0 E8 03	      C     shr     al,3
 000031B5  24 07	      C     and     al,111b
			      C     .IF (al == 000b)
 000031B7  0A C0	   *	    or	al, al
 000031B9  75 3C	   *	    jne    @C013B
			      C       ; It's FADD real8
			      C         @instr_bytes    1
 000031BB  64: C7 05	     1C     mov     fs:instruction_bytes,1
	   000000EB R
	   00000001
			     1C     IF 1 EQ 1
 000031C6  46		     1C         inc     esi
			     1C     ELSE
			     1C         add     esi,1
			     1C     ENDIF
			      C         @instr_text     fadd_text, 4
 000031C7  64: C7 05	     1C     mov     fs:instruction_text_offset,offset fadd_text
	   000000F3 R
	   00000897 R
 000031D2  64: C7 05	     1C     mov     fs:instruction_text_length,4
	   000000EF R
	   00000004
 000031DD  64: C7 05	      C         mov     fs:operand_size,64
	   00000127 R
	   00000040
 000031E8  E8 000056AE	      C         call    extract_mod_rm
 000031ED  E9 0000518D	      C         jmp     store_instruction
			      C     .ELSEIF (al == 001b)
 000031F2  E9 000001B5	   *	    jmp    @C013D
 000031F7		   *@C013B:
 000031F7  3C 01	   *	    cmp    al, 001h
 000031F9  75 3C	   *	    jne    @C013E
			      C       ; It's FMUL real8
			      C         @instr_bytes    1
 000031FB  64: C7 05	     1C     mov     fs:instruction_bytes,1
	   000000EB R
	   00000001
			     1C     IF 1 EQ 1
 00003206  46		     1C         inc     esi
			     1C     ELSE
			     1C         add     esi,1
			     1C     ENDIF
			      C         @instr_text     fmul_text, 4
 00003207  64: C7 05	     1C     mov     fs:instruction_text_offset,offset fmul_text
	   000000F3 R
	   0000089C R
 00003212  64: C7 05	     1C     mov     fs:instruction_text_length,4
	   000000EF R
	   00000004
 0000321D  64: C7 05	      C         mov     fs:operand_size,64
	   00000127 R
	   00000040
 00003228  E8 0000566E	      C         call    extract_mod_rm
 0000322D  E9 0000514D	      C         jmp     store_instruction
			      C     .ELSEIF (al == 010b)
 00003232  E9 00000175	   *	    jmp    @C0140
 00003237		   *@C013E:
 00003237  3C 02	   *	    cmp    al, 002h
 00003239  75 3C	   *	    jne    @C0141
			      C       ; It's FCOM real8
			      C         @instr_bytes    1
 0000323B  64: C7 05	     1C     mov     fs:instruction_bytes,1
	   000000EB R
	   00000001
			     1C     IF 1 EQ 1
 00003246  46		     1C         inc     esi
			     1C     ELSE
			     1C         add     esi,1
			     1C     ENDIF
			      C         @instr_text     fcom_text, 4
 00003247  64: C7 05	     1C     mov     fs:instruction_text_offset,offset fcom_text
	   000000F3 R
	   000008A1 R
 00003252  64: C7 05	     1C     mov     fs:instruction_text_length,4
	   000000EF R
	   00000004
 0000325D  64: C7 05	      C         mov     fs:operand_size,64
	   00000127 R
	   00000040
 00003268  E8 0000562E	      C         call    extract_mod_rm
 0000326D  E9 0000510D	      C         jmp     store_instruction
			      C     .ELSEIF (al == 011b)
 00003272  E9 00000135	   *	    jmp    @C0143
 00003277		   *@C0141:
 00003277  3C 03	   *	    cmp    al, 003h
 00003279  75 3C	   *	    jne    @C0144
			      C       ; It's FCOMP real8
			      C         @instr_bytes    1
 0000327B  64: C7 05	     1C     mov     fs:instruction_bytes,1
	   000000EB R
	   00000001
			     1C     IF 1 EQ 1
 00003286  46		     1C         inc     esi
			     1C     ELSE
			     1C         add     esi,1
			     1C     ENDIF
			      C         @instr_text     fcomp_text, 5
 00003287  64: C7 05	     1C     mov     fs:instruction_text_offset,offset fcomp_text
	   000000F3 R
	   000008A1 R
 00003292  64: C7 05	     1C     mov     fs:instruction_text_length,5
	   000000EF R
	   00000005
 0000329D  64: C7 05	      C         mov     fs:operand_size,64
	   00000127 R
	   00000040
 000032A8  E8 000055EE	      C         call    extract_mod_rm
 000032AD  E9 000050CD	      C         jmp     store_instruction
			      C     .ELSEIF (al == 100b)
 000032B2  E9 000000F5	   *	    jmp    @C0146
 000032B7		   *@C0144:
 000032B7  3C 04	   *	    cmp    al, 004h
 000032B9  75 3C	   *	    jne    @C0147
			      C       ; It's FSUB real8
			      C         @instr_bytes    1
 000032BB  64: C7 05	     1C     mov     fs:instruction_bytes,1
	   000000EB R
	   00000001
			     1C     IF 1 EQ 1
 000032C6  46		     1C         inc     esi
			     1C     ELSE
			     1C         add     esi,1
			     1C     ENDIF
			      C         @instr_text     fsub_text, 4
 000032C7  64: C7 05	     1C     mov     fs:instruction_text_offset,offset fsub_text
	   000000F3 R
	   000008A7 R
 000032D2  64: C7 05	     1C     mov     fs:instruction_text_length,4
	   000000EF R
	   00000004
 000032DD  64: C7 05	      C         mov     fs:operand_size,64
	   00000127 R
	   00000040
 000032E8  E8 000055AE	      C         call    extract_mod_rm
 000032ED  E9 0000508D	      C         jmp     store_instruction
			      C     .ELSEIF (al == 101b)
 000032F2  E9 000000B5	   *	    jmp    @C0149
 000032F7		   *@C0147:
 000032F7  3C 05	   *	    cmp    al, 005h
 000032F9  75 39	   *	    jne    @C014A
			      C       ; It's FSUBR real8
			      C         @instr_bytes    1
 000032FB  64: C7 05	     1C     mov     fs:instruction_bytes,1
	   000000EB R
	   00000001
			     1C     IF 1 EQ 1
 00003306  46		     1C         inc     esi
			     1C     ELSE
			     1C         add     esi,1
			     1C     ENDIF
			      C         @instr_text     fsubr_text, 5
 00003307  64: C7 05	     1C     mov     fs:instruction_text_offset,offset fsubr_text
	   000000F3 R
	   000008A7 R
 00003312  64: C7 05	     1C     mov     fs:instruction_text_length,5
	   000000EF R
	   00000005
 0000331D  64: C7 05	      C         mov     fs:operand_size,64
	   00000127 R
	   00000040
 00003328  E8 0000556E	      C         call    extract_mod_rm
 0000332D  E9 0000504D	      C         jmp     store_instruction
			      C     .ELSEIF (al == 110b)
 00003332  EB 78	   *	    jmp    @C014C
 00003334		   *@C014A:
 00003334  3C 06	   *	    cmp    al, 006h
 00003336  75 39	   *	    jne    @C014D
			      C       ; It's FDIV real8
			      C         @instr_bytes    1
 00003338  64: C7 05	     1C     mov     fs:instruction_bytes,1
	   000000EB R
	   00000001
			     1C     IF 1 EQ 1
 00003343  46		     1C         inc     esi
			     1C     ELSE
			     1C         add     esi,1
			     1C     ENDIF
			      C         @instr_text     fdiv_text, 4
 00003344  64: C7 05	     1C     mov     fs:instruction_text_offset,offset fdiv_text
	   000000F3 R
	   000008B2 R
 0000334F  64: C7 05	     1C     mov     fs:instruction_text_length,4
	   000000EF R
	   00000004
 0000335A  64: C7 05	      C         mov     fs:operand_size,64
	   00000127 R
	   00000040
 00003365  E8 00005531	      C         call    extract_mod_rm
 0000336A  E9 00005010	      C         jmp     store_instruction
			      C     .ELSEIF (al == 111b)
 0000336F  EB 3B	   *	    jmp    @C014F
 00003371		   *@C014D:
 00003371  3C 07	   *	    cmp    al, 007h
 00003373  75 37	   *	    jne    @C0150
			      C       ; It's FDIVR real8
			      C         @instr_bytes    1
 00003375  64: C7 05	     1C     mov     fs:instruction_bytes,1
	   000000EB R
	   00000001
			     1C     IF 1 EQ 1
 00003380  46		     1C         inc     esi
			     1C     ELSE
			     1C         add     esi,1
			     1C     ENDIF
			      C         @instr_text     fdivr_text, 5
 00003381  64: C7 05	     1C     mov     fs:instruction_text_offset,offset fdivr_text
	   000000F3 R
	   000008B2 R
 0000338C  64: C7 05	     1C     mov     fs:instruction_text_length,5
	   000000EF R
	   00000005
 00003397  64: C7 05	      C         mov     fs:operand_size,64
	   00000127 R
	   00000040
 000033A2  E8 000054F4	      C         call    extract_mod_rm
 000033A7  E9 00004FD3	      C         jmp     store_instruction
			      C     .ENDIF
 000033AC		   *@C0150:
 000033AC		   *@C014F:
 000033AC		   *@C014C:
 000033AC		   *@C0149:
 000033AC		   *@C0146:
 000033AC		   *@C0143:
 000033AC		   *@C0140:
 000033AC		   *@C013D:
 000033AC  E9 00004F7F	      C     jmp     _fpu_unused
			      C 
 000033B1		      C   _fpu_dd:
 000033B1  8A 46 01	      C     mov     al,byte ptr ds:[esi+1]
			      C     .IF (al >= 0c0h && al <= 0c7h)
 000033B4  3C C0	   *	    cmp    al, 0C0h
 000033B6  72 4E	   *	    jb     @C0152
 000033B8  3C C7	   *	    cmp    al, 0C7h
 000033BA  77 4A	   *	    ja     @C0152
			      C       ; It's FFREE st(i)
			      C         @instr_bytes    1
 000033BC  64: C7 05	     1C     mov     fs:instruction_bytes,1
	   000000EB R
	   00000001
			     1C     IF 1 EQ 1
 000033C7  46		     1C         inc     esi
			     1C     ELSE
			     1C         add     esi,1
			     1C     ENDIF
			      C         @instr_text     ffree_text, 5
 000033C8  64: C7 05	     1C     mov     fs:instruction_text_offset,offset ffree_text
	   000000F3 R
	   000009AB R
 000033D3  64: C7 05	     1C     mov     fs:instruction_text_length,5
	   000000EF R
	   00000005
 000033DE		      C       _sti_common:
 000033DE  E8 00005165	      C         call    start_offsets
 000033E3  64: C7 05	      C         mov     fs:special_reg,_STx_REGS
	   000000AF R
	   00000005
 000033EE  24 07	      C         and     al,111b
 000033F0  8A D8	      C         mov     bl,al
 000033F2  E8 0000554B	      C         call    store_gp_register
 000033F7  E8 00005162	      C         call    end_offsets
 000033FC  E9 00004F7E	      C         jmp     store_instruction
			      C     .ELSEIF (al >= 0d0h && al <= 0d7h)
 00003401  E9 000000F2	   *	    jmp    @C0155
 00003406		   *@C0152:
 00003406  3C D0	   *	    cmp    al, 0D0h
 00003408  72 2D	   *	    jb     @C0156
 0000340A  3C D7	   *	    cmp    al, 0D7h
 0000340C  77 29	   *	    ja     @C0156
			      C       ; It's FST st(i)
			      C         @instr_bytes    1
 0000340E  64: C7 05	     1C     mov     fs:instruction_bytes,1
	   000000EB R
	   00000001
			     1C     IF 1 EQ 1
 00003419  46		     1C         inc     esi
			     1C     ELSE
			     1C         add     esi,1
			     1C     ENDIF
			      C         @instr_text     fst_text, 3
 0000341A  64: C7 05	     1C     mov     fs:instruction_text_offset,offset fst_text
	   000000F3 R
	   000008C7 R
 00003425  64: C7 05	     1C     mov     fs:instruction_text_length,3
	   000000EF R
	   00000003
 00003430  EB AC	      C         jmp     _sti_common
			      C     .ELSEIF (al >= 0d8h && al <= 0dfh)
 00003432  E9 000000C1	   *	    jmp    @C0159
 00003437		   *@C0156:
 00003437  3C D8	   *	    cmp    al, 0D8h
 00003439  72 30	   *	    jb     @C015A
 0000343B  3C DF	   *	    cmp    al, 0DFh
 0000343D  77 2C	   *	    ja     @C015A
			      C       ; It's FSTP st(i)
			      C         @instr_bytes    1
 0000343F  64: C7 05	     1C     mov     fs:instruction_bytes,1
	   000000EB R
	   00000001
			     1C     IF 1 EQ 1
 0000344A  46		     1C         inc     esi
			     1C     ELSE
			     1C         add     esi,1
			     1C     ENDIF
			      C         @instr_text     fstp_text, 4
 0000344B  64: C7 05	     1C     mov     fs:instruction_text_offset,offset fstp_text
	   000000F3 R
	   000008C7 R
 00003456  64: C7 05	     1C     mov     fs:instruction_text_length,4
	   000000EF R
	   00000004
 00003461  E9 FFFFFF78	      C         jmp     _sti_common
			      C     .ELSEIF (al >= 0e0h && al <= 0e7h)
 00003466  E9 0000008D	   *	    jmp    @C015D
 0000346B		   *@C015A:
 0000346B  3C E0	   *	    cmp    al, 0E0h
 0000346D  72 2D	   *	    jb     @C015E
 0000346F  3C E7	   *	    cmp    al, 0E7h
 00003471  77 29	   *	    ja     @C015E
			      C       ; It's FUCOM st(i)
			      C         @instr_bytes    1
 00003473  64: C7 05	     1C     mov     fs:instruction_bytes,1
	   000000EB R
	   00000001
			     1C     IF 1 EQ 1
 0000347E  46		     1C         inc     esi
			     1C     ELSE
			     1C         add     esi,1
			     1C     ENDIF
			      C         @instr_text     fucom_text, 5
 0000347F  64: C7 05	     1C     mov     fs:instruction_text_offset,offset fucom_text
	   000000F3 R
	   00000973 R
 0000348A  64: C7 05	     1C     mov     fs:instruction_text_length,5
	   000000EF R
	   00000005
 00003495  E9 FFFFFF44	      C         jmp     _sti_common
			      C     .ELSEIF (al >= 0e8h && al <= 0efh)
 0000349A  EB 5C	   *	    jmp    @C0161
 0000349C		   *@C015E:
 0000349C  3C E8	   *	    cmp    al, 0E8h
 0000349E  72 2D	   *	    jb     @C0162
 000034A0  3C EF	   *	    cmp    al, 0EFh
 000034A2  77 29	   *	    ja     @C0162
			      C       ; It's FUCOMP st(i)
			      C         @instr_bytes    1
 000034A4  64: C7 05	     1C     mov     fs:instruction_bytes,1
	   000000EB R
	   00000001
			     1C     IF 1 EQ 1
 000034AF  46		     1C         inc     esi
			     1C     ELSE
			     1C         add     esi,1
			     1C     ENDIF
			      C         @instr_text     fucomp_text, 6
 000034B0  64: C7 05	     1C     mov     fs:instruction_text_offset,offset fucomp_text
	   000000F3 R
	   00000973 R
 000034BB  64: C7 05	     1C     mov     fs:instruction_text_length,6
	   000000EF R
	   00000006
 000034C6  E9 FFFFFF13	      C         jmp     _sti_common
			      C     .ELSEIF (al == 0e9h)
 000034CB  EB 2B	   *	    jmp    @C0165
 000034CD		   *@C0162:
 000034CD  3C E9	   *	    cmp    al, 0E9h
 000034CF  75 27	   *	    jne    @C0166
			      C       ; It's FUCOMPP
			      C         @instr_bytes    1
 000034D1  64: C7 05	     1C     mov     fs:instruction_bytes,1
	   000000EB R
	   00000001
			     1C     IF 1 EQ 1
 000034DC  46		     1C         inc     esi
			     1C     ELSE
			     1C         add     esi,1
			     1C     ENDIF
			      C         @instr_text     fucompp_text, 7
 000034DD  64: C7 05	     1C     mov     fs:instruction_text_offset,offset fucompp_text
	   000000F3 R
	   00000973 R
 000034E8  64: C7 05	     1C     mov     fs:instruction_text_length,7
	   000000EF R
	   00000007
 000034F3  E9 00004E87	      C         jmp     store_instruction
			      C     .ENDIF
 000034F8		   *@C0166:
 000034F8		   *@C0165:
 000034F8		   *@C0161:
 000034F8		   *@C015D:
 000034F8		   *@C0159:
 000034F8		   *@C0155:
 000034F8  C0 E8 03	      C     shr     al,3
 000034FB  24 07	      C     and     al,111b
			      C     .IF (al == 000b)
 000034FD  0A C0	   *	    or	al, al
 000034FF  75 3C	   *	    jne    @C0168
			      C       ; It's FLD real8
			      C         @instr_bytes    1
 00003501  64: C7 05	     1C     mov     fs:instruction_bytes,1
	   000000EB R
	   00000001
			     1C     IF 1 EQ 1
 0000350C  46		     1C         inc     esi
			     1C     ELSE
			     1C         add     esi,1
			     1C     ENDIF
			      C         @instr_text     fld_text, 3
 0000350D  64: C7 05	     1C     mov     fs:instruction_text_offset,offset fld_text
	   000000F3 R
	   000008C2 R
 00003518  64: C7 05	     1C     mov     fs:instruction_text_length,3
	   000000EF R
	   00000003
 00003523  64: C7 05	      C         mov     fs:operand_size,64
	   00000127 R
	   00000040
 0000352E  E8 00005368	      C         call    extract_mod_rm
 00003533  E9 00004E47	      C         jmp     store_instruction
			      C     .ELSEIF (al == 010b)
 00003538  E9 000001A2	   *	    jmp    @C016A
 0000353D		   *@C0168:
 0000353D  3C 02	   *	    cmp    al, 002h
 0000353F  75 3C	   *	    jne    @C016B
			      C       ; It's FST real8
			      C         @instr_bytes    1
 00003541  64: C7 05	     1C     mov     fs:instruction_bytes,1
	   000000EB R
	   00000001
			     1C     IF 1 EQ 1
 0000354C  46		     1C         inc     esi
			     1C     ELSE
			     1C         add     esi,1
			     1C     ENDIF
			      C         @instr_text     fst_text, 3
 0000354D  64: C7 05	     1C     mov     fs:instruction_text_offset,offset fst_text
	   000000F3 R
	   000008C7 R
 00003558  64: C7 05	     1C     mov     fs:instruction_text_length,3
	   000000EF R
	   00000003
 00003563  64: C7 05	      C         mov     fs:operand_size,64
	   00000127 R
	   00000040
 0000356E  E8 00005328	      C         call    extract_mod_rm
 00003573  E9 00004E07	      C         jmp     store_instruction
			      C     .ELSEIF (al == 011b)
 00003578  E9 00000162	   *	    jmp    @C016D
 0000357D		   *@C016B:
 0000357D  3C 03	   *	    cmp    al, 003h
 0000357F  75 3C	   *	    jne    @C016E
			      C       ; It's FSTP real8
			      C         @instr_bytes    1
 00003581  64: C7 05	     1C     mov     fs:instruction_bytes,1
	   000000EB R
	   00000001
			     1C     IF 1 EQ 1
 0000358C  46		     1C         inc     esi
			     1C     ELSE
			     1C         add     esi,1
			     1C     ENDIF
			      C         @instr_text     fstp_text, 4
 0000358D  64: C7 05	     1C     mov     fs:instruction_text_offset,offset fstp_text
	   000000F3 R
	   000008C7 R
 00003598  64: C7 05	     1C     mov     fs:instruction_text_length,4
	   000000EF R
	   00000004
 000035A3  64: C7 05	      C         mov     fs:operand_size,64
	   00000127 R
	   00000040
 000035AE  E8 000052E8	      C         call    extract_mod_rm
 000035B3  E9 00004DC7	      C         jmp     store_instruction
			      C     .ELSEIF (al == 100b)
 000035B8  E9 00000122	   *	    jmp    @C0170
 000035BD		   *@C016E:
 000035BD  3C 04	   *	    cmp    al, 004h
 000035BF  75 71	   *	    jne    @C0171
			      C       ; It's FRSTOR m94/108
			      C         @instr_bytes    1
 000035C1  64: C7 05	     1C     mov     fs:instruction_bytes,1
	   000000EB R
	   00000001
			     1C     IF 1 EQ 1
 000035CC  46		     1C         inc     esi
			     1C     ELSE
			     1C         add     esi,1
			     1C     ENDIF
			      C         @instr_text     frstor_text, 6
 000035CD  64: C7 05	     1C     mov     fs:instruction_text_offset,offset frstor_text
	   000000F3 R
	   000009B0 R
 000035D8  64: C7 05	     1C     mov     fs:instruction_text_length,6
	   000000EF R
	   00000006
			      C         .IF ((fs:cpu_mode == 0 && fs:op_size_override != 0) || (fs:cpu_mode != 0 && fs:op_size_override == 0))
 000035E3  64: 83 3D
	   0000009B R 00   *	    cmp    fs : cpu_mode, 000h
 000035EB  75 0A	   *	    jne    @C0175
 000035ED  64: 83 3D
	   000000BF R 00   *	    cmp    fs : op_size_override, 000h
 000035F5  75 14	   *	    jne    @C0174
 000035F7		   *@C0175:
 000035F7  64: 83 3D
	   0000009B R 00   *	    cmp    fs : cpu_mode, 000h
 000035FF  74 17	   *	    je     @C0173
 00003601  64: 83 3D
	   000000BF R 00   *	    cmp    fs : op_size_override, 000h
 00003609  75 0D	   *	    jne    @C0173
 0000360B		   *@C0174:
 0000360B  64: C7 05	      C             mov     fs:operand_size,94
	   00000127 R
	   0000005E
			      C         .ELSE
 00003616  EB 0B	   *	    jmp    @C0178
 00003618		   *@C0173:
 00003618  64: C7 05	      C             mov     fs:operand_size,108
	   00000127 R
	   0000006C
			      C         .ENDIF
 00003623		   *@C0178:
 00003623  E8 00005273	      C         call    extract_mod_rm
 00003628  E9 00004D52	      C         jmp     store_instruction
			      C     .ELSEIF (al == 110b)
 0000362D  E9 000000AD	   *	    jmp    @C0179
 00003632		   *@C0171:
 00003632  3C 06	   *	    cmp    al, 006h
 00003634  75 6E	   *	    jne    @C017A
			      C       ; It's FNSAVE
			      C         @instr_bytes    1
 00003636  64: C7 05	     1C     mov     fs:instruction_bytes,1
	   000000EB R
	   00000001
			     1C     IF 1 EQ 1
 00003641  46		     1C         inc     esi
			     1C     ELSE
			     1C         add     esi,1
			     1C     ENDIF
			      C         @instr_text     fnsave_text, 6
 00003642  64: C7 05	     1C     mov     fs:instruction_text_offset,offset fnsave_text
	   000000F3 R
	   000009C5 R
 0000364D  64: C7 05	     1C     mov     fs:instruction_text_length,6
	   000000EF R
	   00000006
			      C         .IF ((fs:cpu_mode == 0 && fs:op_size_override != 0) || (fs:cpu_mode != 0 && fs:op_size_override == 0))
 00003658  64: 83 3D
	   0000009B R 00   *	    cmp    fs : cpu_mode, 000h
 00003660  75 0A	   *	    jne    @C017E
 00003662  64: 83 3D
	   000000BF R 00   *	    cmp    fs : op_size_override, 000h
 0000366A  75 14	   *	    jne    @C017D
 0000366C		   *@C017E:
 0000366C  64: 83 3D
	   0000009B R 00   *	    cmp    fs : cpu_mode, 000h
 00003674  74 17	   *	    je     @C017C
 00003676  64: 83 3D
	   000000BF R 00   *	    cmp    fs : op_size_override, 000h
 0000367E  75 0D	   *	    jne    @C017C
 00003680		   *@C017D:
 00003680  64: C7 05	      C             mov     fs:operand_size,94
	   00000127 R
	   0000005E
			      C         .ELSE
 0000368B  EB 0B	   *	    jmp    @C0181
 0000368D		   *@C017C:
 0000368D  64: C7 05	      C             mov     fs:operand_size,108
	   00000127 R
	   0000006C
			      C         .ENDIF
 00003698		   *@C0181:
 00003698  E8 000051FE	      C         call    extract_mod_rm
 0000369D  E9 00004CDD	      C         jmp     store_instruction
			      C     .ELSEIF (al == 111b)
 000036A2  EB 3B	   *	    jmp    @C0182
 000036A4		   *@C017A:
 000036A4  3C 07	   *	    cmp    al, 007h
 000036A6  75 37	   *	    jne    @C0183
			      C       ; It's FNSTSW
			      C         @instr_bytes    1
 000036A8  64: C7 05	     1C     mov     fs:instruction_bytes,1
	   000000EB R
	   00000001
			     1C     IF 1 EQ 1
 000036B3  46		     1C         inc     esi
			     1C     ELSE
			     1C         add     esi,1
			     1C     ENDIF
			      C         @instr_text     fnstsw_text, 6
 000036B4  64: C7 05	     1C     mov     fs:instruction_text_offset,offset fnstsw_text
	   000000F3 R
	   000009B6 R
 000036BF  64: C7 05	     1C     mov     fs:instruction_text_length,6
	   000000EF R
	   00000006
 000036CA  64: C7 05	      C         mov     fs:operand_size,16
	   00000127 R
	   00000010
 000036D5  E8 000051C1	      C         call    extract_mod_rm
 000036DA  E9 00004CA0	      C         jmp     store_instruction
			      C     .ENDIF
 000036DF		   *@C0183:
 000036DF		   *@C0182:
 000036DF		   *@C0179:
 000036DF		   *@C0170:
 000036DF		   *@C016D:
 000036DF		   *@C016A:
 000036DF  E9 00004C4C	      C     jmp     _fpu_unused
			      C 
 000036E4		      C   _fpu_de:
 000036E4  8A 46 01	      C     mov     al,byte ptr ds:[esi+1]
			      C     .IF (al >= 0c0h && al <= 0c7h)
 000036E7  3C C0	   *	    cmp    al, 0C0h
 000036E9  72 32	   *	    jb     @C0185
 000036EB  3C C7	   *	    cmp    al, 0C7h
 000036ED  77 2E	   *	    ja     @C0185
			      C       ; It's FADDP st(i),st(0)
			      C         @instr_bytes    2
 000036EF  64: C7 05	     1C     mov     fs:instruction_bytes,2
	   000000EB R
	   00000002
			     1C     IF 2 EQ 1
			     1C         inc     esi
			     1C     ELSE
 000036FA  83 C6 02	     1C         add     esi,2
			     1C     ENDIF
			      C         @instr_text     faddp_text, 5
 000036FD  64: C7 05	     1C     mov     fs:instruction_text_offset,offset faddp_text
	   000000F3 R
	   00000897 R
 00003708  64: C7 05	     1C     mov     fs:instruction_text_length,5
	   000000EF R
	   00000005
 00003713  E9 FFFFF95F	      C         jmp     _sti_st0_common
			      C     .ELSEIF (al >= 0c8h && al <= 0cfh)
 00003718  E9 00000131	   *	    jmp    @C0188
 0000371D		   *@C0185:
 0000371D  3C C8	   *	    cmp    al, 0C8h
 0000371F  72 32	   *	    jb     @C0189
 00003721  3C CF	   *	    cmp    al, 0CFh
 00003723  77 2E	   *	    ja     @C0189
			      C       ; It's FMULP st(i),st(0)
			      C         @instr_bytes    2
 00003725  64: C7 05	     1C     mov     fs:instruction_bytes,2
	   000000EB R
	   00000002
			     1C     IF 2 EQ 1
			     1C         inc     esi
			     1C     ELSE
 00003730  83 C6 02	     1C         add     esi,2
			     1C     ENDIF
			      C         @instr_text     fmulp_text, 5
 00003733  64: C7 05	     1C     mov     fs:instruction_text_offset,offset fmulp_text
	   000000F3 R
	   0000089C R
 0000373E  64: C7 05	     1C     mov     fs:instruction_text_length,5
	   000000EF R
	   00000005
 00003749  E9 FFFFF929	      C         jmp     _sti_st0_common
			      C     .ELSEIF (al == 0d9h)
 0000374E  E9 000000FB	   *	    jmp    @C018C
 00003753		   *@C0189:
 00003753  3C D9	   *	    cmp    al, 0D9h
 00003755  75 2E	   *	    jne    @C018D
			      C       ; It's FCOMPP
			      C         @instr_bytes    2
 00003757  64: C7 05	     1C     mov     fs:instruction_bytes,2
	   000000EB R
	   00000002
			     1C     IF 2 EQ 1
			     1C         inc     esi
			     1C     ELSE
 00003762  83 C6 02	     1C         add     esi,2
			     1C     ENDIF
			      C         @instr_text     fcompp_text, 6
 00003765  64: C7 05	     1C     mov     fs:instruction_text_offset,offset fcompp_text
	   000000F3 R
	   000008A1 R
 00003770  64: C7 05	     1C     mov     fs:instruction_text_length,6
	   000000EF R
	   00000006
 0000377B  E9 00004BFF	      C         jmp     store_instruction
			      C     .ELSEIF (al >= 0e0h && al <= 0e7h)
 00003780  E9 000000C9	   *	    jmp    @C018F
 00003785		   *@C018D:
 00003785  3C E0	   *	    cmp    al, 0E0h
 00003787  72 32	   *	    jb     @C0190
 00003789  3C E7	   *	    cmp    al, 0E7h
 0000378B  77 2E	   *	    ja     @C0190
			      C       ; It's FSUBRP st(i),st(0)
			      C         @instr_bytes    2
 0000378D  64: C7 05	     1C     mov     fs:instruction_bytes,2
	   000000EB R
	   00000002
			     1C     IF 2 EQ 1
			     1C         inc     esi
			     1C     ELSE
 00003798  83 C6 02	     1C         add     esi,2
			     1C     ENDIF
			      C         @instr_text     fsubrp_text, 6
 0000379B  64: C7 05	     1C     mov     fs:instruction_text_offset,offset fsubrp_text
	   000000F3 R
	   000008A7 R
 000037A6  64: C7 05	     1C     mov     fs:instruction_text_length,6
	   000000EF R
	   00000006
 000037B1  E9 FFFFF8C1	      C         jmp     _sti_st0_common
			      C     .ELSEIF (al >= 0e8h && al <= 0efh)
 000037B6  E9 00000093	   *	    jmp    @C0193
 000037BB		   *@C0190:
 000037BB  3C E8	   *	    cmp    al, 0E8h
 000037BD  72 2F	   *	    jb     @C0194
 000037BF  3C EF	   *	    cmp    al, 0EFh
 000037C1  77 2B	   *	    ja     @C0194
			      C       ; It's FSUBP st(i),st(0)
			      C         @instr_bytes    2
 000037C3  64: C7 05	     1C     mov     fs:instruction_bytes,2
	   000000EB R
	   00000002
			     1C     IF 2 EQ 1
			     1C         inc     esi
			     1C     ELSE
 000037CE  83 C6 02	     1C         add     esi,2
			     1C     ENDIF
			      C         @instr_text     fsubp_text, 5
 000037D1  64: C7 05	     1C     mov     fs:instruction_text_offset,offset fsubp_text
	   000000F3 R
	   000008AD R
 000037DC  64: C7 05	     1C     mov     fs:instruction_text_length,5
	   000000EF R
	   00000005
 000037E7  E9 FFFFF88B	      C         jmp     _sti_st0_common
			      C     .ELSEIF (al >= 0f0h && al <= 0f7h)
 000037EC  EB 60	   *	    jmp    @C0197
 000037EE		   *@C0194:
 000037EE  3C F0	   *	    cmp    al, 0F0h
 000037F0  72 2D	   *	    jb     @C0198
 000037F2  3C F7	   *	    cmp    al, 0F7h
 000037F4  77 29	   *	    ja     @C0198
			      C       ; It's FDIVRP st(i),st(0)
			      C         @instr_bytes    1
 000037F6  64: C7 05	     1C     mov     fs:instruction_bytes,1
	   000000EB R
	   00000001
			     1C     IF 1 EQ 1
 00003801  46		     1C         inc     esi
			     1C     ELSE
			     1C         add     esi,1
			     1C     ENDIF
			      C         @instr_text     fdivrp_text, 6
 00003802  64: C7 05	     1C     mov     fs:instruction_text_offset,offset fdivrp_text
	   000000F3 R
	   000008BC R
 0000380D  64: C7 05	     1C     mov     fs:instruction_text_length,6
	   000000EF R
	   00000006
 00003818  E9 FFFFF85A	      C         jmp     _sti_st0_common
			      C     .ELSEIF (al >= 0f8h && al <= 0ffh)
 0000381D  EB 2F	   *	    jmp    @C019B
 0000381F		   *@C0198:
 0000381F  3C F8	   *	    cmp    al, 0F8h
 00003821  72 2B	   *	    jb     @C019C
 00003823  3C FF	   *	    cmp    al, 0FFh
 00003825  77 27	   *	    ja     @C019C
			      C       ; It's FDIVP st(i),st(0)
			      C         @instr_bytes    1
 00003827  64: C7 05	     1C     mov     fs:instruction_bytes,1
	   000000EB R
	   00000001
			     1C     IF 1 EQ 1
 00003832  46		     1C         inc     esi
			     1C     ELSE
			     1C         add     esi,1
			     1C     ENDIF
			      C         @instr_text     fdivp_text, 5
 00003833  64: C7 05	     1C     mov     fs:instruction_text_offset,offset fdivp_text
	   000000F3 R
	   000008B7 R
 0000383E  64: C7 05	     1C     mov     fs:instruction_text_length,5
	   000000EF R
	   00000005
 00003849  E9 FFFFF829	      C         jmp     _sti_st0_common
			      C     .ENDIF
 0000384E		   *@C019C:
 0000384E		   *@C019B:
 0000384E		   *@C0197:
 0000384E		   *@C0193:
 0000384E		   *@C018F:
 0000384E		   *@C018C:
 0000384E		   *@C0188:
 0000384E  C0 E8 03	      C     shr     al,3
 00003851  24 07	      C     and     al,111b
			      C     .IF (al == 000b)
 00003853  0A C0	   *	    or	al, al
 00003855  75 3C	   *	    jne    @C019F
			      C       ; It's FIADD m64_int
			      C         @instr_bytes    1
 00003857  64: C7 05	     1C     mov     fs:instruction_bytes,1
	   000000EB R
	   00000001
			     1C     IF 1 EQ 1
 00003862  46		     1C         inc     esi
			     1C     ELSE
			     1C         add     esi,1
			     1C     ENDIF
			      C         @instr_text     fiadd_text, 5
 00003863  64: C7 05	     1C     mov     fs:instruction_text_offset,offset fiadd_text
	   000000F3 R
	   0000097A R
 0000386E  64: C7 05	     1C     mov     fs:instruction_text_length,5
	   000000EF R
	   00000005
 00003879  64: C7 05	      C         mov     fs:operand_size,16
	   00000127 R
	   00000010
 00003884  E8 00005012	      C         call    extract_mod_rm
 00003889  E9 00004AF1	      C         jmp     store_instruction
			      C     .ELSEIF (al == 001b)
 0000388E  E9 000001B5	   *	    jmp    @C01A1
 00003893		   *@C019F:
 00003893  3C 01	   *	    cmp    al, 001h
 00003895  75 3C	   *	    jne    @C01A2
			      C       ; It's FIMUL m16_int
			      C         @instr_bytes    1
 00003897  64: C7 05	     1C     mov     fs:instruction_bytes,1
	   000000EB R
	   00000001
			     1C     IF 1 EQ 1
 000038A2  46		     1C         inc     esi
			     1C     ELSE
			     1C         add     esi,1
			     1C     ENDIF
			      C         @instr_text     fimul_text, 5
 000038A3  64: C7 05	     1C     mov     fs:instruction_text_offset,offset fimul_text
	   000000F3 R
	   0000097F R
 000038AE  64: C7 05	     1C     mov     fs:instruction_text_length,5
	   000000EF R
	   00000005
 000038B9  64: C7 05	      C         mov     fs:operand_size,16
	   00000127 R
	   00000010
 000038C4  E8 00004FD2	      C         call    extract_mod_rm
 000038C9  E9 00004AB1	      C         jmp     store_instruction
			      C     .ELSEIF (al == 010b)
 000038CE  E9 00000175	   *	    jmp    @C01A4
 000038D3		   *@C01A2:
 000038D3  3C 02	   *	    cmp    al, 002h
 000038D5  75 3C	   *	    jne    @C01A5
			      C       ; It's FICOM m16_int
			      C         @instr_bytes    1
 000038D7  64: C7 05	     1C     mov     fs:instruction_bytes,1
	   000000EB R
	   00000001
			     1C     IF 1 EQ 1
 000038E2  46		     1C         inc     esi
			     1C     ELSE
			     1C         add     esi,1
			     1C     ENDIF
			      C         @instr_text     ficom_text, 5
 000038E3  64: C7 05	     1C     mov     fs:instruction_text_offset,offset ficom_text
	   000000F3 R
	   00000984 R
 000038EE  64: C7 05	     1C     mov     fs:instruction_text_length,5
	   000000EF R
	   00000005
 000038F9  64: C7 05	      C         mov     fs:operand_size,16
	   00000127 R
	   00000010
 00003904  E8 00004F92	      C         call    extract_mod_rm
 00003909  E9 00004A71	      C         jmp     store_instruction
			      C     .ELSEIF (al == 011b)
 0000390E  E9 00000135	   *	    jmp    @C01A7
 00003913		   *@C01A5:
 00003913  3C 03	   *	    cmp    al, 003h
 00003915  75 3C	   *	    jne    @C01A8
			      C       ; It's FICOMP m16_int
			      C         @instr_bytes    1
 00003917  64: C7 05	     1C     mov     fs:instruction_bytes,1
	   000000EB R
	   00000001
			     1C     IF 1 EQ 1
 00003922  46		     1C         inc     esi
			     1C     ELSE
			     1C         add     esi,1
			     1C     ENDIF
			      C         @instr_text     ficomp_text, 6
 00003923  64: C7 05	     1C     mov     fs:instruction_text_offset,offset ficomp_text
	   000000F3 R
	   00000984 R
 0000392E  64: C7 05	     1C     mov     fs:instruction_text_length,6
	   000000EF R
	   00000006
 00003939  64: C7 05	      C         mov     fs:operand_size,16
	   00000127 R
	   00000010
 00003944  E8 00004F52	      C         call    extract_mod_rm
 00003949  E9 00004A31	      C         jmp     store_instruction
			      C     .ELSEIF (al == 100b)
 0000394E  E9 000000F5	   *	    jmp    @C01AA
 00003953		   *@C01A8:
 00003953  3C 04	   *	    cmp    al, 004h
 00003955  75 3C	   *	    jne    @C01AB
			      C       ; It's FISUB m16_int
			      C         @instr_bytes    1
 00003957  64: C7 05	     1C     mov     fs:instruction_bytes,1
	   000000EB R
	   00000001
			     1C     IF 1 EQ 1
 00003962  46		     1C         inc     esi
			     1C     ELSE
			     1C         add     esi,1
			     1C     ENDIF
			      C         @instr_text     fisub_text, 5
 00003963  64: C7 05	     1C     mov     fs:instruction_text_offset,offset fisub_text
	   000000F3 R
	   0000098A R
 0000396E  64: C7 05	     1C     mov     fs:instruction_text_length,5
	   000000EF R
	   00000005
 00003979  64: C7 05	      C         mov     fs:operand_size,16
	   00000127 R
	   00000010
 00003984  E8 00004F12	      C         call    extract_mod_rm
 00003989  E9 000049F1	      C         jmp     store_instruction
			      C     .ELSEIF (al == 101b)
 0000398E  E9 000000B5	   *	    jmp    @C01AD
 00003993		   *@C01AB:
 00003993  3C 05	   *	    cmp    al, 005h
 00003995  75 39	   *	    jne    @C01AE
			      C       ; It's FISUBR m16_int
			      C         @instr_bytes    1
 00003997  64: C7 05	     1C     mov     fs:instruction_bytes,1
	   000000EB R
	   00000001
			     1C     IF 1 EQ 1
 000039A2  46		     1C         inc     esi
			     1C     ELSE
			     1C         add     esi,1
			     1C     ENDIF
			      C         @instr_text     fisubr_text, 6
 000039A3  64: C7 05	     1C     mov     fs:instruction_text_offset,offset fisubr_text
	   000000F3 R
	   0000098A R
 000039AE  64: C7 05	     1C     mov     fs:instruction_text_length,6
	   000000EF R
	   00000006
 000039B9  64: C7 05	      C         mov     fs:operand_size,16
	   00000127 R
	   00000010
 000039C4  E8 00004ED2	      C         call    extract_mod_rm
 000039C9  E9 000049B1	      C         jmp     store_instruction
			      C     .ELSEIF (al == 110b)
 000039CE  EB 78	   *	    jmp    @C01B0
 000039D0		   *@C01AE:
 000039D0  3C 06	   *	    cmp    al, 006h
 000039D2  75 39	   *	    jne    @C01B1
			      C       ; It's FIDIV m16_int
			      C         @instr_bytes    1
 000039D4  64: C7 05	     1C     mov     fs:instruction_bytes,1
	   000000EB R
	   00000001
			     1C     IF 1 EQ 1
 000039DF  46		     1C         inc     esi
			     1C     ELSE
			     1C         add     esi,1
			     1C     ENDIF
			      C         @instr_text     fidiv_text, 5
 000039E0  64: C7 05	     1C     mov     fs:instruction_text_offset,offset fidiv_text
	   000000F3 R
	   00000990 R
 000039EB  64: C7 05	     1C     mov     fs:instruction_text_length,5
	   000000EF R
	   00000005
 000039F6  64: C7 05	      C         mov     fs:operand_size,16
	   00000127 R
	   00000010
 00003A01  E8 00004E95	      C         call    extract_mod_rm
 00003A06  E9 00004974	      C         jmp     store_instruction
			      C     .ELSEIF (al == 111b)
 00003A0B  EB 3B	   *	    jmp    @C01B3
 00003A0D		   *@C01B1:
 00003A0D  3C 07	   *	    cmp    al, 007h
 00003A0F  75 37	   *	    jne    @C01B4
			      C       ; It's FIDIVR m16_int
			      C         @instr_bytes    1
 00003A11  64: C7 05	     1C     mov     fs:instruction_bytes,1
	   000000EB R
	   00000001
			     1C     IF 1 EQ 1
 00003A1C  46		     1C         inc     esi
			     1C     ELSE
			     1C         add     esi,1
			     1C     ENDIF
			      C         @instr_text     fidivr_text, 6
 00003A1D  64: C7 05	     1C     mov     fs:instruction_text_offset,offset fidivr_text
	   000000F3 R
	   00000990 R
 00003A28  64: C7 05	     1C     mov     fs:instruction_text_length,6
	   000000EF R
	   00000006
 00003A33  64: C7 05	      C         mov     fs:operand_size,16
	   00000127 R
	   00000010
 00003A3E  E8 00004E58	      C         call    extract_mod_rm
 00003A43  E9 00004937	      C         jmp     store_instruction
			      C     .ENDIF
 00003A48		   *@C01B4:
 00003A48		   *@C01B3:
 00003A48		   *@C01B0:
 00003A48		   *@C01AD:
 00003A48		   *@C01AA:
 00003A48		   *@C01A7:
 00003A48		   *@C01A4:
 00003A48		   *@C01A1:
 00003A48  E9 000048E3	      C     jmp     _fpu_unused
			      C 
 00003A4D		      C   _fpu_df:
 00003A4D  8A 46 01	      C     mov     al,byte ptr ds:[esi+1]
			      C     .IF (al == 0e0h)
 00003A50  3C E0	   *	    cmp    al, 0E0h
 00003A52  75 45	   *	    jne    @C01B6
			      C       ; It's FNSTSW ax
			      C         @instr_bytes    1
 00003A54  64: C7 05	     1C     mov     fs:instruction_bytes,1
	   000000EB R
	   00000001
			     1C     IF 1 EQ 1
 00003A5F  46		     1C         inc     esi
			     1C     ELSE
			     1C         add     esi,1
			     1C     ENDIF
			      C         @instr_text     fnstsw_text, 6
 00003A60  64: C7 05	     1C     mov     fs:instruction_text_offset,offset fnstsw_text
	   000000F3 R
	   000009B6 R
 00003A6B  64: C7 05	     1C     mov     fs:instruction_text_length,6
	   000000EF R
	   00000006
 00003A76  E8 00004ACD	      C         call    start_offsets
 00003A7B  32 DB	      C         xor     bl,bl
 00003A7D  64: C7 05	      C         mov     fs:operand_size,16
	   00000127 R
	   00000010
 00003A88  E8 00004EB5	      C         call    store_gp_register
 00003A8D  E8 00004ACC	      C         call    end_offsets
 00003A92  E9 000048E8	      C         jmp     store_instruction
			      C     .ELSEIF (al >= 0e8h && al <= 0efh)
 00003A97  EB 64	   *	    jmp    @C01B8
 00003A99		   *@C01B6:
 00003A99  3C E8	   *	    cmp    al, 0E8h
 00003A9B  72 2F	   *	    jb     @C01B9
 00003A9D  3C EF	   *	    cmp    al, 0EFh
 00003A9F  77 2B	   *	    ja     @C01B9
			      C       ; It's FUCOMIP st(0),st(i)
			      C         @instr_bytes    2
 00003AA1  64: C7 05	     1C     mov     fs:instruction_bytes,2
	   000000EB R
	   00000002
			     1C     IF 2 EQ 1
			     1C         inc     esi
			     1C     ELSE
 00003AAC  83 C6 02	     1C         add     esi,2
			     1C     ENDIF
			      C         @instr_text     fucomip_text, 7
 00003AAF  64: C7 05	     1C     mov     fs:instruction_text_offset,offset fucomip_text
	   000000F3 R
	   0000088D R
 00003ABA  64: C7 05	     1C     mov     fs:instruction_text_length,7
	   000000EF R
	   00000007
 00003AC5  E9 FFFFE404	      C         jmp     _st0_sti_common
			      C     .ELSEIF (al >= 0f0h && al <= 0f7h)
 00003ACA  EB 31	   *	    jmp    @C01BC
 00003ACC		   *@C01B9:
 00003ACC  3C F0	   *	    cmp    al, 0F0h
 00003ACE  72 2D	   *	    jb     @C01BD
 00003AD0  3C F7	   *	    cmp    al, 0F7h
 00003AD2  77 29	   *	    ja     @C01BD
			      C       ; It's FCOMIP st(0),st(i)
			      C         @instr_bytes    2
 00003AD4  64: C7 05	     1C     mov     fs:instruction_bytes,2
	   000000EB R
	   00000002
			     1C     IF 2 EQ 1
			     1C         inc     esi
			     1C     ELSE
 00003ADF  83 C6 02	     1C         add     esi,2
			     1C     ENDIF
			      C         @instr_text     fcomip_text, 6
 00003AE2  64: C7 05	     1C     mov     fs:instruction_text_offset,offset fcomip_text
	   000000F3 R
	   00000887 R
 00003AED  64: C7 05	     1C     mov     fs:instruction_text_length,6
	   000000EF R
	   00000006
 00003AF8  E9 FFFFE3D1	      C         jmp     _st0_sti_common
			      C     .ENDIF
 00003AFD		   *@C01BD:
 00003AFD		   *@C01BC:
 00003AFD		   *@C01B8:
 00003AFD  C0 E8 03	      C     shr     al,3
 00003B00  24 07	      C     and     al,111b
			      C     .IF (al == 000b)
 00003B02  0A C0	   *	    or	al, al
 00003B04  75 3C	   *	    jne    @C01C0
			      C       ; It's FILD m16_int
			      C         @instr_bytes    1
 00003B06  64: C7 05	     1C     mov     fs:instruction_bytes,1
	   000000EB R
	   00000001
			     1C     IF 1 EQ 1
 00003B11  46		     1C         inc     esi
			     1C     ELSE
			     1C         add     esi,1
			     1C     ENDIF
			      C         @instr_text     fild_text, 4
 00003B12  64: C7 05	     1C     mov     fs:instruction_text_offset,offset fild_text
	   000000F3 R
	   000009A2 R
 00003B1D  64: C7 05	     1C     mov     fs:instruction_text_length,4
	   000000EF R
	   00000004
 00003B28  64: C7 05	      C         mov     fs:operand_size,16
	   00000127 R
	   00000010
 00003B33  E8 00004D63	      C         call    extract_mod_rm
 00003B38  E9 00004842	      C         jmp     store_instruction
			      C     .ELSEIF (al == 010b)
 00003B3D  E9 00000175	   *	    jmp    @C01C2
 00003B42		   *@C01C0:
 00003B42  3C 02	   *	    cmp    al, 002h
 00003B44  75 3C	   *	    jne    @C01C3
			      C       ; It's FIST m16_int
			      C         @instr_bytes    1
 00003B46  64: C7 05	     1C     mov     fs:instruction_bytes,1
	   000000EB R
	   00000001
			     1C     IF 1 EQ 1
 00003B51  46		     1C         inc     esi
			     1C     ELSE
			     1C         add     esi,1
			     1C     ENDIF
			      C         @instr_text     fist_text, 4
 00003B52  64: C7 05	     1C     mov     fs:instruction_text_offset,offset fist_text
	   000000F3 R
	   000009A6 R
 00003B5D  64: C7 05	     1C     mov     fs:instruction_text_length,4
	   000000EF R
	   00000004
 00003B68  64: C7 05	      C         mov     fs:operand_size,16
	   00000127 R
	   00000010
 00003B73  E8 00004D23	      C         call    extract_mod_rm
 00003B78  E9 00004802	      C         jmp     store_instruction
			      C     .ELSEIF (al == 011b)
 00003B7D  E9 00000135	   *	    jmp    @C01C5
 00003B82		   *@C01C3:
 00003B82  3C 03	   *	    cmp    al, 003h
 00003B84  75 3C	   *	    jne    @C01C6
			      C       ; It's FISTP m16_int
			      C         @instr_bytes    1
 00003B86  64: C7 05	     1C     mov     fs:instruction_bytes,1
	   000000EB R
	   00000001
			     1C     IF 1 EQ 1
 00003B91  46		     1C         inc     esi
			     1C     ELSE
			     1C         add     esi,1
			     1C     ENDIF
			      C         @instr_text     fistp_text, 5
 00003B92  64: C7 05	     1C     mov     fs:instruction_text_offset,offset fistp_text
	   000000F3 R
	   000009A6 R
 00003B9D  64: C7 05	     1C     mov     fs:instruction_text_length,5
	   000000EF R
	   00000005
 00003BA8  64: C7 05	      C         mov     fs:operand_size,16
	   00000127 R
	   00000010
 00003BB3  E8 00004CE3	      C         call    extract_mod_rm
 00003BB8  E9 000047C2	      C         jmp     store_instruction
			      C     .ELSEIF (al == 100b)
 00003BBD  E9 000000F5	   *	    jmp    @C01C8
 00003BC2		   *@C01C6:
 00003BC2  3C 04	   *	    cmp    al, 004h
 00003BC4  75 3C	   *	    jne    @C01C9
			      C       ; It's fbld m80_bcd
			      C         @instr_bytes    1
 00003BC6  64: C7 05	     1C     mov     fs:instruction_bytes,1
	   000000EB R
	   00000001
			     1C     IF 1 EQ 1
 00003BD1  46		     1C         inc     esi
			     1C     ELSE
			     1C         add     esi,1
			     1C     ENDIF
			      C         @instr_text     fbld_text, 4
 00003BD2  64: C7 05	     1C     mov     fs:instruction_text_offset,offset fbld_text
	   000000F3 R
	   000009BC R
 00003BDD  64: C7 05	     1C     mov     fs:instruction_text_length,4
	   000000EF R
	   00000004
 00003BE8  64: C7 05	      C         mov     fs:operand_size,80
	   00000127 R
	   00000050
 00003BF3  E8 00004CA3	      C         call    extract_mod_rm
 00003BF8  E9 00004782	      C         jmp     store_instruction
			      C     .ELSEIF (al == 110b)
 00003BFD  E9 000000B5	   *	    jmp    @C01CB
 00003C02		   *@C01C9:
 00003C02  3C 06	   *	    cmp    al, 006h
 00003C04  75 39	   *	    jne    @C01CC
			      C       ; It's fbstp m80_bcd
			      C         @instr_bytes    1
 00003C06  64: C7 05	     1C     mov     fs:instruction_bytes,1
	   000000EB R
	   00000001
			     1C     IF 1 EQ 1
 00003C11  46		     1C         inc     esi
			     1C     ELSE
			     1C         add     esi,1
			     1C     ENDIF
			      C         @instr_text     fbstp_text, 5
 00003C12  64: C7 05	     1C     mov     fs:instruction_text_offset,offset fbstp_text
	   000000F3 R
	   000009C0 R
 00003C1D  64: C7 05	     1C     mov     fs:instruction_text_length,5
	   000000EF R
	   00000005
 00003C28  64: C7 05	      C         mov     fs:operand_size,80
	   00000127 R
	   00000050
 00003C33  E8 00004C63	      C         call    extract_mod_rm
 00003C38  E9 00004742	      C         jmp     store_instruction
			      C     .ELSEIF (al == 101b)
 00003C3D  EB 78	   *	    jmp    @C01CE
 00003C3F		   *@C01CC:
 00003C3F  3C 05	   *	    cmp    al, 005h
 00003C41  75 39	   *	    jne    @C01CF
			      C       ; It's FILD m64_int
			      C         @instr_bytes    1
 00003C43  64: C7 05	     1C     mov     fs:instruction_bytes,1
	   000000EB R
	   00000001
			     1C     IF 1 EQ 1
 00003C4E  46		     1C         inc     esi
			     1C     ELSE
			     1C         add     esi,1
			     1C     ENDIF
			      C         @instr_text     fild_text, 4
 00003C4F  64: C7 05	     1C     mov     fs:instruction_text_offset,offset fild_text
	   000000F3 R
	   000009A2 R
 00003C5A  64: C7 05	     1C     mov     fs:instruction_text_length,4
	   000000EF R
	   00000004
 00003C65  64: C7 05	      C         mov     fs:operand_size,64
	   00000127 R
	   00000040
 00003C70  E8 00004C26	      C         call    extract_mod_rm
 00003C75  E9 00004705	      C         jmp     store_instruction
			      C     .ELSEIF (al == 111b)
 00003C7A  EB 3B	   *	    jmp    @C01D1
 00003C7C		   *@C01CF:
 00003C7C  3C 07	   *	    cmp    al, 007h
 00003C7E  75 37	   *	    jne    @C01D2
			      C       ; It's FISTP m64_int
			      C         @instr_bytes    1
 00003C80  64: C7 05	     1C     mov     fs:instruction_bytes,1
	   000000EB R
	   00000001
			     1C     IF 1 EQ 1
 00003C8B  46		     1C         inc     esi
			     1C     ELSE
			     1C         add     esi,1
			     1C     ENDIF
			      C         @instr_text     fistp_text, 5
 00003C8C  64: C7 05	     1C     mov     fs:instruction_text_offset,offset fistp_text
	   000000F3 R
	   000009A6 R
 00003C97  64: C7 05	     1C     mov     fs:instruction_text_length,5
	   000000EF R
	   00000005
 00003CA2  64: C7 05	      C         mov     fs:operand_size,64
	   00000127 R
	   00000040
 00003CAD  E8 00004BE9	      C         call    extract_mod_rm
 00003CB2  E9 000046C8	      C         jmp     store_instruction
			      C     .ENDIF
 00003CB7		   *@C01D2:
 00003CB7		   *@C01D1:
 00003CB7		   *@C01CE:
 00003CB7		   *@C01CB:
 00003CB7		   *@C01C8:
 00003CB7		   *@C01C5:
 00003CB7		   *@C01C2:
 00003CB7  E9 00004674	      C     jmp     _fpu_unused
			      C 
 00003CBC		      C   _hlt:
			      C     @instr_bytes    1
 00003CBC  64: C7 05	     1C     mov     fs:instruction_bytes,1
	   000000EB R
	   00000001
			     1C     IF 1 EQ 1
 00003CC7  46		     1C         inc     esi
			     1C     ELSE
			     1C         add     esi,1
			     1C     ENDIF
			      C     @instr_text     hlt_text, 3
 00003CC8  64: C7 05	     1C     mov     fs:instruction_text_offset,offset hlt_text
	   000000F3 R
	   00000593 R
 00003CD3  64: C7 05	     1C     mov     fs:instruction_text_length,3
	   000000EF R
	   00000003
 00003CDE  E9 0000469C	      C     jmp     store_instruction
			      C 
 00003CE3		      C   _idiv_byte:
			      C     @instr_bytes    1
 00003CE3  64: C7 05	     1C     mov     fs:instruction_bytes,1
	   000000EB R
	   00000001
			     1C     IF 1 EQ 1
 00003CEE  46		     1C         inc     esi
			     1C     ELSE
			     1C         add     esi,1
			     1C     ENDIF
			      C     @instr_text     idiv_text, 4
 00003CEF  64: C7 05	     1C     mov     fs:instruction_text_offset,offset idiv_text
	   000000F3 R
	   000007FA R
 00003CFA  64: C7 05	     1C     mov     fs:instruction_text_length,4
	   000000EF R
	   00000004
 00003D05		      C   _ixxx_common1:
 00003D05  64: C7 05	      C     mov     fs:operand_size,8
	   00000127 R
	   00000008
 00003D10  E8 00004B86	      C     call    extract_mod_rm
 00003D15  E9 00004665	      C     jmp     store_instruction
			      C 
 00003D1A		      C   _idiv:
			      C     @instr_bytes    1
 00003D1A  64: C7 05	     1C     mov     fs:instruction_bytes,1
	   000000EB R
	   00000001
			     1C     IF 1 EQ 1
 00003D25  46		     1C         inc     esi
			     1C     ELSE
			     1C         add     esi,1
			     1C     ENDIF
			      C     @instr_text     idiv_text, 4
 00003D26  64: C7 05	     1C     mov     fs:instruction_text_offset,offset idiv_text
	   000000F3 R
	   000007FA R
 00003D31  64: C7 05	     1C     mov     fs:instruction_text_length,4
	   000000EF R
	   00000004
 00003D3C		      C   _ixxx_common2:
 00003D3C  E8 0000489A	      C     call    determine_standard_operand_size
 00003D41  E8 00004B55	      C     call    extract_mod_rm
 00003D46  E9 00004634	      C     jmp     store_instruction
			      C 
 00003D4B		      C   _imul_byte:
			      C     @instr_bytes    1
 00003D4B  64: C7 05	     1C     mov     fs:instruction_bytes,1
	   000000EB R
	   00000001
			     1C     IF 1 EQ 1
 00003D56  46		     1C         inc     esi
			     1C     ELSE
			     1C         add     esi,1
			     1C     ENDIF
			      C     @instr_text     imul_text, 4
 00003D57  64: C7 05	     1C     mov     fs:instruction_text_offset,offset imul_text
	   000000F3 R
	   000007EC R
 00003D62  64: C7 05	     1C     mov     fs:instruction_text_length,4
	   000000EF R
	   00000004
 00003D6D  EB 96	      C     jmp     _ixxx_common1
			      C 
 00003D6F		      C   _imul:
			      C     @instr_bytes    1
 00003D6F  64: C7 05	     1C     mov     fs:instruction_bytes,1
	   000000EB R
	   00000001
			     1C     IF 1 EQ 1
 00003D7A  46		     1C         inc     esi
			     1C     ELSE
			     1C         add     esi,1
			     1C     ENDIF
			      C     @instr_text     imul_text, 4
 00003D7B  64: C7 05	     1C     mov     fs:instruction_text_offset,offset imul_text
	   000000F3 R
	   000007EC R
 00003D86  64: C7 05	     1C     mov     fs:instruction_text_length,4
	   000000EF R
	   00000004
 00003D91  EB A9	      C     jmp     _ixxx_common2
			      C 
 00003D93		      C   _imul_2_params:
			      C     @instr_bytes    2
 00003D93  64: C7 05	     1C     mov     fs:instruction_bytes,2
	   000000EB R
	   00000002
			     1C     IF 2 EQ 1
			     1C         inc     esi
			     1C     ELSE
 00003D9E  83 C6 02	     1C         add     esi,2
			     1C     ENDIF
			      C     @instr_text     imul_text, 4
 00003DA1  64: C7 05	     1C     mov     fs:instruction_text_offset,offset imul_text
	   000000F3 R
	   000007EC R
 00003DAC  64: C7 05	     1C     mov     fs:instruction_text_length,4
	   000000EF R
	   00000004
 00003DB7  64: C7 05	      C     mov     fs:reverse_mod_reg_rm,1
	   000000C7 R
	   00000001
 00003DC2  E8 00004814	      C     call    determine_standard_operand_size
 00003DC7  E8 00004850	      C     call    extract_mod_reg_rm
 00003DCC  E9 000045AE	      C     jmp     store_instruction
			      C 
 00003DD1		      C   _imul_3_parms_immed8:
			      C     @instr_bytes    1
 00003DD1  64: C7 05	     1C     mov     fs:instruction_bytes,1
	   000000EB R
	   00000001
			     1C     IF 1 EQ 1
 00003DDC  46		     1C         inc     esi
			     1C     ELSE
			     1C         add     esi,1
			     1C     ENDIF
			      C     @instr_text     imul_text, 4
 00003DDD  64: C7 05	     1C     mov     fs:instruction_text_offset,offset imul_text
	   000000F3 R
	   000007EC R
 00003DE8  64: C7 05	     1C     mov     fs:instruction_text_length,4
	   000000EF R
	   00000004
 00003DF3  E8 00004750	      C     call    start_offsets
 00003DF8  64: C7 05	      C     mov     fs:operand_size,16
	   00000127 R
	   00000010
 00003E03  64: C7 05	      C     mov     fs:reverse_mod_reg_rm,1
	   000000C7 R
	   00000001
 00003E0E  64: C7 05	      C     mov     fs:display_second_register,0
	   000000DB R
	   00000000
 00003E19  E8 000047FE	      C     call    extract_mod_reg_rm
 00003E1E  E8 0000473B	      C     call    end_offsets
			      C   ; Add the 3rd parameter
 00003E23  E8 00005A67	      C     call    store_comma
 00003E28  E8 000059D0	      C     call    store_8_bit_signed_value
 00003E2D  64: 83 05	      C     add     fs:parameters_text_length,3
	   000000F7 R 03
 00003E35  E9 00004545	      C     jmp     store_instruction
			      C 
 00003E3A		      C   _imul_3_parms_immed16_32:
			      C     @instr_bytes    1
 00003E3A  64: C7 05	     1C     mov     fs:instruction_bytes,1
	   000000EB R
	   00000001
			     1C     IF 1 EQ 1
 00003E45  46		     1C         inc     esi
			     1C     ELSE
			     1C         add     esi,1
			     1C     ENDIF
			      C     @instr_text     imul_text, 4
 00003E46  64: C7 05	     1C     mov     fs:instruction_text_offset,offset imul_text
	   000000F3 R
	   000007EC R
 00003E51  64: C7 05	     1C     mov     fs:instruction_text_length,4
	   000000EF R
	   00000004
 00003E5C  E8 000046E7	      C     call    start_offsets
 00003E61  64: C7 05	      C     mov     fs:reverse_mod_reg_rm,1
	   000000C7 R
	   00000001
 00003E6C  E8 0000476A	      C     call    determine_standard_operand_size
 00003E71  E8 000047A6	      C     call    extract_mod_reg_rm
 00003E76  E8 000046E3	      C     call    end_offsets
			      C   ; Store the 3rd parameter
 00003E7B  E8 00005A0F	      C     call    store_comma
 00003E80  E8 000059B8	      C     call    store_signed_value
			      C     .IF ((fs:cpu_mode == 0 && fs:op_size_override != 0) || (fs:cpu_mode != 0 && fs:op_size_override == 0))
 00003E85  64: 83 3D
	   0000009B R 00   *	    cmp    fs : cpu_mode, 000h
 00003E8D  75 0A	   *	    jne    @C01D6
 00003E8F  64: 83 3D
	   000000BF R 00   *	    cmp    fs : op_size_override, 000h
 00003E97  75 14	   *	    jne    @C01D5
 00003E99		   *@C01D6:
 00003E99  64: 83 3D
	   0000009B R 00   *	    cmp    fs : cpu_mode, 000h
 00003EA1  74 14	   *	    je     @C01D4
 00003EA3  64: 83 3D
	   000000BF R 00   *	    cmp    fs : op_size_override, 000h
 00003EAB  75 0A	   *	    jne    @C01D4
 00003EAD		   *@C01D5:
 00003EAD  64: 83 05	      C         add     fs:parameters_text_length,5
	   000000F7 R 05
			      C     .ELSE
 00003EB5  EB 08	   *	    jmp    @C01D9
 00003EB7		   *@C01D4:
 00003EB7  64: 83 05	      C         add     fs:parameters_text_length,9
	   000000F7 R 09
			      C     .ENDIF
 00003EBF		   *@C01D9:
 00003EBF  E9 000044BB	      C     jmp     store_instruction
			      C 
 00003EC4		      C   _in8_immed8:
 00003EC4		      C   _in16_32_immed8:
			      C     @instr_bytes    1
 00003EC4  64: C7 05	     1C     mov     fs:instruction_bytes,1
	   000000EB R
	   00000001
			     1C     IF 1 EQ 1
 00003ECF  46		     1C         inc     esi
			     1C     ELSE
			     1C         add     esi,1
			     1C     ENDIF
			      C     @instr_text     in_text, 2
 00003ED0  64: C7 05	     1C     mov     fs:instruction_text_offset,offset in_text
	   000000F3 R
	   000007FE R
 00003EDB  64: C7 05	     1C     mov     fs:instruction_text_length,2
	   000000EF R
	   00000002
 00003EE6  E8 0000465D	      C     call    start_offsets
 00003EEB  83 E0 01	      C     and     eax,1b
 00003EEE  50		      C     push    eax
 00003EEF  E8 00004680	      C     call    determine_operand_size
 00003EF4  32 DB	      C     xor     bl,bl
 00003EF6  E8 00004A47	      C     call    store_gp_register
 00003EFB  E8 0000598F	      C     call    store_comma
 00003F00  E8 000056B5	      C     call    store_8_bit_value
 00003F05  E8 00004654	      C     call    end_offsets
 00003F0A  E9 00004470	      C     jmp     store_instruction
			      C 
 00003F0F		      C   _in_byte:
			      C     @instr_bytes    1
 00003F0F  64: C7 05	     1C     mov     fs:instruction_bytes,1
	   000000EB R
	   00000001
			     1C     IF 1 EQ 1
 00003F1A  46		     1C         inc     esi
			     1C     ELSE
			     1C         add     esi,1
			     1C     ENDIF
			      C     @instr_text     in_text, 2
 00003F1B  64: C7 05	     1C     mov     fs:instruction_text_offset,offset in_text
	   000000F3 R
	   000007FE R
 00003F26  64: C7 05	     1C     mov     fs:instruction_text_length,2
	   000000EF R
	   00000002
 00003F31  E8 00004612	      C     call    start_offsets
 00003F36  64: C7 05	      C     mov     fs:operand_size,8
	   00000127 R
	   00000008
 00003F41  32 DB	      C     xor     bl,bl
 00003F43  E8 000049FA	      C     call    store_gp_register
 00003F48  E8 00005942	      C     call    store_comma
 00003F4D  64: C7 05	      C     mov     fs:operand_size,16
	   00000127 R
	   00000010
 00003F58  B3 02	      C     mov     bl,010b
 00003F5A  E8 000049E3	      C     call    store_gp_register
 00003F5F  E8 000045FA	      C     call    end_offsets
 00003F64  64: C7 05	      C     mov     fs:operand_size,8
	   00000127 R
	   00000008
 00003F6F  E9 0000440B	      C     jmp     store_instruction
			      C 
 00003F74		      C   _in:
			      C     @instr_bytes    1
 00003F74  64: C7 05	     1C     mov     fs:instruction_bytes,1
	   000000EB R
	   00000001
			     1C     IF 1 EQ 1
 00003F7F  46		     1C         inc     esi
			     1C     ELSE
			     1C         add     esi,1
			     1C     ENDIF
			      C     @instr_text     in_text, 2
 00003F80  64: C7 05	     1C     mov     fs:instruction_text_offset,offset in_text
	   000000F3 R
	   000007FE R
 00003F8B  64: C7 05	     1C     mov     fs:instruction_text_length,2
	   000000EF R
	   00000002
 00003F96  E8 000045AD	      C     call    start_offsets
 00003F9B  E8 0000463B	      C     call    determine_standard_operand_size
 00003FA0  64: FF 35	      C     push    fs:operand_size
	   00000127 R
 00003FA7  32 DB	      C     xor     bl,bl
 00003FA9  E8 00004994	      C     call    store_gp_register
 00003FAE  E8 000058DC	      C     call    store_comma
 00003FB3  64: C7 05	      C     mov     fs:operand_size,16
	   00000127 R
	   00000010
 00003FBE  B3 02	      C     mov     bl,010b
 00003FC0  E8 0000497D	      C     call    store_gp_register
 00003FC5  E8 00004594	      C     call    end_offsets
 00003FCA  64: 8F 05	      C     pop     fs:operand_size
	   00000127 R
 00003FD1  E9 000043A9	      C     jmp     store_instruction
			      C 
 00003FD6		      C   _inc_xax:
 00003FD6		      C   _inc_xbp:
 00003FD6		      C   _inc_xbx:
 00003FD6		      C   _inc_xcx:
 00003FD6		      C   _inc_xdi:
 00003FD6		      C   _inc_xdx:
 00003FD6		      C   _inc_xsi:
 00003FD6		      C   _inc_xsp:
			      C     @instr_bytes    1
 00003FD6  64: C7 05	     1C     mov     fs:instruction_bytes,1
	   000000EB R
	   00000001
			     1C     IF 1 EQ 1
 00003FE1  46		     1C         inc     esi
			     1C     ELSE
			     1C         add     esi,1
			     1C     ENDIF
			      C     @instr_text     inc_text, 3
 00003FE2  64: C7 05	     1C     mov     fs:instruction_text_offset,offset inc_text
	   000000F3 R
	   000007FE R
 00003FED  64: C7 05	     1C     mov     fs:instruction_text_length,3
	   000000EF R
	   00000003
 00003FF8  E9 FFFFDD4B	      C     jmp     xnc_common1
			      C 
 00003FFD		      C   _inc_rm8:
			      C     @instr_bytes    1
 00003FFD  64: C7 05	     1C     mov     fs:instruction_bytes,1
	   000000EB R
	   00000001
			     1C     IF 1 EQ 1
 00004008  46		     1C         inc     esi
			     1C     ELSE
			     1C         add     esi,1
			     1C     ENDIF
			      C     @instr_text     inc_text, 3
 00004009  64: C7 05	     1C     mov     fs:instruction_text_offset,offset inc_text
	   000000F3 R
	   000007FE R
 00004014  64: C7 05	     1C     mov     fs:instruction_text_length,3
	   000000EF R
	   00000003
 0000401F  E9 FFFFDD64	      C     jmp     xnc_common2
			      C 
 00004024		      C   _inc_rm16_32:
			      C     @instr_bytes    1
 00004024  64: C7 05	     1C     mov     fs:instruction_bytes,1
	   000000EB R
	   00000001
			     1C     IF 1 EQ 1
 0000402F  46		     1C         inc     esi
			     1C     ELSE
			     1C         add     esi,1
			     1C     ENDIF
			      C     @instr_text     inc_text, 3
 00004030  64: C7 05	     1C     mov     fs:instruction_text_offset,offset inc_text
	   000000F3 R
	   000007FE R
 0000403B  64: C7 05	     1C     mov     fs:instruction_text_length,3
	   000000EF R
	   00000003
 00004046  E9 FFFFDD74	      C     jmp     xnc_common3
			      C 
 0000404B		      C   _insb:
			      C     @instr_bytes    1
 0000404B  64: C7 05	     1C     mov     fs:instruction_bytes,1
	   000000EB R
	   00000001
			     1C     IF 1 EQ 1
 00004056  46		     1C         inc     esi
			     1C     ELSE
			     1C         add     esi,1
			     1C     ENDIF
			      C     @instr_text     insb_text, 4
 00004057  64: C7 05	     1C     mov     fs:instruction_text_offset,offset insb_text
	   000000F3 R
	   0000074D R
 00004062  64: C7 05	     1C     mov     fs:instruction_text_length,4
	   000000EF R
	   00000004
 0000406D  E9 0000430D	      C     jmp     store_instruction
			      C 
 00004072		      C   _insw:
			      C     @instr_bytes    1
 00004072  64: C7 05	     1C     mov     fs:instruction_bytes,1
	   000000EB R
	   00000001
			     1C     IF 1 EQ 1
 0000407D  46		     1C         inc     esi
			     1C     ELSE
			     1C         add     esi,1
			     1C     ENDIF
			      C     .IF ((fs:cpu_mode == 0 && fs:op_size_override != 0) || (fs:cpu_mode != 0 && fs:op_size_override == 0))
 0000407E  64: 83 3D
	   0000009B R 00   *	    cmp    fs : cpu_mode, 000h
 00004086  75 0A	   *	    jne    @C01DC
 00004088  64: 83 3D
	   000000BF R 00   *	    cmp    fs : op_size_override, 000h
 00004090  75 14	   *	    jne    @C01DB
 00004092		   *@C01DC:
 00004092  64: 83 3D
	   0000009B R 00   *	    cmp    fs : cpu_mode, 000h
 0000409A  74 22	   *	    je     @C01DA
 0000409C  64: 83 3D
	   000000BF R 00   *	    cmp    fs : op_size_override, 000h
 000040A4  75 18	   *	    jne    @C01DA
 000040A6		   *@C01DB:
			      C         @instr_text     insw_text, 4
 000040A6  64: C7 05	     1C     mov     fs:instruction_text_offset,offset insw_text
	   000000F3 R
	   00000751 R
 000040B1  64: C7 05	     1C     mov     fs:instruction_text_length,4
	   000000EF R
	   00000004
			      C     .ELSE
 000040BC  EB 16	   *	    jmp    @C01DF
 000040BE		   *@C01DA:
			      C         @instr_text     insd_text, 4
 000040BE  64: C7 05	     1C     mov     fs:instruction_text_offset,offset insd_text
	   000000F3 R
	   00000755 R
 000040C9  64: C7 05	     1C     mov     fs:instruction_text_length,4
	   000000EF R
	   00000004
			      C     .ENDIF
 000040D4		   *@C01DF:
 000040D4  E9 000042A6	      C     jmp     store_instruction
			      C 
 000040D9		      C   _int3:
			      C     @instr_bytes    1
 000040D9  64: C7 05	     1C     mov     fs:instruction_bytes,1
	   000000EB R
	   00000001
			     1C     IF 1 EQ 1
 000040E4  46		     1C         inc     esi
			     1C     ELSE
			     1C         add     esi,1
			     1C     ENDIF
			      C     @instr_text     int3_phrase, 4
 000040E5  64: C7 05	     1C     mov     fs:instruction_text_offset,offset int3_phrase
	   000000F3 R
	   00000569 R
 000040F0  64: C7 05	     1C     mov     fs:instruction_text_length,4
	   000000EF R
	   00000004
 000040FB  E9 0000427F	      C     jmp     store_instruction
			      C 
 00004100		      C   _into:
			      C     @instr_bytes    1
 00004100  64: C7 05	     1C     mov     fs:instruction_bytes,1
	   000000EB R
	   00000001
			     1C     IF 1 EQ 1
 0000410B  46		     1C         inc     esi
			     1C     ELSE
			     1C         add     esi,1
			     1C     ENDIF
			      C     @instr_text     into_text, 4
 0000410C  64: C7 05	     1C     mov     fs:instruction_text_offset,offset into_text
	   000000F3 R
	   00000596 R
 00004117  64: C7 05	     1C     mov     fs:instruction_text_length,4
	   000000EF R
	   00000004
 00004122  E9 00004258	      C     jmp     store_instruction
			      C 
 00004127		      C   _intx:
			      C     @instr_bytes    1
 00004127  64: C7 05	     1C     mov     fs:instruction_bytes,1
	   000000EB R
	   00000001
			     1C     IF 1 EQ 1
 00004132  46		     1C         inc     esi
			     1C     ELSE
			     1C         add     esi,1
			     1C     ENDIF
			      C     @instr_text     int_text, 3
 00004133  64: C7 05	     1C     mov     fs:instruction_text_offset,offset int_text
	   000000F3 R
	   00000612 R
 0000413E  64: C7 05	     1C     mov     fs:instruction_text_length,3
	   000000EF R
	   00000003
 00004149  E8 000043FA	      C     call    start_offsets
 0000414E  E8 00005467	      C     call    store_8_bit_value
 00004153  E8 00004406	      C     call    end_offsets
 00004158  E9 00004222	      C     jmp     store_instruction
			      C 
 0000415D		      C   _invd:
			      C     @instr_bytes    2
 0000415D  64: C7 05	     1C     mov     fs:instruction_bytes,2
	   000000EB R
	   00000002
			     1C     IF 2 EQ 1
			     1C         inc     esi
			     1C     ELSE
 00004168  83 C6 02	     1C         add     esi,2
			     1C     ENDIF
			      C     @instr_text     invd_text, 4
 0000416B  64: C7 05	     1C     mov     fs:instruction_text_offset,offset invd_text
	   000000F3 R
	   000005ED R
 00004176  64: C7 05	     1C     mov     fs:instruction_text_length,4
	   000000EF R
	   00000004
 00004181  E9 000041F9	      C     jmp     store_instruction
			      C 
 00004186		      C   _invlpg:
			      C     @instr_bytes    2
 00004186  64: C7 05	     1C     mov     fs:instruction_bytes,2
	   000000EB R
	   00000002
			     1C     IF 2 EQ 1
			     1C         inc     esi
			     1C     ELSE
 00004191  83 C6 02	     1C         add     esi,2
			     1C     ENDIF
			      C     @instr_text     invlpg_text, 6
 00004194  64: C7 05	     1C     mov     fs:instruction_text_offset,offset invlpg_text
	   000000F3 R
	   0000079B R
 0000419F  64: C7 05	     1C     mov     fs:instruction_text_length,6
	   000000EF R
	   00000006
 000041AA  E8 000046EC	      C     call    extract_mod_rm
 000041AF  E9 000041CB	      C     jmp     store_instruction
			      C 
 000041B4		      C   _iret:
			      C     @instr_bytes    1
 000041B4  64: C7 05	     1C     mov     fs:instruction_bytes,1
	   000000EB R
	   00000001
			     1C     IF 1 EQ 1
 000041BF  46		     1C         inc     esi
			     1C     ELSE
			     1C         add     esi,1
			     1C     ENDIF
			      C     .IF ((fs:cpu_mode == 0 && fs:op_size_override != 0) || (fs:cpu_mode != 0 && fs:op_size_override == 0))
 000041C0  64: 83 3D
	   0000009B R 00   *	    cmp    fs : cpu_mode, 000h
 000041C8  75 0A	   *	    jne    @C01E2
 000041CA  64: 83 3D
	   000000BF R 00   *	    cmp    fs : op_size_override, 000h
 000041D2  75 14	   *	    jne    @C01E1
 000041D4		   *@C01E2:
 000041D4  64: 83 3D
	   0000009B R 00   *	    cmp    fs : cpu_mode, 000h
 000041DC  74 22	   *	    je     @C01E0
 000041DE  64: 83 3D
	   000000BF R 00   *	    cmp    fs : op_size_override, 000h
 000041E6  75 18	   *	    jne    @C01E0
 000041E8		   *@C01E1:
			      C         @instr_text     iret_text, 4
 000041E8  64: C7 05	     1C     mov     fs:instruction_text_offset,offset iret_text
	   000000F3 R
	   0000059A R
 000041F3  64: C7 05	     1C     mov     fs:instruction_text_length,4
	   000000EF R
	   00000004
			      C     .ELSE
 000041FE  EB 16	   *	    jmp    @C01E5
 00004200		   *@C01E0:
			      C         @instr_text     iretd_text, 5
 00004200  64: C7 05	     1C     mov     fs:instruction_text_offset,offset iretd_text
	   000000F3 R
	   0000059A R
 0000420B  64: C7 05	     1C     mov     fs:instruction_text_length,5
	   000000EF R
	   00000005
			      C     .ENDIF
 00004216		   *@C01E5:
 00004216  E9 00004164	      C     jmp     store_instruction
			      C 
 0000421B		      C   _jmp8:
			      C     @instr_bytes    1
 0000421B  64: C7 05	     1C     mov     fs:instruction_bytes,1
	   000000EB R
	   00000001
			     1C     IF 1 EQ 1
 00004226  46		     1C         inc     esi
			     1C     ELSE
			     1C         add     esi,1
			     1C     ENDIF
			      C     @instr_text     jmp_text, 3
 00004227  64: C7 05	     1C     mov     fs:instruction_text_offset,offset jmp_text
	   000000F3 R
	   000006E9 R
 00004232  64: C7 05	     1C     mov     fs:instruction_text_length,3
	   000000EF R
	   00000003
 0000423D  E8 00004306	      C     call    start_offsets
 00004242  E8 000055B6	      C     call    store_8_bit_signed_value
 00004247  E8 00004312	      C     call    end_offsets
 0000424C  E9 0000412E	      C     jmp     store_instruction
			      C 
 00004251		      C   _jmp16_32:
			      C     @instr_bytes    1
 00004251  64: C7 05	     1C     mov     fs:instruction_bytes,1
	   000000EB R
	   00000001
			     1C     IF 1 EQ 1
 0000425C  46		     1C         inc     esi
			     1C     ELSE
			     1C         add     esi,1
			     1C     ENDIF
			      C     @instr_text     jmp_text, 3
 0000425D  64: C7 05	     1C     mov     fs:instruction_text_offset,offset jmp_text
	   000000F3 R
	   000006E9 R
 00004268  64: C7 05	     1C     mov     fs:instruction_text_length,3
	   000000EF R
	   00000003
 00004273  E8 000042D0	      C     call    start_offsets
			      C     .IF ((fs:cpu_mode == 0 && fs:adr_size_override != 0) || (fs:cpu_mode != 0 && fs:adr_size_override == 0))
 00004278  64: 83 3D
	   0000009B R 00   *	    cmp    fs : cpu_mode, 000h
 00004280  75 0A	   *	    jne    @C01E8
 00004282  64: 83 3D
	   000000C3 R 00   *	    cmp    fs : adr_size_override, 000h
 0000428A  75 14	   *	    jne    @C01E7
 0000428C		   *@C01E8:
 0000428C  64: 83 3D
	   0000009B R 00   *	    cmp    fs : cpu_mode, 000h
 00004294  74 11	   *	    je     @C01E6
 00004296  64: 83 3D
	   000000C3 R 00   *	    cmp    fs : adr_size_override, 000h
 0000429E  75 07	   *	    jne    @C01E6
 000042A0		   *@C01E7:
 000042A0  E8 000054A1	      C         call    store_16_bit_signed_value
			      C     .ELSE
 000042A5  EB 05	   *	    jmp    @C01EB
 000042A7		   *@C01E6:
 000042A7  E8 0000536D	      C         call    store_32_bit_signed_value
			      C     .ENDIF
 000042AC		   *@C01EB:
 000042AC  E8 000042AD	      C     call    end_offsets
 000042B1  E9 000040C9	      C     jmp     store_instruction
			      C 
 000042B6		      C   _jmp_far:
			      C     @instr_bytes    1
 000042B6  64: C7 05	     1C     mov     fs:instruction_bytes,1
	   000000EB R
	   00000001
			     1C     IF 1 EQ 1
 000042C1  46		     1C         inc     esi
			     1C     ELSE
			     1C         add     esi,1
			     1C     ENDIF
			      C     @instr_text     jmp_text, 3
 000042C2  64: C7 05	     1C     mov     fs:instruction_text_offset,offset jmp_text
	   000000F3 R
	   000006E9 R
 000042CD  64: C7 05	     1C     mov     fs:instruction_text_length,3
	   000000EF R
	   00000003
 000042D8  E8 0000426B	      C     call    start_offsets
 000042DD  E8 00005464	      C     call    store_16_bit_signed_value
 000042E2  E8 000055DE	      C     call    store_colon
			      C     .IF ((fs:cpu_mode == 0 && fs:adr_size_override != 0) || (fs:cpu_mode != 0 && fs:adr_size_override == 0))
 000042E7  64: 83 3D
	   0000009B R 00   *	    cmp    fs : cpu_mode, 000h
 000042EF  75 0A	   *	    jne    @C01EE
 000042F1  64: 83 3D
	   000000C3 R 00   *	    cmp    fs : adr_size_override, 000h
 000042F9  75 14	   *	    jne    @C01ED
 000042FB		   *@C01EE:
 000042FB  64: 83 3D
	   0000009B R 00   *	    cmp    fs : cpu_mode, 000h
 00004303  74 11	   *	    je     @C01EC
 00004305  64: 83 3D
	   000000C3 R 00   *	    cmp    fs : adr_size_override, 000h
 0000430D  75 07	   *	    jne    @C01EC
 0000430F		   *@C01ED:
 0000430F  E8 00005432	      C         call    store_16_bit_signed_value
			      C     .ELSE
 00004314  EB 05	   *	    jmp    @C01F1
 00004316		   *@C01EC:
 00004316  E8 000052FE	      C         call    store_32_bit_signed_value
			      C     .ENDIF
 0000431B		   *@C01F1:
 0000431B  E8 0000423E	      C     call    end_offsets
 00004320  E9 0000405A	      C     jmp     store_instruction
			      C 
 00004325		      C   _jmp_near_rm:
			      C     @instr_bytes    1
 00004325  64: C7 05	     1C     mov     fs:instruction_bytes,1
	   000000EB R
	   00000001
			     1C     IF 1 EQ 1
 00004330  46		     1C         inc     esi
			     1C     ELSE
			     1C         add     esi,1
			     1C     ENDIF
			      C     @instr_text     jmp_text, 3
 00004331  64: C7 05	     1C     mov     fs:instruction_text_offset,offset jmp_text
	   000000F3 R
	   000006E9 R
 0000433C  64: C7 05	     1C     mov     fs:instruction_text_length,3
	   000000EF R
	   00000003
			      C     .IF ((fs:cpu_mode == 0 && fs:adr_size_override != 0) || (fs:cpu_mode != 0 && fs:adr_size_override == 0))
 00004347  64: 83 3D
	   0000009B R 00   *	    cmp    fs : cpu_mode, 000h
 0000434F  75 0A	   *	    jne    @C01F4
 00004351  64: 83 3D
	   000000C3 R 00   *	    cmp    fs : adr_size_override, 000h
 00004359  75 14	   *	    jne    @C01F3
 0000435B		   *@C01F4:
 0000435B  64: 83 3D
	   0000009B R 00   *	    cmp    fs : cpu_mode, 000h
 00004363  74 17	   *	    je     @C01F2
 00004365  64: 83 3D
	   000000C3 R 00   *	    cmp    fs : adr_size_override, 000h
 0000436D  75 0D	   *	    jne    @C01F2
 0000436F		   *@C01F3:
 0000436F  64: C7 05	      C         mov     fs:operand_size,16
	   00000127 R
	   00000010
			      C     .ELSE
 0000437A  EB 0B	   *	    jmp    @C01F7
 0000437C		   *@C01F2:
 0000437C  64: C7 05	      C         mov     fs:operand_size,32
	   00000127 R
	   00000020
			      C     .ENDIF
 00004387		   *@C01F7:
 00004387  E8 0000450F	      C     call    extract_mod_rm
 0000438C  E9 00003FEE	      C     jmp     store_instruction
			      C 
 00004391		      C   _jmp_far_rm:
			      C     @instr_bytes    1
 00004391  64: C7 05	     1C     mov     fs:instruction_bytes,1
	   000000EB R
	   00000001
			     1C     IF 1 EQ 1
 0000439C  46		     1C         inc     esi
			     1C     ELSE
			     1C         add     esi,1
			     1C     ENDIF
			      C     @instr_text     jmp_text, 3
 0000439D  64: C7 05	     1C     mov     fs:instruction_text_offset,offset jmp_text
	   000000F3 R
	   000006E9 R
 000043A8  64: C7 05	     1C     mov     fs:instruction_text_length,3
	   000000EF R
	   00000003
			      C     .IF ((fs:cpu_mode == 0 && fs:adr_size_override != 0) || (fs:cpu_mode != 0 && fs:adr_size_override == 0))
 000043B3  64: 83 3D
	   0000009B R 00   *	    cmp    fs : cpu_mode, 000h
 000043BB  75 0A	   *	    jne    @C01FA
 000043BD  64: 83 3D
	   000000C3 R 00   *	    cmp    fs : adr_size_override, 000h
 000043C5  75 14	   *	    jne    @C01F9
 000043C7		   *@C01FA:
 000043C7  64: 83 3D
	   0000009B R 00   *	    cmp    fs : cpu_mode, 000h
 000043CF  74 17	   *	    je     @C01F8
 000043D1  64: 83 3D
	   000000C3 R 00   *	    cmp    fs : adr_size_override, 000h
 000043D9  75 0D	   *	    jne    @C01F8
 000043DB		   *@C01F9:
 000043DB  64: C7 05	      C         mov     fs:operand_size,32
	   00000127 R
	   00000020
			      C     .ELSE
 000043E6  EB 0B	   *	    jmp    @C01FD
 000043E8		   *@C01F8:
 000043E8  64: C7 05	      C         mov     fs:operand_size,48
	   00000127 R
	   00000030
			      C     .ENDIF
 000043F3		   *@C01FD:
 000043F3  E8 000044A3	      C     call    extract_mod_rm
 000043F8  E9 00003F82	      C     jmp     store_instruction
			      C 
 000043FD		      C   _jcxz:
			      C     @instr_bytes    1
 000043FD  64: C7 05	     1C     mov     fs:instruction_bytes,1
	   000000EB R
	   00000001
			     1C     IF 1 EQ 1
 00004408  46		     1C         inc     esi
			     1C     ELSE
			     1C         add     esi,1
			     1C     ENDIF
			      C     .IF ((fs:cpu_mode == 0 && fs:adr_size_override != 0) || (fs:cpu_mode != 0 && fs:adr_size_override == 0))
 00004409  64: 83 3D
	   0000009B R 00   *	    cmp    fs : cpu_mode, 000h
 00004411  75 0A	   *	    jne    @C0200
 00004413  64: 83 3D
	   000000C3 R 00   *	    cmp    fs : adr_size_override, 000h
 0000441B  75 14	   *	    jne    @C01FF
 0000441D		   *@C0200:
 0000441D  64: 83 3D
	   0000009B R 00   *	    cmp    fs : cpu_mode, 000h
 00004425  74 22	   *	    je     @C01FE
 00004427  64: 83 3D
	   000000C3 R 00   *	    cmp    fs : adr_size_override, 000h
 0000442F  75 18	   *	    jne    @C01FE
 00004431		   *@C01FF:
			      C         @instr_text     jcxz_text, 4
 00004431  64: C7 05	     1C     mov     fs:instruction_text_offset,offset jcxz_text
	   000000F3 R
	   00000619 R
 0000443C  64: C7 05	     1C     mov     fs:instruction_text_length,4
	   000000EF R
	   00000004
			      C     .ELSE
 00004447  EB 16	   *	    jmp    @C0203
 00004449		   *@C01FE:
			      C         @instr_text     jecxz_text, 5
 00004449  64: C7 05	     1C     mov     fs:instruction_text_offset,offset jecxz_text
	   000000F3 R
	   0000061D R
 00004454  64: C7 05	     1C     mov     fs:instruction_text_length,5
	   000000EF R
	   00000005
			      C     .ENDIF
 0000445F		   *@C0203:
 0000445F  E8 000040E4	      C     call    start_offsets
 00004464  E8 00005394	      C     call    store_8_bit_signed_value
 00004469  E8 000040F0	      C     call    end_offsets
 0000446E  E9 00003F0C	      C     jmp     store_instruction
			      C 
 00004473		      C   _jz:
			      C     @instr_bytes    1
 00004473  64: C7 05	     1C     mov     fs:instruction_bytes,1
	   000000EB R
	   00000001
			     1C     IF 1 EQ 1
 0000447E  46		     1C         inc     esi
			     1C     ELSE
			     1C         add     esi,1
			     1C     ENDIF
			      C     @instr_text     jz_text, 2
 0000447F  64: C7 05	     1C     mov     fs:instruction_text_offset,offset jz_text
	   000000F3 R
	   00000645 R
 0000448A  64: C7 05	     1C     mov     fs:instruction_text_length,2
	   000000EF R
	   00000002
 00004495		      C   jxx_common:
 00004495  E8 000040AE	      C     call    start_offsets
 0000449A  E8 0000535E	      C     call    store_8_bit_signed_value
 0000449F  E8 000040BA	      C     call    end_offsets
 000044A4  E9 00003ED6	      C     jmp     store_instruction
			      C 
 000044A9		      C   _jnz:
			      C     @instr_bytes    1
 000044A9  64: C7 05	     1C     mov     fs:instruction_bytes,1
	   000000EB R
	   00000001
			     1C     IF 1 EQ 1
 000044B4  46		     1C         inc     esi
			     1C     ELSE
			     1C         add     esi,1
			     1C     ENDIF
			      C     @instr_text     jnz_text, 3
 000044B5  64: C7 05	     1C     mov     fs:instruction_text_offset,offset jnz_text
	   000000F3 R
	   00000638 R
 000044C0  64: C7 05	     1C     mov     fs:instruction_text_length,3
	   000000EF R
	   00000003
 000044CB  EB C8	      C     jmp     jxx_common
			      C 
 000044CD		      C   _jz_l:
			      C     @instr_bytes    2
 000044CD  64: C7 05	     1C     mov     fs:instruction_bytes,2
	   000000EB R
	   00000002
			     1C     IF 2 EQ 1
			     1C         inc     esi
			     1C     ELSE
 000044D8  83 C6 02	     1C         add     esi,2
			     1C     ENDIF
			      C     @instr_text     jz_text, 2
 000044DB  64: C7 05	     1C     mov     fs:instruction_text_offset,offset jz_text
	   000000F3 R
	   00000645 R
 000044E6  64: C7 05	     1C     mov     fs:instruction_text_length,2
	   000000EF R
	   00000002
 000044F1		      C   jxx_common_l:
 000044F1  E8 00004052	      C     call    start_offsets
			      C     .IF ((fs:cpu_mode == 0 && fs:adr_size_override != 0) || (fs:cpu_mode != 0 && fs:adr_size_override == 0))
 000044F6  64: 83 3D
	   0000009B R 00   *	    cmp    fs : cpu_mode, 000h
 000044FE  75 0A	   *	    jne    @C0206
 00004500  64: 83 3D
	   000000C3 R 00   *	    cmp    fs : adr_size_override, 000h
 00004508  75 14	   *	    jne    @C0205
 0000450A		   *@C0206:
 0000450A  64: 83 3D
	   0000009B R 00   *	    cmp    fs : cpu_mode, 000h
 00004512  74 11	   *	    je     @C0204
 00004514  64: 83 3D
	   000000C3 R 00   *	    cmp    fs : adr_size_override, 000h
 0000451C  75 07	   *	    jne    @C0204
 0000451E		   *@C0205:
 0000451E  E8 00005223	      C         call    store_16_bit_signed_value
			      C     .ELSE
 00004523  EB 05	   *	    jmp    @C0209
 00004525		   *@C0204:
 00004525  E8 000050EF	      C         call    store_32_bit_signed_value
			      C     .ENDIF
 0000452A		   *@C0209:
 0000452A  E8 0000402F	      C     call    end_offsets
 0000452F  E9 00003E4B	      C     jmp     store_instruction
			      C 
 00004534		      C   _jnz_l:
			      C     @instr_bytes    2
 00004534  64: C7 05	     1C     mov     fs:instruction_bytes,2
	   000000EB R
	   00000002
			     1C     IF 2 EQ 1
			     1C         inc     esi
			     1C     ELSE
 0000453F  83 C6 02	     1C         add     esi,2
			     1C     ENDIF
			      C     @instr_text     jnz_text, 3
 00004542  64: C7 05	     1C     mov     fs:instruction_text_offset,offset jnz_text
	   000000F3 R
	   00000638 R
 0000454D  64: C7 05	     1C     mov     fs:instruction_text_length,3
	   000000EF R
	   00000003
 00004558  EB 97	      C     jmp     jxx_common_l
			      C 
 0000455A		      C   _ja:
			      C     @instr_bytes    1
 0000455A  64: C7 05	     1C     mov     fs:instruction_bytes,1
	   000000EB R
	   00000001
			     1C     IF 1 EQ 1
 00004565  46		     1C         inc     esi
			     1C     ELSE
			     1C         add     esi,1
			     1C     ENDIF
			      C     @instr_text     ja_text, 2
 00004566  64: C7 05	     1C     mov     fs:instruction_text_offset,offset ja_text
	   000000F3 R
	   00000615 R
 00004571  64: C7 05	     1C     mov     fs:instruction_text_length,2
	   000000EF R
	   00000002
 0000457C  E9 FFFFFF14	      C     jmp     jxx_common
			      C 
 00004581		      C   _jna:
			      C     @instr_bytes    1
 00004581  64: C7 05	     1C     mov     fs:instruction_bytes,1
	   000000EB R
	   00000001
			     1C     IF 1 EQ 1
 0000458C  46		     1C         inc     esi
			     1C     ELSE
			     1C         add     esi,1
			     1C     ENDIF
			      C     @instr_text     jna_text, 3
 0000458D  64: C7 05	     1C     mov     fs:instruction_text_offset,offset jna_text
	   000000F3 R
	   00000626 R
 00004598  64: C7 05	     1C     mov     fs:instruction_text_length,3
	   000000EF R
	   00000003
 000045A3  E9 FFFFFEED	      C     jmp     jxx_common
			      C 
 000045A8		      C   _ja_l:
			      C     @instr_bytes    2
 000045A8  64: C7 05	     1C     mov     fs:instruction_bytes,2
	   000000EB R
	   00000002
			     1C     IF 2 EQ 1
			     1C         inc     esi
			     1C     ELSE
 000045B3  83 C6 02	     1C         add     esi,2
			     1C     ENDIF
			      C     @instr_text     ja_text, 2
 000045B6  64: C7 05	     1C     mov     fs:instruction_text_offset,offset ja_text
	   000000F3 R
	   00000615 R
 000045C1  64: C7 05	     1C     mov     fs:instruction_text_length,2
	   000000EF R
	   00000002
 000045CC  E9 FFFFFF20	      C     jmp     jxx_common_l
			      C 
 000045D1		      C   _jna_l:
			      C     @instr_bytes    2
 000045D1  64: C7 05	     1C     mov     fs:instruction_bytes,2
	   000000EB R
	   00000002
			     1C     IF 2 EQ 1
			     1C         inc     esi
			     1C     ELSE
 000045DC  83 C6 02	     1C         add     esi,2
			     1C     ENDIF
			      C     @instr_text     jna_text, 3
 000045DF  64: C7 05	     1C     mov     fs:instruction_text_offset,offset jna_text
	   000000F3 R
	   00000626 R
 000045EA  64: C7 05	     1C     mov     fs:instruction_text_length,3
	   000000EF R
	   00000003
 000045F5  E9 FFFFFEF7	      C     jmp     jxx_common_l
			      C 
 000045FA		      C   _jc:
			      C     @instr_bytes    1
 000045FA  64: C7 05	     1C     mov     fs:instruction_bytes,1
	   000000EB R
	   00000001
			     1C     IF 1 EQ 1
 00004605  46		     1C         inc     esi
			     1C     ELSE
			     1C         add     esi,1
			     1C     ENDIF
			      C     @instr_text     jc_text, 2
 00004606  64: C7 05	     1C     mov     fs:instruction_text_offset,offset jc_text
	   000000F3 R
	   00000617 R
 00004611  64: C7 05	     1C     mov     fs:instruction_text_length,2
	   000000EF R
	   00000002
 0000461C  E9 FFFFFE74	      C     jmp     jxx_common
			      C 
 00004621		      C   _jnc:
			      C     @instr_bytes    1
 00004621  64: C7 05	     1C     mov     fs:instruction_bytes,1
	   000000EB R
	   00000001
			     1C     IF 1 EQ 1
 0000462C  46		     1C         inc     esi
			     1C     ELSE
			     1C         add     esi,1
			     1C     ENDIF
			      C     @instr_text     jnc_text, 3
 0000462D  64: C7 05	     1C     mov     fs:instruction_text_offset,offset jnc_text
	   000000F3 R
	   00000629 R
 00004638  64: C7 05	     1C     mov     fs:instruction_text_length,3
	   000000EF R
	   00000003
 00004643  E9 FFFFFE4D	      C     jmp     jxx_common
			      C 
 00004648		      C   _jc_l:
			      C     @instr_bytes    2
 00004648  64: C7 05	     1C     mov     fs:instruction_bytes,2
	   000000EB R
	   00000002
			     1C     IF 2 EQ 1
			     1C         inc     esi
			     1C     ELSE
 00004653  83 C6 02	     1C         add     esi,2
			     1C     ENDIF
			      C     @instr_text     jc_text, 2
 00004656  64: C7 05	     1C     mov     fs:instruction_text_offset,offset jc_text
	   000000F3 R
	   00000617 R
 00004661  64: C7 05	     1C     mov     fs:instruction_text_length,2
	   000000EF R
	   00000002
 0000466C  E9 FFFFFE80	      C     jmp     jxx_common_l
			      C 
 00004671		      C   _jnc_l:
			      C     @instr_bytes    2
 00004671  64: C7 05	     1C     mov     fs:instruction_bytes,2
	   000000EB R
	   00000002
			     1C     IF 2 EQ 1
			     1C         inc     esi
			     1C     ELSE
 0000467C  83 C6 02	     1C         add     esi,2
			     1C     ENDIF
			      C     @instr_text     jnc_text, 3
 0000467F  64: C7 05	     1C     mov     fs:instruction_text_offset,offset jnc_text
	   000000F3 R
	   00000629 R
 0000468A  64: C7 05	     1C     mov     fs:instruction_text_length,3
	   000000EF R
	   00000003
 00004695  E9 FFFFFE57	      C     jmp     jxx_common_l
			      C 
 0000469A		      C   _jg:
			      C     @instr_bytes    1
 0000469A  64: C7 05	     1C     mov     fs:instruction_bytes,1
	   000000EB R
	   00000001
			     1C     IF 1 EQ 1
 000046A5  46		     1C         inc     esi
			     1C     ELSE
			     1C         add     esi,1
			     1C     ENDIF
			      C     @instr_text     jg_text, 2
 000046A6  64: C7 05	     1C     mov     fs:instruction_text_offset,offset jg_text
	   000000F3 R
	   00000622 R
 000046B1  64: C7 05	     1C     mov     fs:instruction_text_length,2
	   000000EF R
	   00000002
 000046BC  E9 FFFFFDD4	      C     jmp     jxx_common
			      C 
 000046C1		      C   _jng:
			      C     @instr_bytes    1
 000046C1  64: C7 05	     1C     mov     fs:instruction_bytes,1
	   000000EB R
	   00000001
			     1C     IF 1 EQ 1
 000046CC  46		     1C         inc     esi
			     1C     ELSE
			     1C         add     esi,1
			     1C     ENDIF
			      C     @instr_text     jng_text, 3
 000046CD  64: C7 05	     1C     mov     fs:instruction_text_offset,offset jng_text
	   000000F3 R
	   0000062C R
 000046D8  64: C7 05	     1C     mov     fs:instruction_text_length,3
	   000000EF R
	   00000003
 000046E3  E9 FFFFFDAD	      C     jmp     jxx_common
			      C 
 000046E8		      C   _jg_l:
			      C     @instr_bytes    2
 000046E8  64: C7 05	     1C     mov     fs:instruction_bytes,2
	   000000EB R
	   00000002
			     1C     IF 2 EQ 1
			     1C         inc     esi
			     1C     ELSE
 000046F3  83 C6 02	     1C         add     esi,2
			     1C     ENDIF
			      C     @instr_text     jg_text, 2
 000046F6  64: C7 05	     1C     mov     fs:instruction_text_offset,offset jg_text
	   000000F3 R
	   00000622 R
 00004701  64: C7 05	     1C     mov     fs:instruction_text_length,2
	   000000EF R
	   00000002
 0000470C  E9 FFFFFDE0	      C     jmp     jxx_common_l
			      C 
 00004711		      C   _jng_l:
			      C     @instr_bytes    2
 00004711  64: C7 05	     1C     mov     fs:instruction_bytes,2
	   000000EB R
	   00000002
			     1C     IF 2 EQ 1
			     1C         inc     esi
			     1C     ELSE
 0000471C  83 C6 02	     1C         add     esi,2
			     1C     ENDIF
			      C     @instr_text     jng_text, 3
 0000471F  64: C7 05	     1C     mov     fs:instruction_text_offset,offset jng_text
	   000000F3 R
	   0000062C R
 0000472A  64: C7 05	     1C     mov     fs:instruction_text_length,3
	   000000EF R
	   00000003
 00004735  E9 FFFFFDB7	      C     jmp     jxx_common_l
			      C 
 0000473A		      C   _jl:
			      C     @instr_bytes    1
 0000473A  64: C7 05	     1C     mov     fs:instruction_bytes,1
	   000000EB R
	   00000001
			     1C     IF 1 EQ 1
 00004745  46		     1C         inc     esi
			     1C     ELSE
			     1C         add     esi,1
			     1C     ENDIF
			      C     @instr_text     jl_text, 2
 00004746  64: C7 05	     1C     mov     fs:instruction_text_offset,offset jl_text
	   000000F3 R
	   00000624 R
 00004751  64: C7 05	     1C     mov     fs:instruction_text_length,2
	   000000EF R
	   00000002
 0000475C  E9 FFFFFD34	      C     jmp     jxx_common
			      C 
 00004761		      C   _jnl:
			      C     @instr_bytes    1
 00004761  64: C7 05	     1C     mov     fs:instruction_bytes,1
	   000000EB R
	   00000001
			     1C     IF 1 EQ 1
 0000476C  46		     1C         inc     esi
			     1C     ELSE
			     1C         add     esi,1
			     1C     ENDIF
			      C     @instr_text     jnl_text, 3
 0000476D  64: C7 05	     1C     mov     fs:instruction_text_offset,offset jnl_text
	   000000F3 R
	   0000062F R
 00004778  64: C7 05	     1C     mov     fs:instruction_text_length,3
	   000000EF R
	   00000003
 00004783  E9 FFFFFD0D	      C     jmp     jxx_common
			      C 
 00004788		      C   _jl_l:
			      C     @instr_bytes    2
 00004788  64: C7 05	     1C     mov     fs:instruction_bytes,2
	   000000EB R
	   00000002
			     1C     IF 2 EQ 1
			     1C         inc     esi
			     1C     ELSE
 00004793  83 C6 02	     1C         add     esi,2
			     1C     ENDIF
			      C     @instr_text     jl_text, 2
 00004796  64: C7 05	     1C     mov     fs:instruction_text_offset,offset jl_text
	   000000F3 R
	   00000624 R
 000047A1  64: C7 05	     1C     mov     fs:instruction_text_length,2
	   000000EF R
	   00000002
 000047AC  E9 FFFFFD40	      C     jmp     jxx_common_l
			      C 
 000047B1		      C   _jnl_l:
			      C     @instr_bytes    2
 000047B1  64: C7 05	     1C     mov     fs:instruction_bytes,2
	   000000EB R
	   00000002
			     1C     IF 2 EQ 1
			     1C         inc     esi
			     1C     ELSE
 000047BC  83 C6 02	     1C         add     esi,2
			     1C     ENDIF
			      C     @instr_text     jnl_text, 3
 000047BF  64: C7 05	     1C     mov     fs:instruction_text_offset,offset jnl_text
	   000000F3 R
	   0000062F R
 000047CA  64: C7 05	     1C     mov     fs:instruction_text_length,3
	   000000EF R
	   00000003
 000047D5  E9 FFFFFD17	      C     jmp     jxx_common_l
			      C 
 000047DA		      C   _jo:
			      C     @instr_bytes    1
 000047DA  64: C7 05	     1C     mov     fs:instruction_bytes,1
	   000000EB R
	   00000001
			     1C     IF 1 EQ 1
 000047E5  46		     1C         inc     esi
			     1C     ELSE
			     1C         add     esi,1
			     1C     ENDIF
			      C     @instr_text     jo_text, 2
 000047E6  64: C7 05	     1C     mov     fs:instruction_text_offset,offset jo_text
	   000000F3 R
	   0000063B R
 000047F1  64: C7 05	     1C     mov     fs:instruction_text_length,2
	   000000EF R
	   00000002
 000047FC  E9 FFFFFC94	      C     jmp     jxx_common
			      C 
 00004801		      C   _jno:
			      C     @instr_bytes    1
 00004801  64: C7 05	     1C     mov     fs:instruction_bytes,1
	   000000EB R
	   00000001
			     1C     IF 1 EQ 1
 0000480C  46		     1C         inc     esi
			     1C     ELSE
			     1C         add     esi,1
			     1C     ENDIF
			      C     @instr_text     jno_text, 3
 0000480D  64: C7 05	     1C     mov     fs:instruction_text_offset,offset jno_text
	   000000F3 R
	   00000632 R
 00004818  64: C7 05	     1C     mov     fs:instruction_text_length,3
	   000000EF R
	   00000003
 00004823  E9 FFFFFC6D	      C     jmp     jxx_common
			      C 
 00004828		      C   _jo_l:
			      C     @instr_bytes    2
 00004828  64: C7 05	     1C     mov     fs:instruction_bytes,2
	   000000EB R
	   00000002
			     1C     IF 2 EQ 1
			     1C         inc     esi
			     1C     ELSE
 00004833  83 C6 02	     1C         add     esi,2
			     1C     ENDIF
			      C     @instr_text     jo_text, 2
 00004836  64: C7 05	     1C     mov     fs:instruction_text_offset,offset jo_text
	   000000F3 R
	   0000063B R
 00004841  64: C7 05	     1C     mov     fs:instruction_text_length,2
	   000000EF R
	   00000002
 0000484C  E9 FFFFFCA0	      C     jmp     jxx_common_l
			      C 
 00004851		      C   _jno_l:
			      C     @instr_bytes    2
 00004851  64: C7 05	     1C     mov     fs:instruction_bytes,2
	   000000EB R
	   00000002
			     1C     IF 2 EQ 1
			     1C         inc     esi
			     1C     ELSE
 0000485C  83 C6 02	     1C         add     esi,2
			     1C     ENDIF
			      C     @instr_text     jno_text, 3
 0000485F  64: C7 05	     1C     mov     fs:instruction_text_offset,offset jno_text
	   000000F3 R
	   00000632 R
 0000486A  64: C7 05	     1C     mov     fs:instruction_text_length,3
	   000000EF R
	   00000003
 00004875  E9 FFFFFC77	      C     jmp     jxx_common_l
			      C 
 0000487A		      C   _jpe:
			      C     @instr_bytes    1
 0000487A  64: C7 05	     1C     mov     fs:instruction_bytes,1
	   000000EB R
	   00000001
			     1C     IF 1 EQ 1
 00004885  46		     1C         inc     esi
			     1C     ELSE
			     1C         add     esi,1
			     1C     ENDIF
			      C     @instr_text     jpe_text, 3
 00004886  64: C7 05	     1C     mov     fs:instruction_text_offset,offset jpe_text
	   000000F3 R
	   0000063D R
 00004891  64: C7 05	     1C     mov     fs:instruction_text_length,3
	   000000EF R
	   00000003
 0000489C  E9 FFFFFBF4	      C     jmp     jxx_common
			      C 
 000048A1		      C   _jpo:
			      C     @instr_bytes    1
 000048A1  64: C7 05	     1C     mov     fs:instruction_bytes,1
	   000000EB R
	   00000001
			     1C     IF 1 EQ 1
 000048AC  46		     1C         inc     esi
			     1C     ELSE
			     1C         add     esi,1
			     1C     ENDIF
			      C     @instr_text     jpo_text, 3
 000048AD  64: C7 05	     1C     mov     fs:instruction_text_offset,offset jpo_text
	   000000F3 R
	   00000640 R
 000048B8  64: C7 05	     1C     mov     fs:instruction_text_length,3
	   000000EF R
	   00000003
 000048C3  E9 FFFFFBCD	      C     jmp     jxx_common
			      C 
 000048C8		      C   _jpe_l:
			      C     @instr_bytes    2
 000048C8  64: C7 05	     1C     mov     fs:instruction_bytes,2
	   000000EB R
	   00000002
			     1C     IF 2 EQ 1
			     1C         inc     esi
			     1C     ELSE
 000048D3  83 C6 02	     1C         add     esi,2
			     1C     ENDIF
			      C     @instr_text     jpe_text, 3
 000048D6  64: C7 05	     1C     mov     fs:instruction_text_offset,offset jpe_text
	   000000F3 R
	   0000063D R
 000048E1  64: C7 05	     1C     mov     fs:instruction_text_length,3
	   000000EF R
	   00000003
 000048EC  E9 FFFFFC00	      C     jmp     jxx_common_l
			      C 
 000048F1		      C   _jpo_l:
			      C     @instr_bytes    2
 000048F1  64: C7 05	     1C     mov     fs:instruction_bytes,2
	   000000EB R
	   00000002
			     1C     IF 2 EQ 1
			     1C         inc     esi
			     1C     ELSE
 000048FC  83 C6 02	     1C         add     esi,2
			     1C     ENDIF
			      C     @instr_text     jpo_text, 3
 000048FF  64: C7 05	     1C     mov     fs:instruction_text_offset,offset jpo_text
	   000000F3 R
	   00000640 R
 0000490A  64: C7 05	     1C     mov     fs:instruction_text_length,3
	   000000EF R
	   00000003
 00004915  E9 FFFFFBD7	      C     jmp     jxx_common_l
			      C 
 0000491A		      C   _js:
			      C     @instr_bytes    1
 0000491A  64: C7 05	     1C     mov     fs:instruction_bytes,1
	   000000EB R
	   00000001
			     1C     IF 1 EQ 1
 00004925  46		     1C         inc     esi
			     1C     ELSE
			     1C         add     esi,1
			     1C     ENDIF
			      C     @instr_text     js_text, 2
 00004926  64: C7 05	     1C     mov     fs:instruction_text_offset,offset js_text
	   000000F3 R
	   00000643 R
 00004931  64: C7 05	     1C     mov     fs:instruction_text_length,2
	   000000EF R
	   00000002
 0000493C  E9 FFFFFB54	      C     jmp     jxx_common
			      C 
 00004941		      C   _jns:
			      C     @instr_bytes    1
 00004941  64: C7 05	     1C     mov     fs:instruction_bytes,1
	   000000EB R
	   00000001
			     1C     IF 1 EQ 1
 0000494C  46		     1C         inc     esi
			     1C     ELSE
			     1C         add     esi,1
			     1C     ENDIF
			      C     @instr_text     jns_text, 3
 0000494D  64: C7 05	     1C     mov     fs:instruction_text_offset,offset jns_text
	   000000F3 R
	   00000635 R
 00004958  64: C7 05	     1C     mov     fs:instruction_text_length,3
	   000000EF R
	   00000003
 00004963  E9 FFFFFB2D	      C     jmp     jxx_common
			      C 
 00004968		      C   _js_l:
			      C     @instr_bytes    2
 00004968  64: C7 05	     1C     mov     fs:instruction_bytes,2
	   000000EB R
	   00000002
			     1C     IF 2 EQ 1
			     1C         inc     esi
			     1C     ELSE
 00004973  83 C6 02	     1C         add     esi,2
			     1C     ENDIF
			      C     @instr_text     js_text, 2
 00004976  64: C7 05	     1C     mov     fs:instruction_text_offset,offset js_text
	   000000F3 R
	   00000643 R
 00004981  64: C7 05	     1C     mov     fs:instruction_text_length,2
	   000000EF R
	   00000002
 0000498C  E9 FFFFFB60	      C     jmp     jxx_common_l
			      C 
 00004991		      C   _jns_l:
			      C     @instr_bytes    2
 00004991  64: C7 05	     1C     mov     fs:instruction_bytes,2
	   000000EB R
	   00000002
			     1C     IF 2 EQ 1
			     1C         inc     esi
			     1C     ELSE
 0000499C  83 C6 02	     1C         add     esi,2
			     1C     ENDIF
			      C     @instr_text     jns_text, 3
 0000499F  64: C7 05	     1C     mov     fs:instruction_text_offset,offset jns_text
	   000000F3 R
	   00000635 R
 000049AA  64: C7 05	     1C     mov     fs:instruction_text_length,3
	   000000EF R
	   00000003
 000049B5  E9 FFFFFB37	      C     jmp     jxx_common_l
			      C 
 000049BA		      C   _lahf:
			      C     @instr_bytes    1
 000049BA  64: C7 05	     1C     mov     fs:instruction_bytes,1
	   000000EB R
	   00000001
			     1C     IF 1 EQ 1
 000049C5  46		     1C         inc     esi
			     1C     ELSE
			     1C         add     esi,1
			     1C     ENDIF
			      C     @instr_text     lahf_text, 4
 000049C6  64: C7 05	     1C     mov     fs:instruction_text_offset,offset lahf_text
	   000000F3 R
	   0000059F R
 000049D1  64: C7 05	     1C     mov     fs:instruction_text_length,4
	   000000EF R
	   00000004
 000049DC  E9 0000399E	      C     jmp     store_instruction
			      C 
 000049E1		      C   _lar:
			      C     @instr_bytes    2
 000049E1  64: C7 05	     1C     mov     fs:instruction_bytes,2
	   000000EB R
	   00000002
			     1C     IF 2 EQ 1
			     1C         inc     esi
			     1C     ELSE
 000049EC  83 C6 02	     1C         add     esi,2
			     1C     ENDIF
			      C     @instr_text     lar_text, 3
 000049EF  64: C7 05	     1C     mov     fs:instruction_text_offset,offset lar_text
	   000000F3 R
	   000007A1 R
 000049FA  64: C7 05	     1C     mov     fs:instruction_text_length,3
	   000000EF R
	   00000003
 00004A05  64: C7 05	      C     mov     fs:reverse_mod_reg_rm,1
	   000000C7 R
	   00000001
 00004A10  E8 00003BC6	      C     call    determine_standard_operand_size
 00004A15  E8 00003C02	      C     call    extract_mod_reg_rm
 00004A1A  E9 00003960	      C     jmp     store_instruction
			      C 
 00004A1F		      C   _lds:
			      C     @instr_bytes    1
 00004A1F  64: C7 05	     1C     mov     fs:instruction_bytes,1
	   000000EB R
	   00000001
			     1C     IF 1 EQ 1
 00004A2A  46		     1C         inc     esi
			     1C     ELSE
			     1C         add     esi,1
			     1C     ENDIF
			      C     @instr_text     lds_text, 3
 00004A2B  64: C7 05	     1C     mov     fs:instruction_text_offset,offset lds_text
	   000000F3 R
	   000006FF R
 00004A36  64: C7 05	     1C     mov     fs:instruction_text_length,3
	   000000EF R
	   00000003
 00004A41		      C   _lxx_common:
 00004A41  64: C7 05	      C     mov     fs:reverse_mod_reg_rm,1
	   000000C7 R
	   00000001
 00004A4C  E8 00003B8A	      C     call    determine_standard_operand_size
 00004A51  E8 00003BC6	      C     call    extract_mod_reg_rm
 00004A56  E9 00003924	      C     jmp     store_instruction
			      C 
 00004A5B		      C   _les:
			      C     @instr_bytes    1
 00004A5B  64: C7 05	     1C     mov     fs:instruction_bytes,1
	   000000EB R
	   00000001
			     1C     IF 1 EQ 1
 00004A66  46		     1C         inc     esi
			     1C     ELSE
			     1C         add     esi,1
			     1C     ENDIF
			      C     @instr_text     les_text, 3
 00004A67  64: C7 05	     1C     mov     fs:instruction_text_offset,offset les_text
	   000000F3 R
	   00000702 R
 00004A72  64: C7 05	     1C     mov     fs:instruction_text_length,3
	   000000EF R
	   00000003
 00004A7D  EB C2	      C     jmp     _lxx_common
			      C 
 00004A7F		      C   _lfs:
			      C     @instr_bytes    2
 00004A7F  64: C7 05	     1C     mov     fs:instruction_bytes,2
	   000000EB R
	   00000002
			     1C     IF 2 EQ 1
			     1C         inc     esi
			     1C     ELSE
 00004A8A  83 C6 02	     1C         add     esi,2
			     1C     ENDIF
			      C     @instr_text     lfs_text, 3
 00004A8D  64: C7 05	     1C     mov     fs:instruction_text_offset,offset lfs_text
	   000000F3 R
	   000007A4 R
 00004A98  64: C7 05	     1C     mov     fs:instruction_text_length,3
	   000000EF R
	   00000003
 00004AA3  EB 9C	      C     jmp     _lxx_common
			      C 
 00004AA5		      C   _lgs:
			      C     @instr_bytes    2
 00004AA5  64: C7 05	     1C     mov     fs:instruction_bytes,2
	   000000EB R
	   00000002
			     1C     IF 2 EQ 1
			     1C         inc     esi
			     1C     ELSE
 00004AB0  83 C6 02	     1C         add     esi,2
			     1C     ENDIF
			      C     @instr_text     lgs_text, 3
 00004AB3  64: C7 05	     1C     mov     fs:instruction_text_offset,offset lgs_text
	   000000F3 R
	   000007A7 R
 00004ABE  64: C7 05	     1C     mov     fs:instruction_text_length,3
	   000000EF R
	   00000003
 00004AC9  E9 FFFFFF73	      C     jmp     _lxx_common
			      C 
 00004ACE		      C   _lss:
			      C     @instr_bytes    2
 00004ACE  64: C7 05	     1C     mov     fs:instruction_bytes,2
	   000000EB R
	   00000002
			     1C     IF 2 EQ 1
			     1C         inc     esi
			     1C     ELSE
 00004AD9  83 C6 02	     1C         add     esi,2
			     1C     ENDIF
			      C     @instr_text     lss_text, 3
 00004ADC  64: C7 05	     1C     mov     fs:instruction_text_offset,offset lss_text
	   000000F3 R
	   000007AA R
 00004AE7  64: C7 05	     1C     mov     fs:instruction_text_length,3
	   000000EF R
	   00000003
 00004AF2  E9 FFFFFF4A	      C     jmp     _lxx_common
			      C 
 00004AF7		      C   _lea:
			      C     @instr_bytes    1
 00004AF7  64: C7 05	     1C     mov     fs:instruction_bytes,1
	   000000EB R
	   00000001
			     1C     IF 1 EQ 1
 00004B02  46		     1C         inc     esi
			     1C     ELSE
			     1C         add     esi,1
			     1C     ENDIF
			      C     @instr_text     lea_text, 3
 00004B03  64: C7 05	     1C     mov     fs:instruction_text_offset,offset lea_text
	   000000F3 R
	   00000705 R
 00004B0E  64: C7 05	     1C     mov     fs:instruction_text_length,3
	   000000EF R
	   00000003
 00004B19  E9 FFFFFF23	      C     jmp     _lxx_common
			      C 
 00004B1E		      C   _leave:
			      C     @instr_bytes    1
 00004B1E  64: C7 05	     1C     mov     fs:instruction_bytes,1
	   000000EB R
	   00000001
			     1C     IF 1 EQ 1
 00004B29  46		     1C         inc     esi
			     1C     ELSE
			     1C         add     esi,1
			     1C     ENDIF
			      C     @instr_text     leave_text, 5
 00004B2A  64: C7 05	     1C     mov     fs:instruction_text_offset,offset leave_text
	   000000F3 R
	   000005A3 R
 00004B35  64: C7 05	     1C     mov     fs:instruction_text_length,5
	   000000EF R
	   00000005
 00004B40  E9 0000383A	      C     jmp     store_instruction
			      C 
 00004B45		      C   _lgdt:
			      C     @instr_bytes    2
 00004B45  64: C7 05	     1C     mov     fs:instruction_bytes,2
	   000000EB R
	   00000002
			     1C     IF 2 EQ 1
			     1C         inc     esi
			     1C     ELSE
 00004B50  83 C6 02	     1C         add     esi,2
			     1C     ENDIF
			      C     @instr_text     lgdt_text, 4
 00004B53  64: C7 05	     1C     mov     fs:instruction_text_offset,offset lgdt_text
	   000000F3 R
	   000007AD R
 00004B5E  64: C7 05	     1C     mov     fs:instruction_text_length,4
	   000000EF R
	   00000004
 00004B69		      C   xxdt_common:
 00004B69  64: C7 05	      C     mov     fs:operand_size,48
	   00000127 R
	   00000030
 00004B74  E8 00003D22	      C     call    extract_mod_rm
 00004B79  E9 00003801	      C     jmp     store_instruction
			      C 
 00004B7E		      C   _lidt:
			      C     @instr_bytes    2
 00004B7E  64: C7 05	     1C     mov     fs:instruction_bytes,2
	   000000EB R
	   00000002
			     1C     IF 2 EQ 1
			     1C         inc     esi
			     1C     ELSE
 00004B89  83 C6 02	     1C         add     esi,2
			     1C     ENDIF
			      C     @instr_text     lidt_text, 4
 00004B8C  64: C7 05	     1C     mov     fs:instruction_text_offset,offset lidt_text
	   000000F3 R
	   000007B1 R
 00004B97  64: C7 05	     1C     mov     fs:instruction_text_length,4
	   000000EF R
	   00000004
 00004BA2  EB C5	      C     jmp     xxdt_common
			      C 
 00004BA4		      C   _lldt:
			      C     @instr_bytes    2
 00004BA4  64: C7 05	     1C     mov     fs:instruction_bytes,2
	   000000EB R
	   00000002
			     1C     IF 2 EQ 1
			     1C         inc     esi
			     1C     ELSE
 00004BAF  83 C6 02	     1C         add     esi,2
			     1C     ENDIF
			      C     @instr_text     lldt_text, 4
 00004BB2  64: C7 05	     1C     mov     fs:instruction_text_offset,offset lldt_text
	   000000F3 R
	   000007B5 R
 00004BBD  64: C7 05	     1C     mov     fs:instruction_text_length,4
	   000000EF R
	   00000004
 00004BC8		      C   xldt_common:
 00004BC8  E8 00003A0E	      C     call    determine_standard_operand_size
 00004BCD  E8 00003CC9	      C     call    extract_mod_rm
 00004BD2  E9 000037A8	      C     jmp     store_instruction
			      C 
 00004BD7		      C   _ltr:
			      C     @instr_bytes    2
 00004BD7  64: C7 05	     1C     mov     fs:instruction_bytes,2
	   000000EB R
	   00000002
			     1C     IF 2 EQ 1
			     1C         inc     esi
			     1C     ELSE
 00004BE2  83 C6 02	     1C         add     esi,2
			     1C     ENDIF
			      C     @instr_text     ltr_text, 3
 00004BE5  64: C7 05	     1C     mov     fs:instruction_text_offset,offset ltr_text
	   000000F3 R
	   000007C0 R
 00004BF0  64: C7 05	     1C     mov     fs:instruction_text_length,3
	   000000EF R
	   00000003
 00004BFB  64: C7 05	      C     mov     fs:operand_size,16
	   00000127 R
	   00000010
 00004C06  E8 00003C90	      C     call    extract_mod_rm
 00004C0B  E9 0000376F	      C     jmp     store_instruction
			      C 
 00004C10		      C   _lmsw:
			      C     @instr_bytes    2
 00004C10  64: C7 05	     1C     mov     fs:instruction_bytes,2
	   000000EB R
	   00000002
			     1C     IF 2 EQ 1
			     1C         inc     esi
			     1C     ELSE
 00004C1B  83 C6 02	     1C         add     esi,2
			     1C     ENDIF
			      C     @instr_text     lmsw_text, 4
 00004C1E  64: C7 05	     1C     mov     fs:instruction_text_offset,offset lmsw_text
	   000000F3 R
	   000007B9 R
 00004C29  64: C7 05	     1C     mov     fs:instruction_text_length,4
	   000000EF R
	   00000004
 00004C34  64: C7 05	      C     mov     fs:operand_size,16
	   00000127 R
	   00000010
 00004C3F  E8 00003C57	      C     call    extract_mod_rm
 00004C44  E9 00003736	      C     jmp     store_instruction
			      C 
 00004C49		      C   _lock_prefix:
			      C     @instr_bytes    1
 00004C49  64: C7 05	     1C     mov     fs:instruction_bytes,1
	   000000EB R
	   00000001
			     1C     IF 1 EQ 1
 00004C54  46		     1C         inc     esi
			     1C     ELSE
			     1C         add     esi,1
			     1C     ENDIF
			      C     @instr_text     lock_text, 4
 00004C55  64: C7 05	     1C     mov     fs:instruction_text_offset,offset lock_text
	   000000F3 R
	   000005A8 R
 00004C60  64: C7 05	     1C     mov     fs:instruction_text_length,4
	   000000EF R
	   00000004
 00004C6B  E9 0000370F	      C     jmp     store_instruction
			      C 
 00004C70		      C   _lodsb:
			      C     @instr_bytes    1
 00004C70  64: C7 05	     1C     mov     fs:instruction_bytes,1
	   000000EB R
	   00000001
			     1C     IF 1 EQ 1
 00004C7B  46		     1C         inc     esi
			     1C     ELSE
			     1C         add     esi,1
			     1C     ENDIF
			      C     @instr_text     lodsb_text, 5
 00004C7C  64: C7 05	     1C     mov     fs:instruction_text_offset,offset lodsb_text
	   000000F3 R
	   0000073E R
 00004C87  64: C7 05	     1C     mov     fs:instruction_text_length,5
	   000000EF R
	   00000005
 00004C92  E9 000036E8	      C     jmp     store_instruction
			      C 
 00004C97		      C   _lodsw:
			      C     @instr_bytes    1
 00004C97  64: C7 05	     1C     mov     fs:instruction_bytes,1
	   000000EB R
	   00000001
			     1C     IF 1 EQ 1
 00004CA2  46		     1C         inc     esi
			     1C     ELSE
			     1C         add     esi,1
			     1C     ENDIF
			      C     .IF ((fs:cpu_mode == 0 && fs:op_size_override != 0) || (fs:cpu_mode != 0 && fs:op_size_override == 0))
 00004CA3  64: 83 3D
	   0000009B R 00   *	    cmp    fs : cpu_mode, 000h
 00004CAB  75 0A	   *	    jne    @C020C
 00004CAD  64: 83 3D
	   000000BF R 00   *	    cmp    fs : op_size_override, 000h
 00004CB5  75 14	   *	    jne    @C020B
 00004CB7		   *@C020C:
 00004CB7  64: 83 3D
	   0000009B R 00   *	    cmp    fs : cpu_mode, 000h
 00004CBF  74 22	   *	    je     @C020A
 00004CC1  64: 83 3D
	   000000BF R 00   *	    cmp    fs : op_size_override, 000h
 00004CC9  75 18	   *	    jne    @C020A
 00004CCB		   *@C020B:
			      C         @instr_text     lodsw_text, 5
 00004CCB  64: C7 05	     1C     mov     fs:instruction_text_offset,offset lodsw_text
	   000000F3 R
	   00000743 R
 00004CD6  64: C7 05	     1C     mov     fs:instruction_text_length,5
	   000000EF R
	   00000005
			      C     .ELSE
 00004CE1  EB 16	   *	    jmp    @C020F
 00004CE3		   *@C020A:
			      C         @instr_text     lodsd_text, 5
 00004CE3  64: C7 05	     1C     mov     fs:instruction_text_offset,offset lodsd_text
	   000000F3 R
	   00000748 R
 00004CEE  64: C7 05	     1C     mov     fs:instruction_text_length,5
	   000000EF R
	   00000005
			      C     .ENDIF
 00004CF9		   *@C020F:
 00004CF9  E9 00003681	      C     jmp     store_instruction
			      C 
 00004CFE		      C   _loop:
			      C     @instr_bytes    1
 00004CFE  64: C7 05	     1C     mov     fs:instruction_bytes,1
	   000000EB R
	   00000001
			     1C     IF 1 EQ 1
 00004D09  46		     1C         inc     esi
			     1C     ELSE
			     1C         add     esi,1
			     1C     ENDIF
			      C     @instr_text     loop_text, 4
 00004D0A  64: C7 05	     1C     mov     fs:instruction_text_offset,offset loop_text
	   000000F3 R
	   00000708 R
 00004D15  64: C7 05	     1C     mov     fs:instruction_text_length,4
	   000000EF R
	   00000004
 00004D20  EB 46	      C     jmp     _loopxx_common
			      C 
 00004D22		      C   _loope:
			      C     @instr_bytes    1
 00004D22  64: C7 05	     1C     mov     fs:instruction_bytes,1
	   000000EB R
	   00000001
			     1C     IF 1 EQ 1
 00004D2D  46		     1C         inc     esi
			     1C     ELSE
			     1C         add     esi,1
			     1C     ENDIF
			      C     @instr_text     loope_text, 5
 00004D2E  64: C7 05	     1C     mov     fs:instruction_text_offset,offset loope_text
	   000000F3 R
	   0000070E R
 00004D39  64: C7 05	     1C     mov     fs:instruction_text_length,5
	   000000EF R
	   00000005
 00004D44  EB 22	      C     jmp     _loopxx_common
			      C 
 00004D46		      C   _loopne:
			      C     @instr_bytes    1
 00004D46  64: C7 05	     1C     mov     fs:instruction_bytes,1
	   000000EB R
	   00000001
			     1C     IF 1 EQ 1
 00004D51  46		     1C         inc     esi
			     1C     ELSE
			     1C         add     esi,1
			     1C     ENDIF
			      C     @instr_text     loopne_text, 6
 00004D52  64: C7 05	     1C     mov     fs:instruction_text_offset,offset loopne_text
	   000000F3 R
	   00000708 R
 00004D5D  64: C7 05	     1C     mov     fs:instruction_text_length,6
	   000000EF R
	   00000006
 00004D68		      C   _loopxx_common:
 00004D68  E8 000037DB	      C     call    start_offsets
 00004D6D  E8 00004A8B	      C     call    store_8_bit_signed_value
 00004D72  E8 000037E7	      C     call    end_offsets
 00004D77  E9 00003603	      C     jmp     store_instruction
			      C 
 00004D7C		      C   _lsl:
			      C     @instr_bytes    2
 00004D7C  64: C7 05	     1C     mov     fs:instruction_bytes,2
	   000000EB R
	   00000002
			     1C     IF 2 EQ 1
			     1C         inc     esi
			     1C     ELSE
 00004D87  83 C6 02	     1C         add     esi,2
			     1C     ENDIF
			      C     @instr_text     lsl_text, 3
 00004D8A  64: C7 05	     1C     mov     fs:instruction_text_offset,offset lsl_text
	   000000F3 R
	   000007BD R
 00004D95  64: C7 05	     1C     mov     fs:instruction_text_length,3
	   000000EF R
	   00000003
 00004DA0  64: C7 05	      C     mov     fs:reverse_mod_reg_rm,1
	   000000C7 R
	   00000001
 00004DAB  E8 0000382B	      C     call    determine_standard_operand_size
 00004DB0  E8 00003867	      C     call    extract_mod_reg_rm
 00004DB5  E9 000035C5	      C     jmp     store_instruction
			      C 
 00004DBA		      C   _mov_rm_reg_8:
			      C     @instr_bytes    1
 00004DBA  64: C7 05	     1C     mov     fs:instruction_bytes,1
	   000000EB R
	   00000001
			     1C     IF 1 EQ 1
 00004DC5  46		     1C         inc     esi
			     1C     ELSE
			     1C         add     esi,1
			     1C     ENDIF
			      C     @instr_text     mov_text, 3
 00004DC6  64: C7 05	     1C     mov     fs:instruction_text_offset,offset mov_text
	   000000F3 R
	   000006F5 R
 00004DD1  64: C7 05	     1C     mov     fs:instruction_text_length,3
	   000000EF R
	   00000003
 00004DDC  64: C7 05	      C     mov     fs:operand_size,8
	   00000127 R
	   00000008
 00004DE7  E8 00003830	      C     call    extract_mod_reg_rm
 00004DEC  E9 0000358E	      C     jmp     store_instruction
			      C 
 00004DF1		      C   _mov_rm_reg_16_32:
			      C     @instr_bytes    1
 00004DF1  64: C7 05	     1C     mov     fs:instruction_bytes,1
	   000000EB R
	   00000001
			     1C     IF 1 EQ 1
 00004DFC  46		     1C         inc     esi
			     1C     ELSE
			     1C         add     esi,1
			     1C     ENDIF
			      C     @instr_text     mov_text, 3
 00004DFD  64: C7 05	     1C     mov     fs:instruction_text_offset,offset mov_text
	   000000F3 R
	   000006F5 R
 00004E08  64: C7 05	     1C     mov     fs:instruction_text_length,3
	   000000EF R
	   00000003
 00004E13  E8 000037C3	      C     call    determine_standard_operand_size
 00004E18  E8 000037FF	      C     call    extract_mod_reg_rm
 00004E1D  E9 0000355D	      C     jmp     store_instruction
			      C 
 00004E22		      C   _mov_reg_rm_8:
			      C     @instr_bytes    1
 00004E22  64: C7 05	     1C     mov     fs:instruction_bytes,1
	   000000EB R
	   00000001
			     1C     IF 1 EQ 1
 00004E2D  46		     1C         inc     esi
			     1C     ELSE
			     1C         add     esi,1
			     1C     ENDIF
			      C     @instr_text     mov_text, 3
 00004E2E  64: C7 05	     1C     mov     fs:instruction_text_offset,offset mov_text
	   000000F3 R
	   000006F5 R
 00004E39  64: C7 05	     1C     mov     fs:instruction_text_length,3
	   000000EF R
	   00000003
 00004E44  64: C7 05	      C     mov     fs:operand_size,8
	   00000127 R
	   00000008
 00004E4F  64: C7 05	      C     mov     fs:reverse_mod_reg_rm,1
	   000000C7 R
	   00000001
 00004E5A  E8 000037BD	      C     call    extract_mod_reg_rm
 00004E5F  E9 0000351B	      C     jmp     store_instruction
			      C 
 00004E64		      C   _mov_reg_rm_16_32:
			      C     @instr_bytes    1
 00004E64  64: C7 05	     1C     mov     fs:instruction_bytes,1
	   000000EB R
	   00000001
			     1C     IF 1 EQ 1
 00004E6F  46		     1C         inc     esi
			     1C     ELSE
			     1C         add     esi,1
			     1C     ENDIF
			      C     @instr_text     mov_text, 3
 00004E70  64: C7 05	     1C     mov     fs:instruction_text_offset,offset mov_text
	   000000F3 R
	   000006F5 R
 00004E7B  64: C7 05	     1C     mov     fs:instruction_text_length,3
	   000000EF R
	   00000003
 00004E86  64: C7 05	      C     mov     fs:reverse_mod_reg_rm,1
	   000000C7 R
	   00000001
 00004E91  E8 00003745	      C     call    determine_standard_operand_size
 00004E96  E8 00003781	      C     call    extract_mod_reg_rm
 00004E9B  E9 000034DF	      C     jmp     store_instruction
			      C 
 00004EA0		      C   _mov_sreg_reg16_32:
			      C     @instr_bytes    1
 00004EA0  64: C7 05	     1C     mov     fs:instruction_bytes,1
	   000000EB R
	   00000001
			     1C     IF 1 EQ 1
 00004EAB  46		     1C         inc     esi
			     1C     ELSE
			     1C         add     esi,1
			     1C     ENDIF
			      C     @instr_text     mov_text, 3
 00004EAC  64: C7 05	     1C     mov     fs:instruction_text_offset,offset mov_text
	   000000F3 R
	   000006F5 R
 00004EB7  64: C7 05	     1C     mov     fs:instruction_text_length,3
	   000000EF R
	   00000003
 00004EC2  64: C7 05	      C     mov     fs:special_control,1
	   000000E3 R
	   00000001
 00004ECD  64: C7 05	      C     mov     fs:reverse_mod_reg_rm,1
	   000000C7 R
	   00000001
 00004ED8  E8 000036FE	      C     call    determine_standard_operand_size
 00004EDD  E8 0000373A	      C     call    extract_mod_reg_rm
 00004EE2  E9 00003498	      C     jmp     store_instruction
			      C 
 00004EE7		      C   _mov_reg16_32_sreg:
			      C     @instr_bytes    1
 00004EE7  64: C7 05	     1C     mov     fs:instruction_bytes,1
	   000000EB R
	   00000001
			     1C     IF 1 EQ 1
 00004EF2  46		     1C         inc     esi
			     1C     ELSE
			     1C         add     esi,1
			     1C     ENDIF
			      C     @instr_text     mov_text, 3
 00004EF3  64: C7 05	     1C     mov     fs:instruction_text_offset,offset mov_text
	   000000F3 R
	   000006F5 R
 00004EFE  64: C7 05	     1C     mov     fs:instruction_text_length,3
	   000000EF R
	   00000003
 00004F09  64: C7 05	      C     mov     fs:special_control,2
	   000000E3 R
	   00000002
 00004F14  E8 000036C2	      C     call    determine_standard_operand_size
 00004F19  E8 000036FE	      C     call    extract_mod_reg_rm
 00004F1E  E9 0000345C	      C     jmp     store_instruction
			      C 
 00004F23		      C   _mov_accum_mem_8:
			      C     @instr_bytes    1
 00004F23  64: C7 05	     1C     mov     fs:instruction_bytes,1
	   000000EB R
	   00000001
			     1C     IF 1 EQ 1
 00004F2E  46		     1C         inc     esi
			     1C     ELSE
			     1C         add     esi,1
			     1C     ENDIF
			      C     @instr_text     mov_text, 3
 00004F2F  64: C7 05	     1C     mov     fs:instruction_text_offset,offset mov_text
	   000000F3 R
	   000006F5 R
 00004F3A  64: C7 05	     1C     mov     fs:instruction_text_length,3
	   000000EF R
	   00000003
 00004F45  E8 000035FE	      C     call    start_offsets
 00004F4A  64: C7 05	      C     mov     fs:operand_size,8
	   00000127 R
	   00000008
 00004F55  32 DB	      C     xor     bl,bl
 00004F57  E8 000039E6	      C     call    store_gp_register
 00004F5C  E8 0000492E	      C     call    store_comma
 00004F61  E8 00004552	      C     call    store_segment_override
 00004F66  E8 00004967	      C     call    store_open_bracket
			      C     .IF ((fs:cpu_mode == 0 && fs:adr_size_override != 0) || (fs:cpu_mode != 0 && fs:adr_size_override == 0))
 00004F6B  64: 83 3D
	   0000009B R 00   *	    cmp    fs : cpu_mode, 000h
 00004F73  75 0A	   *	    jne    @C0212
 00004F75  64: 83 3D
	   000000C3 R 00   *	    cmp    fs : adr_size_override, 000h
 00004F7D  75 14	   *	    jne    @C0211
 00004F7F		   *@C0212:
 00004F7F  64: 83 3D
	   0000009B R 00   *	    cmp    fs : cpu_mode, 000h
 00004F87  74 11	   *	    je     @C0210
 00004F89  64: 83 3D
	   000000C3 R 00   *	    cmp    fs : adr_size_override, 000h
 00004F91  75 07	   *	    jne    @C0210
 00004F93		   *@C0211:
 00004F93  E8 000045E8	      C         call    store_16_bit_value
			      C     .ELSE
 00004F98  EB 05	   *	    jmp    @C0215
 00004F9A		   *@C0210:
 00004F9A  E8 0000458E	      C         call    store_32_bit_value
			      C     .ENDIF
 00004F9F		   *@C0215:
 00004F9F  E8 0000493B	      C     call    store_close_bracket
 00004FA4  E8 000035B5	      C     call    end_offsets
 00004FA9  E9 000033D1	      C     jmp     store_instruction
			      C 
 00004FAE		      C   _mov_accum_mem_16_32:
			      C     @instr_bytes    1
 00004FAE  64: C7 05	     1C     mov     fs:instruction_bytes,1
	   000000EB R
	   00000001
			     1C     IF 1 EQ 1
 00004FB9  46		     1C         inc     esi
			     1C     ELSE
			     1C         add     esi,1
			     1C     ENDIF
			      C     @instr_text     mov_text, 3
 00004FBA  64: C7 05	     1C     mov     fs:instruction_text_offset,offset mov_text
	   000000F3 R
	   000006F5 R
 00004FC5  64: C7 05	     1C     mov     fs:instruction_text_length,3
	   000000EF R
	   00000003
 00004FD0  E8 00003573	      C     call    start_offsets
 00004FD5  E8 00003601	      C     call    determine_standard_operand_size
 00004FDA  32 DB	      C     xor     bl,bl
 00004FDC  E8 00003961	      C     call    store_gp_register
 00004FE1  E8 000048A9	      C     call    store_comma
 00004FE6  E8 000044CD	      C     call    store_segment_override
 00004FEB  E8 000048E2	      C     call    store_open_bracket
			      C     .IF ((fs:cpu_mode == 0 && fs:adr_size_override != 0) || (fs:cpu_mode != 0 && fs:adr_size_override == 0))
 00004FF0  64: 83 3D
	   0000009B R 00   *	    cmp    fs : cpu_mode, 000h
 00004FF8  75 0A	   *	    jne    @C0218
 00004FFA  64: 83 3D
	   000000C3 R 00   *	    cmp    fs : adr_size_override, 000h
 00005002  75 14	   *	    jne    @C0217
 00005004		   *@C0218:
 00005004  64: 83 3D
	   0000009B R 00   *	    cmp    fs : cpu_mode, 000h
 0000500C  74 11	   *	    je     @C0216
 0000500E  64: 83 3D
	   000000C3 R 00   *	    cmp    fs : adr_size_override, 000h
 00005016  75 07	   *	    jne    @C0216
 00005018		   *@C0217:
 00005018  E8 00004563	      C         call    store_16_bit_value
			      C     .ELSE
 0000501D  EB 05	   *	    jmp    @C021B
 0000501F		   *@C0216:
 0000501F  E8 00004509	      C         call    store_32_bit_value
			      C     .ENDIF
 00005024		   *@C021B:
 00005024  E8 000048B6	      C     call    store_close_bracket
 00005029  E8 00003530	      C     call    end_offsets
 0000502E  E9 0000334C	      C     jmp     store_instruction
			      C 
 00005033		      C   _mov_mem_accum_8:
			      C     @instr_bytes    1
 00005033  64: C7 05	     1C     mov     fs:instruction_bytes,1
	   000000EB R
	   00000001
			     1C     IF 1 EQ 1
 0000503E  46		     1C         inc     esi
			     1C     ELSE
			     1C         add     esi,1
			     1C     ENDIF
			      C     @instr_text     mov_text, 3
 0000503F  64: C7 05	     1C     mov     fs:instruction_text_offset,offset mov_text
	   000000F3 R
	   000006F5 R
 0000504A  64: C7 05	     1C     mov     fs:instruction_text_length,3
	   000000EF R
	   00000003
 00005055  E8 000034EE	      C     call    start_offsets
 0000505A  64: C7 05	      C     mov     fs:operand_size,8
	   00000127 R
	   00000008
 00005065  32 DB	      C     xor     bl,bl
 00005067  E8 0000444C	      C     call    store_segment_override
 0000506C  E8 00004861	      C     call    store_open_bracket
			      C     .IF ((fs:cpu_mode == 0 && fs:adr_size_override != 0) || (fs:cpu_mode != 0 && fs:adr_size_override == 0))
 00005071  64: 83 3D
	   0000009B R 00   *	    cmp    fs : cpu_mode, 000h
 00005079  75 0A	   *	    jne    @C021E
 0000507B  64: 83 3D
	   000000C3 R 00   *	    cmp    fs : adr_size_override, 000h
 00005083  75 14	   *	    jne    @C021D
 00005085		   *@C021E:
 00005085  64: 83 3D
	   0000009B R 00   *	    cmp    fs : cpu_mode, 000h
 0000508D  74 11	   *	    je     @C021C
 0000508F  64: 83 3D
	   000000C3 R 00   *	    cmp    fs : adr_size_override, 000h
 00005097  75 07	   *	    jne    @C021C
 00005099		   *@C021D:
 00005099  E8 000044E2	      C         call    store_16_bit_value
			      C     .ELSE
 0000509E  EB 05	   *	    jmp    @C0221
 000050A0		   *@C021C:
 000050A0  E8 00004488	      C         call    store_32_bit_value
			      C     .ENDIF
 000050A5		   *@C0221:
 000050A5  E8 00004835	      C     call    store_close_bracket
 000050AA  E8 000047E0	      C     call    store_comma
 000050AF  E8 0000388E	      C     call    store_gp_register
 000050B4  E8 000034A5	      C     call    end_offsets
 000050B9  E9 000032C1	      C     jmp     store_instruction
			      C 
 000050BE		      C   _mov_mem_accum_16_32:
			      C     @instr_bytes    1
 000050BE  64: C7 05	     1C     mov     fs:instruction_bytes,1
	   000000EB R
	   00000001
			     1C     IF 1 EQ 1
 000050C9  46		     1C         inc     esi
			     1C     ELSE
			     1C         add     esi,1
			     1C     ENDIF
			      C     @instr_text     mov_text, 3
 000050CA  64: C7 05	     1C     mov     fs:instruction_text_offset,offset mov_text
	   000000F3 R
	   000006F5 R
 000050D5  64: C7 05	     1C     mov     fs:instruction_text_length,3
	   000000EF R
	   00000003
 000050E0  E8 00003463	      C     call    start_offsets
 000050E5  E8 000043CE	      C     call    store_segment_override
 000050EA  E8 000047E3	      C     call    store_open_bracket
			      C     .IF ((fs:cpu_mode == 0 && fs:adr_size_override != 0) || (fs:cpu_mode != 0 && fs:adr_size_override == 0))
 000050EF  64: 83 3D
	   0000009B R 00   *	    cmp    fs : cpu_mode, 000h
 000050F7  75 0A	   *	    jne    @C0224
 000050F9  64: 83 3D
	   000000C3 R 00   *	    cmp    fs : adr_size_override, 000h
 00005101  75 14	   *	    jne    @C0223
 00005103		   *@C0224:
 00005103  64: 83 3D
	   0000009B R 00   *	    cmp    fs : cpu_mode, 000h
 0000510B  74 11	   *	    je     @C0222
 0000510D  64: 83 3D
	   000000C3 R 00   *	    cmp    fs : adr_size_override, 000h
 00005115  75 07	   *	    jne    @C0222
 00005117		   *@C0223:
 00005117  E8 00004464	      C         call    store_16_bit_value
			      C     .ELSE
 0000511C  EB 05	   *	    jmp    @C0227
 0000511E		   *@C0222:
 0000511E  E8 0000440A	      C         call    store_32_bit_value
			      C     .ENDIF
 00005123		   *@C0227:
 00005123  E8 000047B7	      C     call    store_close_bracket
 00005128  E8 00004762	      C     call    store_comma
 0000512D  E8 000034A9	      C     call    determine_standard_operand_size
 00005132  32 DB	      C     xor     bl,bl
 00005134  E8 00003809	      C     call    store_gp_register
 00005139  E8 00003420	      C     call    end_offsets
 0000513E  E9 0000323C	      C     jmp     store_instruction
			      C 
 00005143		      C   _mov_reg_immed8:
			      C     @instr_bytes    1
 00005143  64: C7 05	     1C     mov     fs:instruction_bytes,1
	   000000EB R
	   00000001
			     1C     IF 1 EQ 1
 0000514E  46		     1C         inc     esi
			     1C     ELSE
			     1C         add     esi,1
			     1C     ENDIF
			      C     @instr_text     mov_text, 3
 0000514F  64: C7 05	     1C     mov     fs:instruction_text_offset,offset mov_text
	   000000F3 R
	   000006F5 R
 0000515A  64: C7 05	     1C     mov     fs:instruction_text_length,3
	   000000EF R
	   00000003
 00005165  E8 000033DE	      C     call    start_offsets
 0000516A  64: C7 05	      C     mov     fs:operand_size,8
	   00000127 R
	   00000008
 00005175  83 E0 07	      C     and     eax,111b
 00005178  8A D8	      C     mov     bl,al
 0000517A  E8 000037C3	      C     call    store_gp_register
 0000517F  E8 0000470B	      C     call    store_comma
 00005184  E8 00004674	      C     call    store_8_bit_signed_value
 00005189  E8 000033D0	      C     call    end_offsets
 0000518E  E9 000031EC	      C     jmp     store_instruction
			      C 
 00005193		      C   _mov_reg_immed16_32:
			      C     @instr_bytes    1
 00005193  64: C7 05	     1C     mov     fs:instruction_bytes,1
	   000000EB R
	   00000001
			     1C     IF 1 EQ 1
 0000519E  46		     1C         inc     esi
			     1C     ELSE
			     1C         add     esi,1
			     1C     ENDIF
			      C     @instr_text     mov_text, 3
 0000519F  64: C7 05	     1C     mov     fs:instruction_text_offset,offset mov_text
	   000000F3 R
	   000006F5 R
 000051AA  64: C7 05	     1C     mov     fs:instruction_text_length,3
	   000000EF R
	   00000003
 000051B5  E8 0000338E	      C     call    start_offsets
 000051BA  50		      C     push    eax
 000051BB  C1 E8 03	      C     shr     eax,3
 000051BE  83 E0 01	      C     and     eax,1b
 000051C1  50		      C     push    eax
 000051C2  E8 000033AD	      C     call    determine_operand_size
 000051C7  58		      C     pop     eax
 000051C8  83 E0 07	      C     and     eax,111b
 000051CB  8A D8	      C     mov     bl,al
 000051CD  E8 00003770	      C     call    store_gp_register
 000051D2  E8 000046B8	      C     call    store_comma
 000051D7  E8 00004661	      C     call    store_signed_value
 000051DC  E8 0000337D	      C     call    end_offsets
 000051E1  E9 00003199	      C     jmp     store_instruction
			      C 
 000051E6		      C   _mov_rm_immed8:
			      C     @instr_bytes    1
 000051E6  64: C7 05	     1C     mov     fs:instruction_bytes,1
	   000000EB R
	   00000001
			     1C     IF 1 EQ 1
 000051F1  46		     1C         inc     esi
			     1C     ELSE
			     1C         add     esi,1
			     1C     ENDIF
			      C     @instr_text     mov_text, 3
 000051F2  64: C7 05	     1C     mov     fs:instruction_text_offset,offset mov_text
	   000000F3 R
	   000006F5 R
 000051FD  64: C7 05	     1C     mov     fs:instruction_text_length,3
	   000000EF R
	   00000003
 00005208  E8 0000333B	      C     call    start_offsets
 0000520D  64: C7 05	      C     mov     fs:operand_size,8
	   00000127 R
	   00000008
 00005218  E8 0000367E	      C     call    extract_mod_rm
 0000521D  E8 0000466D	      C     call    store_comma
 00005222  E8 000045D6	      C     call    store_8_bit_signed_value
 00005227  E8 00003332	      C     call    end_offsets
 0000522C  E9 0000314E	      C     jmp     store_instruction
			      C 
 00005231		      C   _mov_rm_immed16_32:
			      C     @instr_bytes    1
 00005231  64: C7 05	     1C     mov     fs:instruction_bytes,1
	   000000EB R
	   00000001
			     1C     IF 1 EQ 1
 0000523C  46		     1C         inc     esi
			     1C     ELSE
			     1C         add     esi,1
			     1C     ENDIF
			      C     @instr_text     mov_text, 3
 0000523D  64: C7 05	     1C     mov     fs:instruction_text_offset,offset mov_text
	   000000F3 R
	   000006F5 R
 00005248  64: C7 05	     1C     mov     fs:instruction_text_length,3
	   000000EF R
	   00000003
 00005253  E8 000032F0	      C     call    start_offsets
 00005258  C1 E8 03	      C     shr     eax,3
 0000525B  83 E0 01	      C     and     eax,1b
 0000525E  50		      C     push    eax
 0000525F  E8 00003310	      C     call    determine_operand_size
 00005264  58		      C     pop     eax
 00005265  E8 00003631	      C     call    extract_mod_rm
 0000526A  E8 00004620	      C     call    store_comma
 0000526F  E8 000045C9	      C     call    store_signed_value
 00005274  E8 000032E5	      C     call    end_offsets
 00005279  E9 00003101	      C     jmp     store_instruction
			      C 
 0000527E		      C   _mov_gp_control:
			      C     @instr_bytes    2
 0000527E  64: C7 05	     1C     mov     fs:instruction_bytes,2
	   000000EB R
	   00000002
			     1C     IF 2 EQ 1
			     1C         inc     esi
			     1C     ELSE
 00005289  83 C6 02	     1C         add     esi,2
			     1C     ENDIF
			      C     @instr_text     mov_text, 3
 0000528C  64: C7 05	     1C     mov     fs:instruction_text_offset,offset mov_text
	   000000F3 R
	   000006F5 R
 00005297  64: C7 05	     1C     mov     fs:instruction_text_length,3
	   000000EF R
	   00000003
 000052A2  83 E0 02	      C     and     eax,10b
 000052A5  64: A3	      C     mov     fs:reverse_mod_reg_rm,eax
	   000000C7 R
			      C     .IF (fs:reverse_mod_reg_rm != 0)
 000052AB  64: 83 3D
	   000000C7 R 00   *	    cmp    fs : reverse_mod_reg_rm, 000h
 000052B3  74 0D	   *	    je     @C0228
 000052B5  64: C7 05	      C         mov     fs:special_control,3
	   000000E3 R
	   00000003
			      C     .ELSE
 000052C0  EB 0B	   *	    jmp    @C022A
 000052C2		   *@C0228:
 000052C2  64: C7 05	      C         mov     fs:special_control,4
	   000000E3 R
	   00000004
			      C     .ENDIF
 000052CD		   *@C022A:
 000052CD  64: C7 05	      C     mov     fs:operand_size,32
	   00000127 R
	   00000020
 000052D8  E8 0000333F	      C     call    extract_mod_reg_rm
 000052DD  E9 0000309D	      C     jmp     store_instruction
			      C 
 000052E2		      C   _mov_gp_debug:
			      C     @instr_bytes    2
 000052E2  64: C7 05	     1C     mov     fs:instruction_bytes,2
	   000000EB R
	   00000002
			     1C     IF 2 EQ 1
			     1C         inc     esi
			     1C     ELSE
 000052ED  83 C6 02	     1C         add     esi,2
			     1C     ENDIF
			      C     @instr_text     mov_text, 3
 000052F0  64: C7 05	     1C     mov     fs:instruction_text_offset,offset mov_text
	   000000F3 R
	   000006F5 R
 000052FB  64: C7 05	     1C     mov     fs:instruction_text_length,3
	   000000EF R
	   00000003
 00005306  83 E0 02	      C     and     eax,10b
 00005309  64: A3	      C     mov     fs:reverse_mod_reg_rm,eax
	   000000C7 R
			      C     .IF (fs:reverse_mod_reg_rm != 0)
 0000530F  64: 83 3D
	   000000C7 R 00   *	    cmp    fs : reverse_mod_reg_rm, 000h
 00005317  74 0D	   *	    je     @C022B
 00005319  64: C7 05	      C         mov     fs:special_control,5
	   000000E3 R
	   00000005
			      C     .ELSE
 00005324  EB 0B	   *	    jmp    @C022D
 00005326		   *@C022B:
 00005326  64: C7 05	      C         mov     fs:special_control,6
	   000000E3 R
	   00000006
			      C     .ENDIF
 00005331		   *@C022D:
 00005331  64: C7 05	      C     mov     fs:operand_size,32
	   00000127 R
	   00000020
 0000533C  E8 000032DB	      C     call    extract_mod_reg_rm
 00005341  E9 00003039	      C     jmp     store_instruction
			      C 
 00005346		      C   _mov_gp_test:
			      C     @instr_bytes    2
 00005346  64: C7 05	     1C     mov     fs:instruction_bytes,2
	   000000EB R
	   00000002
			     1C     IF 2 EQ 1
			     1C         inc     esi
			     1C     ELSE
 00005351  83 C6 02	     1C         add     esi,2
			     1C     ENDIF
			      C     @instr_text     mov_text, 3
 00005354  64: C7 05	     1C     mov     fs:instruction_text_offset,offset mov_text
	   000000F3 R
	   000006F5 R
 0000535F  64: C7 05	     1C     mov     fs:instruction_text_length,3
	   000000EF R
	   00000003
 0000536A  83 E0 02	      C     and     eax,10b
 0000536D  64: A3	      C     mov     fs:reverse_mod_reg_rm,eax
	   000000C7 R
			      C     .IF (fs:reverse_mod_reg_rm != 0)
 00005373  64: 83 3D
	   000000C7 R 00   *	    cmp    fs : reverse_mod_reg_rm, 000h
 0000537B  74 0D	   *	    je     @C022E
 0000537D  64: C7 05	      C         mov     fs:special_control,7
	   000000E3 R
	   00000007
			      C     .ELSE
 00005388  EB 0B	   *	    jmp    @C0230
 0000538A		   *@C022E:
 0000538A  64: C7 05	      C         mov     fs:special_control,8
	   000000E3 R
	   00000008
			      C     .ENDIF
 00005395		   *@C0230:
 00005395  64: C7 05	      C     mov     fs:operand_size,32
	   00000127 R
	   00000020
 000053A0  E8 00003277	      C     call    extract_mod_reg_rm
 000053A5  E9 00002FD5	      C     jmp     store_instruction
			      C 
 000053AA		      C   _movd_gp_mmx:
			      C     @instr_bytes    2
 000053AA  64: C7 05	     1C     mov     fs:instruction_bytes,2
	   000000EB R
	   00000002
			     1C     IF 2 EQ 1
			     1C         inc     esi
			     1C     ELSE
 000053B5  83 C6 02	     1C         add     esi,2
			     1C     ENDIF
			      C     @instr_text     movd_text, 4
 000053B8  64: C7 05	     1C     mov     fs:instruction_text_offset,offset movd_text
	   000000F3 R
	   000006ED R
 000053C3  64: C7 05	     1C     mov     fs:instruction_text_length,4
	   000000EF R
	   00000004
 000053CE  64: C7 05	      C     mov     fs:special_control,11
	   000000E3 R
	   0000000B
 000053D9  64: C7 05	      C     mov     fs:operand_size,32
	   00000127 R
	   00000020
 000053E4  E8 00003233	      C     call    extract_mod_reg_rm
 000053E9  E9 00002F91	      C     jmp     store_instruction
			      C 
 000053EE		      C   _movd_mmx_gp:
			      C     @instr_bytes    2
 000053EE  64: C7 05	     1C     mov     fs:instruction_bytes,2
	   000000EB R
	   00000002
			     1C     IF 2 EQ 1
			     1C         inc     esi
			     1C     ELSE
 000053F9  83 C6 02	     1C         add     esi,2
			     1C     ENDIF
			      C     @instr_text     movd_text, 4
 000053FC  64: C7 05	     1C     mov     fs:instruction_text_offset,offset movd_text
	   000000F3 R
	   000006ED R
 00005407  64: C7 05	     1C     mov     fs:instruction_text_length,4
	   000000EF R
	   00000004
 00005412  64: C7 05	      C     mov     fs:special_control,10
	   000000E3 R
	   0000000A
 0000541D  64: C7 05	      C     mov     fs:operand_size,32
	   00000127 R
	   00000020
 00005428  64: C7 05	      C     mov     fs:reverse_mod_reg_rm,1
	   000000C7 R
	   00000001
 00005433  E8 000031E4	      C     call    extract_mod_reg_rm
 00005438  E9 00002F42	      C     jmp     store_instruction
			      C 
 0000543D		      C   _movq_mm_mmx_mmx:
			      C     @instr_bytes    2
 0000543D  64: C7 05	     1C     mov     fs:instruction_bytes,2
	   000000EB R
	   00000002
			     1C     IF 2 EQ 1
			     1C         inc     esi
			     1C     ELSE
 00005448  83 C6 02	     1C         add     esi,2
			     1C     ENDIF
			      C     @instr_text     movq_text, 4
 0000544B  64: C7 05	     1C     mov     fs:instruction_text_offset,offset movq_text
	   000000F3 R
	   000006F1 R
 00005456  64: C7 05	     1C     mov     fs:instruction_text_length,4
	   000000EF R
	   00000004
 00005461  64: C7 05	      C     mov     fs:special_control,9
	   000000E3 R
	   00000009
 0000546C  64: C7 05	      C     mov     fs:operand_size,64
	   00000127 R
	   00000040
 00005477  E8 000031A0	      C     call    extract_mod_reg_rm
 0000547C  E9 00002EFE	      C     jmp     store_instruction
			      C 
 00005481		      C   _movq_mmx_mm_mmx:
			      C     @instr_bytes    2
 00005481  64: C7 05	     1C     mov     fs:instruction_bytes,2
	   000000EB R
	   00000002
			     1C     IF 2 EQ 1
			     1C         inc     esi
			     1C     ELSE
 0000548C  83 C6 02	     1C         add     esi,2
			     1C     ENDIF
			      C     @instr_text     movq_text, 4
 0000548F  64: C7 05	     1C     mov     fs:instruction_text_offset,offset movq_text
	   000000F3 R
	   000006F1 R
 0000549A  64: C7 05	     1C     mov     fs:instruction_text_length,4
	   000000EF R
	   00000004
 000054A5  64: C7 05	      C     mov     fs:special_control,9
	   000000E3 R
	   00000009
 000054B0  64: C7 05	      C     mov     fs:operand_size,64
	   00000127 R
	   00000040
 000054BB  64: C7 05	      C     mov     fs:reverse_mod_reg_rm,1
	   000000C7 R
	   00000001
 000054C6  E8 00003151	      C     call    extract_mod_reg_rm
 000054CB  E9 00002EAF	      C     jmp     store_instruction
			      C 
 000054D0		      C   _movsb:
			      C     @instr_bytes    1
 000054D0  64: C7 05	     1C     mov     fs:instruction_bytes,1
	   000000EB R
	   00000001
			     1C     IF 1 EQ 1
 000054DB  46		     1C         inc     esi
			     1C     ELSE
			     1C         add     esi,1
			     1C     ENDIF
			      C     @instr_text     movsb_text, 5
 000054DC  64: C7 05	     1C     mov     fs:instruction_text_offset,offset movsb_text
	   000000F3 R
	   00000720 R
 000054E7  64: C7 05	     1C     mov     fs:instruction_text_length,5
	   000000EF R
	   00000005
 000054F2  E9 00002E88	      C     jmp     store_instruction
			      C 
 000054F7		      C   _movsw:
			      C     @instr_bytes    1
 000054F7  64: C7 05	     1C     mov     fs:instruction_bytes,1
	   000000EB R
	   00000001
			     1C     IF 1 EQ 1
 00005502  46		     1C         inc     esi
			     1C     ELSE
			     1C         add     esi,1
			     1C     ENDIF
			      C     .IF ((fs:cpu_mode == 0 && fs:op_size_override != 0) || (fs:cpu_mode != 0 && fs:op_size_override == 0))
 00005503  64: 83 3D
	   0000009B R 00   *	    cmp    fs : cpu_mode, 000h
 0000550B  75 0A	   *	    jne    @C0233
 0000550D  64: 83 3D
	   000000BF R 00   *	    cmp    fs : op_size_override, 000h
 00005515  75 14	   *	    jne    @C0232
 00005517		   *@C0233:
 00005517  64: 83 3D
	   0000009B R 00   *	    cmp    fs : cpu_mode, 000h
 0000551F  74 22	   *	    je     @C0231
 00005521  64: 83 3D
	   000000BF R 00   *	    cmp    fs : op_size_override, 000h
 00005529  75 18	   *	    jne    @C0231
 0000552B		   *@C0232:
			      C         @instr_text     movsw_text, 5
 0000552B  64: C7 05	     1C     mov     fs:instruction_text_offset,offset movsw_text
	   000000F3 R
	   00000725 R
 00005536  64: C7 05	     1C     mov     fs:instruction_text_length,5
	   000000EF R
	   00000005
			      C     .ELSE
 00005541  EB 16	   *	    jmp    @C0236
 00005543		   *@C0231:
			      C         @instr_text     movsd_text, 5
 00005543  64: C7 05	     1C     mov     fs:instruction_text_offset,offset movsd_text
	   000000F3 R
	   0000072A R
 0000554E  64: C7 05	     1C     mov     fs:instruction_text_length,5
	   000000EF R
	   00000005
			      C     .ENDIF
 00005559		   *@C0236:
 00005559  E9 00002E21	      C     jmp     store_instruction
			      C 
 0000555E		      C   _movsx_byte:
 0000555E		      C   _movsx_word:
			      C     @instr_bytes    2
 0000555E  64: C7 05	     1C     mov     fs:instruction_bytes,2
	   000000EB R
	   00000002
			     1C     IF 2 EQ 1
			     1C         inc     esi
			     1C     ELSE
 00005569  83 C6 02	     1C         add     esi,2
			     1C     ENDIF
			      C     @instr_text     movsx_text, 5
 0000556C  64: C7 05	     1C     mov     fs:instruction_text_offset,offset movsx_text
	   000000F3 R
	   000006F5 R
 00005577  64: C7 05	     1C     mov     fs:instruction_text_length,5
	   000000EF R
	   00000005
 00005582		      C   _movxx_common:
 00005582  64: C7 05	      C     mov     fs:reverse_mod_reg_rm,1
	   000000C7 R
	   00000001
 0000558D  64: C7 05	      C     mov     fs:movxx_register,1
	   000000CF R
	   00000001
 00005598  83 E0 01	      C     and     eax,1b
			      C     .IF ((fs:cpu_mode == 0 && fs:op_size_override != 0) || (fs:cpu_mode != 0 && fs:op_size_override == 0))
 0000559B  64: 83 3D
	   0000009B R 00   *	    cmp    fs : cpu_mode, 000h
 000055A3  75 0A	   *	    jne    @C0239
 000055A5  64: 83 3D
	   000000BF R 00   *	    cmp    fs : op_size_override, 000h
 000055AD  75 14	   *	    jne    @C0238
 000055AF		   *@C0239:
 000055AF  64: 83 3D
	   0000009B R 00   *	    cmp    fs : cpu_mode, 000h
 000055B7  74 33	   *	    je     @C0237
 000055B9  64: 83 3D
	   000000BF R 00   *	    cmp    fs : op_size_override, 000h
 000055C1  75 29	   *	    jne    @C0237
 000055C3		   *@C0238:
			      C         ; They're going from whatever the current operand size is to 16-bits
 000055C3  64: C7 05	      C         mov     fs:first_gp_register,16
	   000000D3 R
	   00000010
			      C         .IF (al == 0)
 000055CE  0A C0	   *	    or	al, al
 000055D0  75 0D	   *	    jne    @C023C
			      C           ; They're going from 8-bit to 16-bit
 000055D2  64: C7 05	      C             mov     fs:second_gp_register,8
	   000000D7 R
	   00000008
			      C         .ELSE
 000055DD  EB 34	   *	    jmp    @C023E
 000055DF		   *@C023C:
			      C           ; They're going from 16-bit to 16-bit
 000055DF  64: C7 05	      C             mov     fs:second_gp_register,16
	   000000D7 R
	   00000010
			      C         .ENDIF
			      C     .ELSE
 000055EA  EB 27	   *	    jmp    @C023F
 000055EC		   *@C0237:
			      C         ; They're going from whatever the current operand size is to 32-bits
 000055EC  64: C7 05	      C         mov     fs:first_gp_register,32
	   000000D3 R
	   00000020
			      C         .IF (al == 0)
 000055F7  0A C0	   *	    or	al, al
 000055F9  75 0D	   *	    jne    @C0240
			      C           ; They're going from 8-bit to 32-bit
 000055FB  64: C7 05	      C             mov     fs:second_gp_register,8
	   000000D7 R
	   00000008
			      C         .ELSE
 00005606  EB 0B	   *	    jmp    @C0242
 00005608		   *@C0240:
			      C           ; They're going from 16-bit to 32-bit
 00005608  64: C7 05	      C             mov     fs:second_gp_register,16
	   000000D7 R
	   00000010
			      C         .ENDIF
			      C     .ENDIF
 00005613		   *@C0242:
 00005613		   *@C023F:
 00005613		   *@C023E:
 00005613  E8 00003004	      C     call    extract_mod_reg_rm
 00005618  64: C7 05	      C     mov     fs:movxx_register,0
	   000000CF R
	   00000000
 00005623  E9 00002D57	      C     jmp     store_instruction
			      C 
 00005628		      C   _movzx_byte:
 00005628		      C   _movzx_word:
			      C     @instr_bytes    2
 00005628  64: C7 05	     1C     mov     fs:instruction_bytes,2
	   000000EB R
	   00000002
			     1C     IF 2 EQ 1
			     1C         inc     esi
			     1C     ELSE
 00005633  83 C6 02	     1C         add     esi,2
			     1C     ENDIF
			      C     @instr_text     movzx_text, 5
 00005636  64: C7 05	     1C     mov     fs:instruction_text_offset,offset movzx_text
	   000000F3 R
	   000006FA R
 00005641  64: C7 05	     1C     mov     fs:instruction_text_length,5
	   000000EF R
	   00000005
 0000564C  E9 FFFFFF31	      C     jmp     _movxx_common
			      C 
 00005651		      C   _mul_byte:
			      C     @instr_bytes    1
 00005651  64: C7 05	     1C     mov     fs:instruction_bytes,1
	   000000EB R
	   00000001
			     1C     IF 1 EQ 1
 0000565C  46		     1C         inc     esi
			     1C     ELSE
			     1C         add     esi,1
			     1C     ENDIF
			      C     @instr_text     mul_text, 3
 0000565D  64: C7 05	     1C     mov     fs:instruction_text_offset,offset mul_text
	   000000F3 R
	   000007ED R
 00005668  64: C7 05	     1C     mov     fs:instruction_text_length,3
	   000000EF R
	   00000003
 00005673  E9 FFFFE68D	      C     jmp     _ixxx_common1
			      C 
 00005678		      C   _mul:
			      C     @instr_bytes    1
 00005678  64: C7 05	     1C     mov     fs:instruction_bytes,1
	   000000EB R
	   00000001
			     1C     IF 1 EQ 1
 00005683  46		     1C         inc     esi
			     1C     ELSE
			     1C         add     esi,1
			     1C     ENDIF
			      C     @instr_text     mul_text, 3
 00005684  64: C7 05	     1C     mov     fs:instruction_text_offset,offset mul_text
	   000000F3 R
	   000007ED R
 0000568F  64: C7 05	     1C     mov     fs:instruction_text_length,3
	   000000EF R
	   00000003
 0000569A  E9 FFFFE69D	      C     jmp     _ixxx_common2
			      C 
 0000569F		      C   _neg_byte:
			      C     @instr_bytes    1
 0000569F  64: C7 05	     1C     mov     fs:instruction_bytes,1
	   000000EB R
	   00000001
			     1C     IF 1 EQ 1
 000056AA  46		     1C         inc     esi
			     1C     ELSE
			     1C         add     esi,1
			     1C     ENDIF
			      C     @instr_text     neg_text, 3
 000056AB  64: C7 05	     1C     mov     fs:instruction_text_offset,offset neg_text
	   000000F3 R
	   000007F7 R
 000056B6  64: C7 05	     1C     mov     fs:instruction_text_length,3
	   000000EF R
	   00000003
 000056C1  E9 FFFFE63F	      C     jmp     _ixxx_common1
			      C 
 000056C6		      C   _neg:
			      C     @instr_bytes    1
 000056C6  64: C7 05	     1C     mov     fs:instruction_bytes,1
	   000000EB R
	   00000001
			     1C     IF 1 EQ 1
 000056D1  46		     1C         inc     esi
			     1C     ELSE
			     1C         add     esi,1
			     1C     ENDIF
			      C     @instr_text     neg_text, 3
 000056D2  64: C7 05	     1C     mov     fs:instruction_text_offset,offset neg_text
	   000000F3 R
	   000007F7 R
 000056DD  64: C7 05	     1C     mov     fs:instruction_text_length,3
	   000000EF R
	   00000003
 000056E8  E9 FFFFE64F	      C     jmp     _ixxx_common2
			      C 
 000056ED		      C   _not_byte:
			      C     @instr_bytes    1
 000056ED  64: C7 05	     1C     mov     fs:instruction_bytes,1
	   000000EB R
	   00000001
			     1C     IF 1 EQ 1
 000056F8  46		     1C         inc     esi
			     1C     ELSE
			     1C         add     esi,1
			     1C     ENDIF
			      C     @instr_text     not_text, 3
 000056F9  64: C7 05	     1C     mov     fs:instruction_text_offset,offset not_text
	   000000F3 R
	   000007F4 R
 00005704  64: C7 05	     1C     mov     fs:instruction_text_length,3
	   000000EF R
	   00000003
 0000570F  E9 FFFFE5F1	      C     jmp     _ixxx_common1
			      C 
 00005714		      C   _not:
			      C     @instr_bytes    1
 00005714  64: C7 05	     1C     mov     fs:instruction_bytes,1
	   000000EB R
	   00000001
			     1C     IF 1 EQ 1
 0000571F  46		     1C         inc     esi
			     1C     ELSE
			     1C         add     esi,1
			     1C     ENDIF
			      C     @instr_text     not_text, 3
 00005720  64: C7 05	     1C     mov     fs:instruction_text_offset,offset not_text
	   000000F3 R
	   000007F4 R
 0000572B  64: C7 05	     1C     mov     fs:instruction_text_length,3
	   000000EF R
	   00000003
 00005736  E9 FFFFE601	      C     jmp     _ixxx_common2
			      C 
 0000573B		      C   _nop:
			      C     @instr_bytes    1
 0000573B  64: C7 05	     1C     mov     fs:instruction_bytes,1
	   000000EB R
	   00000001
			     1C     IF 1 EQ 1
 00005746  46		     1C         inc     esi
			     1C     ELSE
			     1C         add     esi,1
			     1C     ENDIF
			      C     @instr_text     nop_text, 3
 00005747  64: C7 05	     1C     mov     fs:instruction_text_offset,offset nop_text
	   000000F3 R
	   000005AC R
 00005752  64: C7 05	     1C     mov     fs:instruction_text_length,3
	   000000EF R
	   00000003
 0000575D  E9 00002C1D	      C     jmp     store_instruction
			      C 
 00005762		      C   _or_accum:
			      C     @instr_bytes    1
 00005762  64: C7 05	     1C     mov     fs:instruction_bytes,1
	   000000EB R
	   00000001
			     1C     IF 1 EQ 1
 0000576D  46		     1C         inc     esi
			     1C     ELSE
			     1C         add     esi,1
			     1C     ENDIF
			      C     @instr_text     or_text, 2
 0000576E  64: C7 05	     1C     mov     fs:instruction_text_offset,offset or_text
	   000000F3 R
	   00000814 R
 00005779  64: C7 05	     1C     mov     fs:instruction_text_length,2
	   000000EF R
	   00000002
 00005784  E8 00002DBF	      C     call    start_offsets
 00005789  A9 00000001	      C     test    eax,1b
			      C     .IF (zero?)
 0000578E  75 1E	   *	    jne    @C0243
			      C       ; 8-bit mode
 00005790  32 DB	      C         xor     bl,bl
 00005792  64: C7 05	      C         mov     fs:operand_size,8
	   00000127 R
	   00000008
 0000579D  E8 000031A0	      C         call    store_gp_register
 000057A2  E8 000040E8	      C         call    store_comma
 000057A7  E8 00004051	      C         call    store_8_bit_signed_value
			      C     .ELSE
 000057AC  EB 16	   *	    jmp    @C0245
 000057AE		   *@C0243:
 000057AE  32 DB	      C         xor     bl,bl
 000057B0  E8 00002E26	      C         call    determine_standard_operand_size
 000057B5  E8 00003188	      C         call    store_gp_register
 000057BA  E8 000040D0	      C         call    store_comma
 000057BF  E8 00004079	      C         call    store_signed_value
			      C     .ENDIF
 000057C4		   *@C0245:
 000057C4  E8 00002D95	      C     call    end_offsets
 000057C9  E9 00002BB1	      C     jmp     store_instruction
			      C 
 000057CE		      C   _or_rm:
			      C     @instr_bytes    1
 000057CE  64: C7 05	     1C     mov     fs:instruction_bytes,1
	   000000EB R
	   00000001
			     1C     IF 1 EQ 1
 000057D9  46		     1C         inc     esi
			     1C     ELSE
			     1C         add     esi,1
			     1C     ENDIF
			      C     @instr_text     or_text, 2
 000057DA  64: C7 05	     1C     mov     fs:instruction_text_offset,offset or_text
	   000000F3 R
	   00000814 R
 000057E5  64: C7 05	     1C     mov     fs:instruction_text_length,2
	   000000EF R
	   00000002
 000057F0  E9 FFFFB85D	      C     jmp     _dw_mod_reg_rm_common
			      C 
 000057F5		      C   _or_rm_16_32_with_immed8:
 000057F5  E8 00002DE1	      C     call    determine_standard_operand_size
 000057FA  EB 0B	      C     jmp     or_rm_immed8_common
			      C 
 000057FC		      C   _or_rm_immed8:
 000057FC  64: C7 05	      C     mov     fs:operand_size,8
	   00000127 R
	   00000008
 00005807		      C   or_rm_immed8_common:
			      C     @instr_bytes    1
 00005807  64: C7 05	     1C     mov     fs:instruction_bytes,1
	   000000EB R
	   00000001
			     1C     IF 1 EQ 1
 00005812  46		     1C         inc     esi
			     1C     ELSE
			     1C         add     esi,1
			     1C     ENDIF
			      C     @instr_text     or_text, 2
 00005813  64: C7 05	     1C     mov     fs:instruction_text_offset,offset or_text
	   000000F3 R
	   00000814 R
 0000581E  64: C7 05	     1C     mov     fs:instruction_text_length,2
	   000000EF R
	   00000002
 00005829  E8 00002D1A	      C     call    start_offsets
 0000582E  E8 00003068	      C     call    extract_mod_rm
 00005833  E8 00004057	      C     call    store_comma
 00005838  E8 00003FC0	      C     call    store_8_bit_signed_value
 0000583D  E8 00002D1C	      C     call    end_offsets
 00005842  E9 00002B38	      C     jmp     store_instruction
			      C 
 00005847		      C   _or_rm_immed16_32:
			      C     @instr_bytes    1
 00005847  64: C7 05	     1C     mov     fs:instruction_bytes,1
	   000000EB R
	   00000001
			     1C     IF 1 EQ 1
 00005852  46		     1C         inc     esi
			     1C     ELSE
			     1C         add     esi,1
			     1C     ENDIF
			      C     @instr_text     or_text, 2
 00005853  64: C7 05	     1C     mov     fs:instruction_text_offset,offset or_text
	   000000F3 R
	   00000814 R
 0000585E  64: C7 05	     1C     mov     fs:instruction_text_length,2
	   000000EF R
	   00000002
 00005869  E8 00002CDA	      C     call    start_offsets
 0000586E  E8 00002D68	      C     call    determine_standard_operand_size
 00005873  E8 00003023	      C     call    extract_mod_rm
 00005878  E8 00004012	      C     call    store_comma
 0000587D  E8 00003FBB	      C     call    store_signed_value
 00005882  E8 00002CD7	      C     call    end_offsets
 00005887  E9 00002AF3	      C     jmp     store_instruction
			      C 
 0000588C		      C   _out_byte:
			      C     @instr_bytes    1
 0000588C  64: C7 05	     1C     mov     fs:instruction_bytes,1
	   000000EB R
	   00000001
			     1C     IF 1 EQ 1
 00005897  46		     1C         inc     esi
			     1C     ELSE
			     1C         add     esi,1
			     1C     ENDIF
			      C     @instr_text     outsb_text, 3
 00005898  64: C7 05	     1C     mov     fs:instruction_text_offset,offset outsb_text
	   000000F3 R
	   00000759 R
 000058A3  64: C7 05	     1C     mov     fs:instruction_text_length,3
	   000000EF R
	   00000003
 000058AE  E8 00002C95	      C     call    start_offsets
 000058B3  64: C7 05	      C     mov     fs:operand_size,16
	   00000127 R
	   00000010
 000058BE  B3 02	      C     mov     bl,010b
 000058C0  E8 0000307D	      C     call    store_gp_register
 000058C5  E8 00003FC5	      C     call    store_comma
 000058CA  64: C7 05	      C     mov     fs:operand_size,8
	   00000127 R
	   00000008
 000058D5  32 DB	      C     xor     bl,bl
 000058D7  E8 00003066	      C     call    store_gp_register
 000058DC  E8 00002C7D	      C     call    end_offsets
 000058E1  E9 00002A99	      C     jmp     store_instruction
			      C 
 000058E6		      C   _out:
			      C     @instr_bytes    1
 000058E6  64: C7 05	     1C     mov     fs:instruction_bytes,1
	   000000EB R
	   00000001
			     1C     IF 1 EQ 1
 000058F1  46		     1C         inc     esi
			     1C     ELSE
			     1C         add     esi,1
			     1C     ENDIF
			      C     @instr_text     outsb_text, 3
 000058F2  64: C7 05	     1C     mov     fs:instruction_text_offset,offset outsb_text
	   000000F3 R
	   00000759 R
 000058FD  64: C7 05	     1C     mov     fs:instruction_text_length,3
	   000000EF R
	   00000003
 00005908  E8 00002C3B	      C     call    start_offsets
 0000590D  64: C7 05	      C     mov     fs:operand_size,16
	   00000127 R
	   00000010
 00005918  B3 02	      C     mov     bl,010b
 0000591A  E8 00003023	      C     call    store_gp_register
 0000591F  E8 00003F6B	      C     call    store_comma
 00005924  E8 00002CB2	      C     call    determine_standard_operand_size
 00005929  32 DB	      C     xor     bl,bl
 0000592B  E8 00003012	      C     call    store_gp_register
 00005930  E8 00002C29	      C     call    end_offsets
 00005935  E9 00002A45	      C     jmp     store_instruction
			      C 
 0000593A		      C   _outsb:
			      C     @instr_bytes    1
 0000593A  64: C7 05	     1C     mov     fs:instruction_bytes,1
	   000000EB R
	   00000001
			     1C     IF 1 EQ 1
 00005945  46		     1C         inc     esi
			     1C     ELSE
			     1C         add     esi,1
			     1C     ENDIF
			      C     @instr_text     outsb_text, 5
 00005946  64: C7 05	     1C     mov     fs:instruction_text_offset,offset outsb_text
	   000000F3 R
	   00000759 R
 00005951  64: C7 05	     1C     mov     fs:instruction_text_length,5
	   000000EF R
	   00000005
 0000595C  E9 00002A1E	      C     jmp     store_instruction
			      C 
 00005961		      C   _outsw:
			      C     @instr_bytes    1
 00005961  64: C7 05	     1C     mov     fs:instruction_bytes,1
	   000000EB R
	   00000001
			     1C     IF 1 EQ 1
 0000596C  46		     1C         inc     esi
			     1C     ELSE
			     1C         add     esi,1
			     1C     ENDIF
			      C     .IF ((fs:cpu_mode == 0 && fs:op_size_override != 0) || (fs:cpu_mode != 0 && fs:op_size_override == 0))
 0000596D  64: 83 3D
	   0000009B R 00   *	    cmp    fs : cpu_mode, 000h
 00005975  75 0A	   *	    jne    @C0248
 00005977  64: 83 3D
	   000000BF R 00   *	    cmp    fs : op_size_override, 000h
 0000597F  75 14	   *	    jne    @C0247
 00005981		   *@C0248:
 00005981  64: 83 3D
	   0000009B R 00   *	    cmp    fs : cpu_mode, 000h
 00005989  74 22	   *	    je     @C0246
 0000598B  64: 83 3D
	   000000BF R 00   *	    cmp    fs : op_size_override, 000h
 00005993  75 18	   *	    jne    @C0246
 00005995		   *@C0247:
			      C         @instr_text     outsw_text, 5
 00005995  64: C7 05	     1C     mov     fs:instruction_text_offset,offset outsw_text
	   000000F3 R
	   0000075E R
 000059A0  64: C7 05	     1C     mov     fs:instruction_text_length,5
	   000000EF R
	   00000005
			      C     .ELSE
 000059AB  EB 16	   *	    jmp    @C024B
 000059AD		   *@C0246:
			      C         @instr_text     outsd_text, 5
 000059AD  64: C7 05	     1C     mov     fs:instruction_text_offset,offset outsd_text
	   000000F3 R
	   00000763 R
 000059B8  64: C7 05	     1C     mov     fs:instruction_text_length,5
	   000000EF R
	   00000005
			      C     .ENDIF
 000059C3		   *@C024B:
 000059C3  E9 000029B7	      C     jmp     store_instruction
			      C 
 000059C8		      C   _packsswb:
			      C     @instr_bytes    2
 000059C8  64: C7 05	     1C     mov     fs:instruction_bytes,2
	   000000EB R
	   00000002
			     1C     IF 2 EQ 1
			     1C         inc     esi
			     1C     ELSE
 000059D3  83 C6 02	     1C         add     esi,2
			     1C     ENDIF
			      C     @instr_text     packsswb_text, 8
 000059D6  64: C7 05	     1C     mov     fs:instruction_text_offset,offset packsswb_text
	   000000F3 R
	   000009D7 R
 000059E1  64: C7 05	     1C     mov     fs:instruction_text_length,8
	   000000EF R
	   00000008
 000059EC		      C   pack_mmx_rm_common:
 000059EC  64: C7 05	      C     mov     fs:special_reg,_MMX_REGS
	   000000AF R
	   00000006
 000059F7  64: C7 05	      C     mov     fs:reverse_mod_reg_rm,1
	   000000C7 R
	   00000001
 00005A02  E8 00002C15	      C     call    extract_mod_reg_rm
 00005A07  E9 00002973	      C     jmp     store_instruction
			      C 
 00005A0C		      C   _packssdw:
			      C     @instr_bytes    2
 00005A0C  64: C7 05	     1C     mov     fs:instruction_bytes,2
	   000000EB R
	   00000002
			     1C     IF 2 EQ 1
			     1C         inc     esi
			     1C     ELSE
 00005A17  83 C6 02	     1C         add     esi,2
			     1C     ENDIF
			      C     @instr_text     packssdw_text, 8
 00005A1A  64: C7 05	     1C     mov     fs:instruction_text_offset,offset packssdw_text
	   000000F3 R
	   000009CF R
 00005A25  64: C7 05	     1C     mov     fs:instruction_text_length,8
	   000000EF R
	   00000008
 00005A30  EB BA	      C     jmp     pack_mmx_rm_common
			      C 
 00005A32		      C   _packuswb:
			      C     @instr_bytes    2
 00005A32  64: C7 05	     1C     mov     fs:instruction_bytes,2
	   000000EB R
	   00000002
			     1C     IF 2 EQ 1
			     1C         inc     esi
			     1C     ELSE
 00005A3D  83 C6 02	     1C         add     esi,2
			     1C     ENDIF
			      C     @instr_text     packuswb_text, 8
 00005A40  64: C7 05	     1C     mov     fs:instruction_text_offset,offset packuswb_text
	   000000F3 R
	   000009DF R
 00005A4B  64: C7 05	     1C     mov     fs:instruction_text_length,8
	   000000EF R
	   00000008
 00005A56  EB 94	      C     jmp     pack_mmx_rm_common
			      C 
 00005A58		      C   _paddb:
			      C     @instr_bytes    2
 00005A58  64: C7 05	     1C     mov     fs:instruction_bytes,2
	   000000EB R
	   00000002
			     1C     IF 2 EQ 1
			     1C         inc     esi
			     1C     ELSE
 00005A63  83 C6 02	     1C         add     esi,2
			     1C     ENDIF
			      C     @instr_text     paddb_text, 5
 00005A66  64: C7 05	     1C     mov     fs:instruction_text_offset,offset paddb_text
	   000000F3 R
	   000009E7 R
 00005A71  64: C7 05	     1C     mov     fs:instruction_text_length,5
	   000000EF R
	   00000005
 00005A7C  E9 FFFFFF6B	      C     jmp     pack_mmx_rm_common
			      C 
 00005A81		      C   _paddw:
			      C     @instr_bytes    2
 00005A81  64: C7 05	     1C     mov     fs:instruction_bytes,2
	   000000EB R
	   00000002
			     1C     IF 2 EQ 1
			     1C         inc     esi
			     1C     ELSE
 00005A8C  83 C6 02	     1C         add     esi,2
			     1C     ENDIF
			      C     @instr_text     paddw_text, 5
 00005A8F  64: C7 05	     1C     mov     fs:instruction_text_offset,offset paddw_text
	   000000F3 R
	   00000A06 R
 00005A9A  64: C7 05	     1C     mov     fs:instruction_text_length,5
	   000000EF R
	   00000005
 00005AA5  E9 FFFFFF42	      C     jmp     pack_mmx_rm_common
			      C 
 00005AAA		      C   _paddd:
			      C     @instr_bytes    2
 00005AAA  64: C7 05	     1C     mov     fs:instruction_bytes,2
	   000000EB R
	   00000002
			     1C     IF 2 EQ 1
			     1C         inc     esi
			     1C     ELSE
 00005AB5  83 C6 02	     1C         add     esi,2
			     1C     ENDIF
			      C     @instr_text     paddd_text, 5
 00005AB8  64: C7 05	     1C     mov     fs:instruction_text_offset,offset paddd_text
	   000000F3 R
	   00000A0B R
 00005AC3  64: C7 05	     1C     mov     fs:instruction_text_length,5
	   000000EF R
	   00000005
 00005ACE  E9 FFFFFF19	      C     jmp     pack_mmx_rm_common
			      C 
 00005AD3		      C   _paddsb:
			      C     @instr_bytes    2
 00005AD3  64: C7 05	     1C     mov     fs:instruction_bytes,2
	   000000EB R
	   00000002
			     1C     IF 2 EQ 1
			     1C         inc     esi
			     1C     ELSE
 00005ADE  83 C6 02	     1C         add     esi,2
			     1C     ENDIF
			      C     @instr_text     paddsb_text, 6
 00005AE1  64: C7 05	     1C     mov     fs:instruction_text_offset,offset paddsb_text
	   000000F3 R
	   000009EC R
 00005AEC  64: C7 05	     1C     mov     fs:instruction_text_length,6
	   000000EF R
	   00000006
 00005AF7  E9 FFFFFEF0	      C     jmp     pack_mmx_rm_common
			      C 
 00005AFC		      C   _paddsw:
			      C     @instr_bytes    2
 00005AFC  64: C7 05	     1C     mov     fs:instruction_bytes,2
	   000000EB R
	   00000002
			     1C     IF 2 EQ 1
			     1C         inc     esi
			     1C     ELSE
 00005B07  83 C6 02	     1C         add     esi,2
			     1C     ENDIF
			      C     @instr_text     paddsw_text, 6
 00005B0A  64: C7 05	     1C     mov     fs:instruction_text_offset,offset paddsw_text
	   000000F3 R
	   000009F2 R
 00005B15  64: C7 05	     1C     mov     fs:instruction_text_length,6
	   000000EF R
	   00000006
 00005B20  E9 FFFFFEC7	      C     jmp     pack_mmx_rm_common
			      C 
 00005B25		      C   _paddusb:
			      C     @instr_bytes    2
 00005B25  64: C7 05	     1C     mov     fs:instruction_bytes,2
	   000000EB R
	   00000002
			     1C     IF 2 EQ 1
			     1C         inc     esi
			     1C     ELSE
 00005B30  83 C6 02	     1C         add     esi,2
			     1C     ENDIF
			      C     @instr_text     paddusb_text, 7
 00005B33  64: C7 05	     1C     mov     fs:instruction_text_offset,offset paddusb_text
	   000000F3 R
	   000009F8 R
 00005B3E  64: C7 05	     1C     mov     fs:instruction_text_length,7
	   000000EF R
	   00000007
 00005B49  E9 FFFFFE9E	      C     jmp     pack_mmx_rm_common
			      C 
 00005B4E		      C   _paddusw:
			      C     @instr_bytes    2
 00005B4E  64: C7 05	     1C     mov     fs:instruction_bytes,2
	   000000EB R
	   00000002
			     1C     IF 2 EQ 1
			     1C         inc     esi
			     1C     ELSE
 00005B59  83 C6 02	     1C         add     esi,2
			     1C     ENDIF
			      C     @instr_text     paddusw_text, 7
 00005B5C  64: C7 05	     1C     mov     fs:instruction_text_offset,offset paddusw_text
	   000000F3 R
	   000009FF R
 00005B67  64: C7 05	     1C     mov     fs:instruction_text_length,7
	   000000EF R
	   00000007
 00005B72  E9 FFFFFE75	      C     jmp     pack_mmx_rm_common
			      C 
 00005B77		      C   _pand:
			      C     @instr_bytes    2
 00005B77  64: C7 05	     1C     mov     fs:instruction_bytes,2
	   000000EB R
	   00000002
			     1C     IF 2 EQ 1
			     1C         inc     esi
			     1C     ELSE
 00005B82  83 C6 02	     1C         add     esi,2
			     1C     ENDIF
			      C     @instr_text     pand_text, 4
 00005B85  64: C7 05	     1C     mov     fs:instruction_text_offset,offset pand_text
	   000000F3 R
	   00000A10 R
 00005B90  64: C7 05	     1C     mov     fs:instruction_text_length,4
	   000000EF R
	   00000004
 00005B9B  E9 FFFFFE4C	      C     jmp     pack_mmx_rm_common
			      C 
 00005BA0		      C   _pandn:
			      C     @instr_bytes    2
 00005BA0  64: C7 05	     1C     mov     fs:instruction_bytes,2
	   000000EB R
	   00000002
			     1C     IF 2 EQ 1
			     1C         inc     esi
			     1C     ELSE
 00005BAB  83 C6 02	     1C         add     esi,2
			     1C     ENDIF
			      C     @instr_text     pandn_text, 5
 00005BAE  64: C7 05	     1C     mov     fs:instruction_text_offset,offset pandn_text
	   000000F3 R
	   00000A14 R
 00005BB9  64: C7 05	     1C     mov     fs:instruction_text_length,5
	   000000EF R
	   00000005
 00005BC4  E9 FFFFFE23	      C     jmp     pack_mmx_rm_common
			      C 
 00005BC9		      C   _pcmpeqb:
			      C     @instr_bytes    2
 00005BC9  64: C7 05	     1C     mov     fs:instruction_bytes,2
	   000000EB R
	   00000002
			     1C     IF 2 EQ 1
			     1C         inc     esi
			     1C     ELSE
 00005BD4  83 C6 02	     1C         add     esi,2
			     1C     ENDIF
			      C     @instr_text     pcmpeqb_text, 7
 00005BD7  64: C7 05	     1C     mov     fs:instruction_text_offset,offset pcmpeqb_text
	   000000F3 R
	   00000A19 R
 00005BE2  64: C7 05	     1C     mov     fs:instruction_text_length,7
	   000000EF R
	   00000007
 00005BED  E9 FFFFFDFA	      C     jmp     pack_mmx_rm_common
			      C 
 00005BF2		      C   _pcmpeqw:
			      C     @instr_bytes    2
 00005BF2  64: C7 05	     1C     mov     fs:instruction_bytes,2
	   000000EB R
	   00000002
			     1C     IF 2 EQ 1
			     1C         inc     esi
			     1C     ELSE
 00005BFD  83 C6 02	     1C         add     esi,2
			     1C     ENDIF
			      C     @instr_text     pcmpeqw_text, 7
 00005C00  64: C7 05	     1C     mov     fs:instruction_text_offset,offset pcmpeqw_text
	   000000F3 R
	   00000A27 R
 00005C0B  64: C7 05	     1C     mov     fs:instruction_text_length,7
	   000000EF R
	   00000007
 00005C16  E9 FFFFFDD1	      C     jmp     pack_mmx_rm_common
			      C 
 00005C1B		      C   _pcmpeqd:
			      C     @instr_bytes    2
 00005C1B  64: C7 05	     1C     mov     fs:instruction_bytes,2
	   000000EB R
	   00000002
			     1C     IF 2 EQ 1
			     1C         inc     esi
			     1C     ELSE
 00005C26  83 C6 02	     1C         add     esi,2
			     1C     ENDIF
			      C     @instr_text     pcmpeqd_text, 7
 00005C29  64: C7 05	     1C     mov     fs:instruction_text_offset,offset pcmpeqd_text
	   000000F3 R
	   00000A20 R
 00005C34  64: C7 05	     1C     mov     fs:instruction_text_length,7
	   000000EF R
	   00000007
 00005C3F  E9 FFFFFDA8	      C     jmp     pack_mmx_rm_common
			      C 
 00005C44		      C   _pcmpgtb:
			      C     @instr_bytes    2
 00005C44  64: C7 05	     1C     mov     fs:instruction_bytes,2
	   000000EB R
	   00000002
			     1C     IF 2 EQ 1
			     1C         inc     esi
			     1C     ELSE
 00005C4F  83 C6 02	     1C         add     esi,2
			     1C     ENDIF
			      C     @instr_text     pcmpgtb_text, 7
 00005C52  64: C7 05	     1C     mov     fs:instruction_text_offset,offset pcmpgtb_text
	   000000F3 R
	   00000A2E R
 00005C5D  64: C7 05	     1C     mov     fs:instruction_text_length,7
	   000000EF R
	   00000007
 00005C68  E9 FFFFFD7F	      C     jmp     pack_mmx_rm_common
			      C 
 00005C6D		      C   _pcmpgtd:
			      C     @instr_bytes    2
 00005C6D  64: C7 05	     1C     mov     fs:instruction_bytes,2
	   000000EB R
	   00000002
			     1C     IF 2 EQ 1
			     1C         inc     esi
			     1C     ELSE
 00005C78  83 C6 02	     1C         add     esi,2
			     1C     ENDIF
			      C     @instr_text     pcmpgtd_text, 7
 00005C7B  64: C7 05	     1C     mov     fs:instruction_text_offset,offset pcmpgtd_text
	   000000F3 R
	   00000A35 R
 00005C86  64: C7 05	     1C     mov     fs:instruction_text_length,7
	   000000EF R
	   00000007
 00005C91  E9 FFFFFD56	      C     jmp     pack_mmx_rm_common
			      C 
 00005C96		      C   _pcmpgtw:
			      C     @instr_bytes    2
 00005C96  64: C7 05	     1C     mov     fs:instruction_bytes,2
	   000000EB R
	   00000002
			     1C     IF 2 EQ 1
			     1C         inc     esi
			     1C     ELSE
 00005CA1  83 C6 02	     1C         add     esi,2
			     1C     ENDIF
			      C     @instr_text     pcmpgtw_text, 7
 00005CA4  64: C7 05	     1C     mov     fs:instruction_text_offset,offset pcmpgtw_text
	   000000F3 R
	   00000A3C R
 00005CAF  64: C7 05	     1C     mov     fs:instruction_text_length,7
	   000000EF R
	   00000007
 00005CBA  E9 FFFFFD2D	      C     jmp     pack_mmx_rm_common
			      C 
 00005CBF		      C   _pmaddwd:
			      C     @instr_bytes    2
 00005CBF  64: C7 05	     1C     mov     fs:instruction_bytes,2
	   000000EB R
	   00000002
			     1C     IF 2 EQ 1
			     1C         inc     esi
			     1C     ELSE
 00005CCA  83 C6 02	     1C         add     esi,2
			     1C     ENDIF
			      C     @instr_text     pmaddwd_text, 7
 00005CCD  64: C7 05	     1C     mov     fs:instruction_text_offset,offset pmaddwd_text
	   000000F3 R
	   00000A43 R
 00005CD8  64: C7 05	     1C     mov     fs:instruction_text_length,7
	   000000EF R
	   00000007
 00005CE3  E9 FFFFFD04	      C     jmp     pack_mmx_rm_common
			      C 
 00005CE8		      C   _pmulhw:
			      C     @instr_bytes    2
 00005CE8  64: C7 05	     1C     mov     fs:instruction_bytes,2
	   000000EB R
	   00000002
			     1C     IF 2 EQ 1
			     1C         inc     esi
			     1C     ELSE
 00005CF3  83 C6 02	     1C         add     esi,2
			     1C     ENDIF
			      C     @instr_text     pmulhw_text, 6
 00005CF6  64: C7 05	     1C     mov     fs:instruction_text_offset,offset pmulhw_text
	   000000F3 R
	   00000A4A R
 00005D01  64: C7 05	     1C     mov     fs:instruction_text_length,6
	   000000EF R
	   00000006
 00005D0C  E9 FFFFFCDB	      C     jmp     pack_mmx_rm_common
			      C 
 00005D11		      C   _pmullw:
			      C     @instr_bytes    2
 00005D11  64: C7 05	     1C     mov     fs:instruction_bytes,2
	   000000EB R
	   00000002
			     1C     IF 2 EQ 1
			     1C         inc     esi
			     1C     ELSE
 00005D1C  83 C6 02	     1C         add     esi,2
			     1C     ENDIF
			      C     @instr_text     pmullw_text, 6
 00005D1F  64: C7 05	     1C     mov     fs:instruction_text_offset,offset pmullw_text
	   000000F3 R
	   00000A50 R
 00005D2A  64: C7 05	     1C     mov     fs:instruction_text_length,6
	   000000EF R
	   00000006
 00005D35  E9 FFFFFCB2	      C     jmp     pack_mmx_rm_common
			      C 
 00005D3A		      C   _pop_mem:
			      C     @instr_bytes    1
 00005D3A  64: C7 05	     1C     mov     fs:instruction_bytes,1
	   000000EB R
	   00000001
			     1C     IF 1 EQ 1
 00005D45  46		     1C         inc     esi
			     1C     ELSE
			     1C         add     esi,1
			     1C     ENDIF
			      C     @instr_text     pop_text, 3
 00005D46  64: C7 05	     1C     mov     fs:instruction_text_offset,offset pop_text
	   000000F3 R
	   00000713 R
 00005D51  64: C7 05	     1C     mov     fs:instruction_text_length,3
	   000000EF R
	   00000003
 00005D5C  E8 0000287A	      C     call    determine_standard_operand_size
 00005D61  E8 00002B35	      C     call    extract_mod_rm
 00005D66  E9 00002614	      C     jmp     store_instruction
			      C 
 00005D6B		      C   _pop_ds:
			      C     @instr_bytes    1
 00005D6B  64: C7 05	     1C     mov     fs:instruction_bytes,1
	   000000EB R
	   00000001
			     1C     IF 1 EQ 1
 00005D76  46		     1C         inc     esi
			     1C     ELSE
			     1C         add     esi,1
			     1C     ENDIF
 00005D77  B3 03	      C     mov     bl,011b
 00005D79		      C   _pop_xs_common:
			      C     @instr_text     pop_text, 3
 00005D79  64: C7 05	     1C     mov     fs:instruction_text_offset,offset pop_text
	   000000F3 R
	   00000713 R
 00005D84  64: C7 05	     1C     mov     fs:instruction_text_length,3
	   000000EF R
	   00000003
 00005D8F  E8 000027B4	      C     call    start_offsets
 00005D94  64: C7 05	      C     mov     fs:special_reg,_SEG_REGS
	   000000AF R
	   00000004
 00005D9F  E8 00002B9E	      C     call    store_gp_register
 00005DA4  E8 000027B5	      C     call    end_offsets
 00005DA9  E9 000025D1	      C     jmp     store_instruction
			      C 
 00005DAE		      C   _pop_es:
			      C     @instr_bytes    1
 00005DAE  64: C7 05	     1C     mov     fs:instruction_bytes,1
	   000000EB R
	   00000001
			     1C     IF 1 EQ 1
 00005DB9  46		     1C         inc     esi
			     1C     ELSE
			     1C         add     esi,1
			     1C     ENDIF
 00005DBA  32 DB	      C     xor     bl,bl
 00005DBC  EB BB	      C     jmp     _pop_xs_common
			      C 
 00005DBE		      C   _pop_fs:
			      C     @instr_bytes    2
 00005DBE  64: C7 05	     1C     mov     fs:instruction_bytes,2
	   000000EB R
	   00000002
			     1C     IF 2 EQ 1
			     1C         inc     esi
			     1C     ELSE
 00005DC9  83 C6 02	     1C         add     esi,2
			     1C     ENDIF
 00005DCC  B3 04	      C     mov     bl,100b
 00005DCE  EB A9	      C     jmp     _pop_xs_common
			      C 
 00005DD0		      C   _pop_gs:
			      C     @instr_bytes    2
 00005DD0  64: C7 05	     1C     mov     fs:instruction_bytes,2
	   000000EB R
	   00000002
			     1C     IF 2 EQ 1
			     1C         inc     esi
			     1C     ELSE
 00005DDB  83 C6 02	     1C         add     esi,2
			     1C     ENDIF
 00005DDE  B3 05	      C     mov     bl,101b
 00005DE0  EB 97	      C     jmp     _pop_xs_common
			      C 
 00005DE2		      C   _pop_ss:
			      C     @instr_bytes    1
 00005DE2  64: C7 05	     1C     mov     fs:instruction_bytes,1
	   000000EB R
	   00000001
			     1C     IF 1 EQ 1
 00005DED  46		     1C         inc     esi
			     1C     ELSE
			     1C         add     esi,1
			     1C     ENDIF
 00005DEE  B3 02	      C     mov     bl,010b
 00005DF0  EB 87	      C     jmp     _pop_xs_common
			      C 
 00005DF2		      C   _pop_xax:
 00005DF2		      C   _pop_xbp:
 00005DF2		      C   _pop_xbx:
 00005DF2		      C   _pop_xcx:
 00005DF2		      C   _pop_xdi:
 00005DF2		      C   _pop_xdx:
 00005DF2		      C   _pop_xsi:
 00005DF2		      C   _pop_xsp:
			      C     @instr_bytes    1
 00005DF2  64: C7 05	     1C     mov     fs:instruction_bytes,1
	   000000EB R
	   00000001
			     1C     IF 1 EQ 1
 00005DFD  46		     1C         inc     esi
			     1C     ELSE
			     1C         add     esi,1
			     1C     ENDIF
			      C     @instr_text     pop_text, 3
 00005DFE  64: C7 05	     1C     mov     fs:instruction_text_offset,offset pop_text
	   000000F3 R
	   00000713 R
 00005E09  64: C7 05	     1C     mov     fs:instruction_text_length,3
	   000000EF R
	   00000003
 00005E14  E8 0000272F	      C     call    start_offsets
 00005E19  83 E0 07	      C     and     eax,111b
 00005E1C  E8 000027BA	      C     call    determine_standard_operand_size
 00005E21  8A D8	      C     mov     bl,al
 00005E23  E8 00002B1A	      C     call    store_gp_register
 00005E28  E8 00002731	      C     call    end_offsets
 00005E2D  E9 0000254D	      C     jmp     store_instruction
			      C 
 00005E32		      C   _popa:
			      C     @instr_bytes    1
 00005E32  64: C7 05	     1C     mov     fs:instruction_bytes,1
	   000000EB R
	   00000001
			     1C     IF 1 EQ 1
 00005E3D  46		     1C         inc     esi
			     1C     ELSE
			     1C         add     esi,1
			     1C     ENDIF
			      C     .IF ((fs:cpu_mode == 0 && fs:op_size_override != 0) || (fs:cpu_mode != 0 && fs:op_size_override == 0))
 00005E3E  64: 83 3D
	   0000009B R 00   *	    cmp    fs : cpu_mode, 000h
 00005E46  75 0A	   *	    jne    @C024E
 00005E48  64: 83 3D
	   000000BF R 00   *	    cmp    fs : op_size_override, 000h
 00005E50  75 14	   *	    jne    @C024D
 00005E52		   *@C024E:
 00005E52  64: 83 3D
	   0000009B R 00   *	    cmp    fs : cpu_mode, 000h
 00005E5A  74 22	   *	    je     @C024C
 00005E5C  64: 83 3D
	   000000BF R 00   *	    cmp    fs : op_size_override, 000h
 00005E64  75 18	   *	    jne    @C024C
 00005E66		   *@C024D:
			      C         @instr_text     popa_text, 4
 00005E66  64: C7 05	     1C     mov     fs:instruction_text_offset,offset popa_text
	   000000F3 R
	   000005AF R
 00005E71  64: C7 05	     1C     mov     fs:instruction_text_length,4
	   000000EF R
	   00000004
			      C     .ELSE
 00005E7C  EB 16	   *	    jmp    @C0251
 00005E7E		   *@C024C:
			      C         @instr_text     popad_text, 5
 00005E7E  64: C7 05	     1C     mov     fs:instruction_text_offset,offset popad_text
	   000000F3 R
	   000005AF R
 00005E89  64: C7 05	     1C     mov     fs:instruction_text_length,5
	   000000EF R
	   00000005
			      C     .ENDIF
 00005E94		   *@C0251:
 00005E94  E9 000024E6	      C     jmp     store_instruction
			      C 
 00005E99		      C   _popf:
			      C     @instr_bytes    1
 00005E99  64: C7 05	     1C     mov     fs:instruction_bytes,1
	   000000EB R
	   00000001
			     1C     IF 1 EQ 1
 00005EA4  46		     1C         inc     esi
			     1C     ELSE
			     1C         add     esi,1
			     1C     ENDIF
			      C     .IF ((fs:cpu_mode == 0 && fs:op_size_override != 0) || (fs:cpu_mode != 0 && fs:op_size_override == 0))
 00005EA5  64: 83 3D
	   0000009B R 00   *	    cmp    fs : cpu_mode, 000h
 00005EAD  75 0A	   *	    jne    @C0254
 00005EAF  64: 83 3D
	   000000BF R 00   *	    cmp    fs : op_size_override, 000h
 00005EB7  75 14	   *	    jne    @C0253
 00005EB9		   *@C0254:
 00005EB9  64: 83 3D
	   0000009B R 00   *	    cmp    fs : cpu_mode, 000h
 00005EC1  74 22	   *	    je     @C0252
 00005EC3  64: 83 3D
	   000000BF R 00   *	    cmp    fs : op_size_override, 000h
 00005ECB  75 18	   *	    jne    @C0252
 00005ECD		   *@C0253:
			      C         @instr_text     popf_text, 4
 00005ECD  64: C7 05	     1C     mov     fs:instruction_text_offset,offset popf_text
	   000000F3 R
	   000005B4 R
 00005ED8  64: C7 05	     1C     mov     fs:instruction_text_length,4
	   000000EF R
	   00000004
			      C     .ELSE
 00005EE3  EB 16	   *	    jmp    @C0257
 00005EE5		   *@C0252:
			      C         @instr_text     popfd_text, 5
 00005EE5  64: C7 05	     1C     mov     fs:instruction_text_offset,offset popfd_text
	   000000F3 R
	   000005B4 R
 00005EF0  64: C7 05	     1C     mov     fs:instruction_text_length,5
	   000000EF R
	   00000005
			      C     .ENDIF
 00005EFB		   *@C0257:
 00005EFB  E9 0000247F	      C     jmp     store_instruction
			      C 
 00005F00		      C   _por:
			      C     @instr_bytes    2
 00005F00  64: C7 05	     1C     mov     fs:instruction_bytes,2
	   000000EB R
	   00000002
			     1C     IF 2 EQ 1
			     1C         inc     esi
			     1C     ELSE
 00005F0B  83 C6 02	     1C         add     esi,2
			     1C     ENDIF
			      C     @instr_text     por_text, 3
 00005F0E  64: C7 05	     1C     mov     fs:instruction_text_offset,offset por_text
	   000000F3 R
	   00000A56 R
 00005F19  64: C7 05	     1C     mov     fs:instruction_text_length,3
	   000000EF R
	   00000003
 00005F24  E9 FFFFFAC3	      C     jmp     pack_mmx_rm_common
			      C 
 00005F29		      C   _pslld:
			      C     @instr_bytes    2
 00005F29  64: C7 05	     1C     mov     fs:instruction_bytes,2
	   000000EB R
	   00000002
			     1C     IF 2 EQ 1
			     1C         inc     esi
			     1C     ELSE
 00005F34  83 C6 02	     1C         add     esi,2
			     1C     ENDIF
			      C     @instr_text     pslld_text, 5
 00005F37  64: C7 05	     1C     mov     fs:instruction_text_offset,offset pslld_text
	   000000F3 R
	   00000A59 R
 00005F42  64: C7 05	     1C     mov     fs:instruction_text_length,5
	   000000EF R
	   00000005
 00005F4D  E9 FFFFFA9A	      C     jmp     pack_mmx_rm_common
			      C 
 00005F52		      C   _psllq:
			      C     @instr_bytes    2
 00005F52  64: C7 05	     1C     mov     fs:instruction_bytes,2
	   000000EB R
	   00000002
			     1C     IF 2 EQ 1
			     1C         inc     esi
			     1C     ELSE
 00005F5D  83 C6 02	     1C         add     esi,2
			     1C     ENDIF
			      C     @instr_text     psllq_text, 5
 00005F60  64: C7 05	     1C     mov     fs:instruction_text_offset,offset psllq_text
	   000000F3 R
	   00000A5E R
 00005F6B  64: C7 05	     1C     mov     fs:instruction_text_length,5
	   000000EF R
	   00000005
 00005F76  E9 FFFFFA71	      C     jmp     pack_mmx_rm_common
			      C 
 00005F7B		      C   _psllw:
			      C     @instr_bytes    2
 00005F7B  64: C7 05	     1C     mov     fs:instruction_bytes,2
	   000000EB R
	   00000002
			     1C     IF 2 EQ 1
			     1C         inc     esi
			     1C     ELSE
 00005F86  83 C6 02	     1C         add     esi,2
			     1C     ENDIF
			      C     @instr_text     psllw_text, 5
 00005F89  64: C7 05	     1C     mov     fs:instruction_text_offset,offset psllw_text
	   000000F3 R
	   00000A63 R
 00005F94  64: C7 05	     1C     mov     fs:instruction_text_length,5
	   000000EF R
	   00000005
 00005F9F  E9 FFFFFA48	      C     jmp     pack_mmx_rm_common
			      C 
 00005FA4		      C   _psrad:
			      C     @instr_bytes    2
 00005FA4  64: C7 05	     1C     mov     fs:instruction_bytes,2
	   000000EB R
	   00000002
			     1C     IF 2 EQ 1
			     1C         inc     esi
			     1C     ELSE
 00005FAF  83 C6 02	     1C         add     esi,2
			     1C     ENDIF
			      C     @instr_text     psrad_text, 5
 00005FB2  64: C7 05	     1C     mov     fs:instruction_text_offset,offset psrad_text
	   000000F3 R
	   00000A68 R
 00005FBD  64: C7 05	     1C     mov     fs:instruction_text_length,5
	   000000EF R
	   00000005
 00005FC8  E9 FFFFFA1F	      C     jmp     pack_mmx_rm_common
			      C 
 00005FCD		      C   _psrad_immed8:
			      C     @instr_bytes    2
 00005FCD  64: C7 05	     1C     mov     fs:instruction_bytes,2
	   000000EB R
	   00000002
			     1C     IF 2 EQ 1
			     1C         inc     esi
			     1C     ELSE
 00005FD8  83 C6 02	     1C         add     esi,2
			     1C     ENDIF
			      C     @instr_text     psrad_text, 5
 00005FDB  64: C7 05	     1C     mov     fs:instruction_text_offset,offset psrad_text
	   000000F3 R
	   00000A68 R
 00005FE6  64: C7 05	     1C     mov     fs:instruction_text_length,5
	   000000EF R
	   00000005
 00005FF1		      C   psrax_immed8_common:
 00005FF1  E8 00002552	      C     call    start_offsets
 00005FF6  64: C7 05	      C     mov     fs:special_reg,_MMX_REGS
	   000000AF R
	   00000006
 00006001  E8 00002895	      C     call    extract_mod_rm
 00006006  E8 00003884	      C     call    store_comma
 0000600B  E8 000035AA	      C     call    store_8_bit_value
 00006010  E8 00002549	      C     call    end_offsets
 00006015  E9 00002365	      C     jmp     store_instruction
			      C 
 0000601A		      C   _psraw:
			      C     @instr_bytes    2
 0000601A  64: C7 05	     1C     mov     fs:instruction_bytes,2
	   000000EB R
	   00000002
			     1C     IF 2 EQ 1
			     1C         inc     esi
			     1C     ELSE
 00006025  83 C6 02	     1C         add     esi,2
			     1C     ENDIF
			      C     @instr_text     psraw_text, 5
 00006028  64: C7 05	     1C     mov     fs:instruction_text_offset,offset psraw_text
	   000000F3 R
	   00000A6D R
 00006033  64: C7 05	     1C     mov     fs:instruction_text_length,5
	   000000EF R
	   00000005
 0000603E  E9 FFFFF9A9	      C     jmp     pack_mmx_rm_common
			      C 
 00006043		      C   _psraw_immed8:
			      C     @instr_bytes    2
 00006043  64: C7 05	     1C     mov     fs:instruction_bytes,2
	   000000EB R
	   00000002
			     1C     IF 2 EQ 1
			     1C         inc     esi
			     1C     ELSE
 0000604E  83 C6 02	     1C         add     esi,2
			     1C     ENDIF
			      C     @instr_text     psraw_text, 5
 00006051  64: C7 05	     1C     mov     fs:instruction_text_offset,offset psraw_text
	   000000F3 R
	   00000A6D R
 0000605C  64: C7 05	     1C     mov     fs:instruction_text_length,5
	   000000EF R
	   00000005
 00006067  EB 88	      C     jmp     psrax_immed8_common
			      C 
 00006069		      C   _psrld:
			      C     @instr_bytes    2
 00006069  64: C7 05	     1C     mov     fs:instruction_bytes,2
	   000000EB R
	   00000002
			     1C     IF 2 EQ 1
			     1C         inc     esi
			     1C     ELSE
 00006074  83 C6 02	     1C         add     esi,2
			     1C     ENDIF
			      C     @instr_text     psrld_text, 5
 00006077  64: C7 05	     1C     mov     fs:instruction_text_offset,offset psrld_text
	   000000F3 R
	   00000A72 R
 00006082  64: C7 05	     1C     mov     fs:instruction_text_length,5
	   000000EF R
	   00000005
 0000608D  E9 FFFFF95A	      C     jmp     pack_mmx_rm_common
			      C 
 00006092		      C   _psrlq:
			      C     @instr_bytes    2
 00006092  64: C7 05	     1C     mov     fs:instruction_bytes,2
	   000000EB R
	   00000002
			     1C     IF 2 EQ 1
			     1C         inc     esi
			     1C     ELSE
 0000609D  83 C6 02	     1C         add     esi,2
			     1C     ENDIF
			      C     @instr_text     psrlq_text, 5
 000060A0  64: C7 05	     1C     mov     fs:instruction_text_offset,offset psrlq_text
	   000000F3 R
	   00000A77 R
 000060AB  64: C7 05	     1C     mov     fs:instruction_text_length,5
	   000000EF R
	   00000005
 000060B6  E9 FFFFF931	      C     jmp     pack_mmx_rm_common
			      C 
 000060BB		      C   _psrlw:
			      C     @instr_bytes    2
 000060BB  64: C7 05	     1C     mov     fs:instruction_bytes,2
	   000000EB R
	   00000002
			     1C     IF 2 EQ 1
			     1C         inc     esi
			     1C     ELSE
 000060C6  83 C6 02	     1C         add     esi,2
			     1C     ENDIF
			      C     @instr_text     psrlw_text, 5
 000060C9  64: C7 05	     1C     mov     fs:instruction_text_offset,offset psrlw_text
	   000000F3 R
	   00000A7C R
 000060D4  64: C7 05	     1C     mov     fs:instruction_text_length,5
	   000000EF R
	   00000005
 000060DF  E9 FFFFF908	      C     jmp     pack_mmx_rm_common
			      C 
 000060E4		      C   _psubb:
			      C     @instr_bytes    2
 000060E4  64: C7 05	     1C     mov     fs:instruction_bytes,2
	   000000EB R
	   00000002
			     1C     IF 2 EQ 1
			     1C         inc     esi
			     1C     ELSE
 000060EF  83 C6 02	     1C         add     esi,2
			     1C     ENDIF
			      C     @instr_text     psubb_text, 5
 000060F2  64: C7 05	     1C     mov     fs:instruction_text_offset,offset psubb_text
	   000000F3 R
	   00000A81 R
 000060FD  64: C7 05	     1C     mov     fs:instruction_text_length,5
	   000000EF R
	   00000005
 00006108  E9 FFFFF8DF	      C     jmp     pack_mmx_rm_common
			      C 
 0000610D		      C   _psubd:
			      C     @instr_bytes    2
 0000610D  64: C7 05	     1C     mov     fs:instruction_bytes,2
	   000000EB R
	   00000002
			     1C     IF 2 EQ 1
			     1C         inc     esi
			     1C     ELSE
 00006118  83 C6 02	     1C         add     esi,2
			     1C     ENDIF
			      C     @instr_text     psubd_text, 5
 0000611B  64: C7 05	     1C     mov     fs:instruction_text_offset,offset psubd_text
	   000000F3 R
	   00000A86 R
 00006126  64: C7 05	     1C     mov     fs:instruction_text_length,5
	   000000EF R
	   00000005
 00006131  E9 FFFFF8B6	      C     jmp     pack_mmx_rm_common
			      C 
 00006136		      C   _psubsb:
			      C     @instr_bytes    2
 00006136  64: C7 05	     1C     mov     fs:instruction_bytes,2
	   000000EB R
	   00000002
			     1C     IF 2 EQ 1
			     1C         inc     esi
			     1C     ELSE
 00006141  83 C6 02	     1C         add     esi,2
			     1C     ENDIF
			      C     @instr_text     psubsb_text, 6
 00006144  64: C7 05	     1C     mov     fs:instruction_text_offset,offset psubsb_text
	   000000F3 R
	   00000A8B R
 0000614F  64: C7 05	     1C     mov     fs:instruction_text_length,6
	   000000EF R
	   00000006
 0000615A  E9 FFFFF88D	      C     jmp     pack_mmx_rm_common
			      C 
 0000615F		      C   _psubsw:
			      C     @instr_bytes    2
 0000615F  64: C7 05	     1C     mov     fs:instruction_bytes,2
	   000000EB R
	   00000002
			     1C     IF 2 EQ 1
			     1C         inc     esi
			     1C     ELSE
 0000616A  83 C6 02	     1C         add     esi,2
			     1C     ENDIF
			      C     @instr_text     psubsw_text, 6
 0000616D  64: C7 05	     1C     mov     fs:instruction_text_offset,offset psubsw_text
	   000000F3 R
	   00000A91 R
 00006178  64: C7 05	     1C     mov     fs:instruction_text_length,6
	   000000EF R
	   00000006
 00006183  E9 FFFFF864	      C     jmp     pack_mmx_rm_common
			      C 
 00006188		      C   _psubusb:
			      C     @instr_bytes    2
 00006188  64: C7 05	     1C     mov     fs:instruction_bytes,2
	   000000EB R
	   00000002
			     1C     IF 2 EQ 1
			     1C         inc     esi
			     1C     ELSE
 00006193  83 C6 02	     1C         add     esi,2
			     1C     ENDIF
			      C     @instr_text     psubusb_text, 7
 00006196  64: C7 05	     1C     mov     fs:instruction_text_offset,offset psubusb_text
	   000000F3 R
	   00000A97 R
 000061A1  64: C7 05	     1C     mov     fs:instruction_text_length,7
	   000000EF R
	   00000007
 000061AC  E9 FFFFF83B	      C     jmp     pack_mmx_rm_common
			      C 
 000061B1		      C   _psubusw:
			      C     @instr_bytes    2
 000061B1  64: C7 05	     1C     mov     fs:instruction_bytes,2
	   000000EB R
	   00000002
			     1C     IF 2 EQ 1
			     1C         inc     esi
			     1C     ELSE
 000061BC  83 C6 02	     1C         add     esi,2
			     1C     ENDIF
			      C     @instr_text     psubusw_text, 7
 000061BF  64: C7 05	     1C     mov     fs:instruction_text_offset,offset psubusw_text
	   000000F3 R
	   00000A9E R
 000061CA  64: C7 05	     1C     mov     fs:instruction_text_length,7
	   000000EF R
	   00000007
 000061D5  E9 FFFFF812	      C     jmp     pack_mmx_rm_common
			      C 
 000061DA		      C   _psubw:
			      C     @instr_bytes    2
 000061DA  64: C7 05	     1C     mov     fs:instruction_bytes,2
	   000000EB R
	   00000002
			     1C     IF 2 EQ 1
			     1C         inc     esi
			     1C     ELSE
 000061E5  83 C6 02	     1C         add     esi,2
			     1C     ENDIF
			      C     @instr_text     psubw_text, 5
 000061E8  64: C7 05	     1C     mov     fs:instruction_text_offset,offset psubw_text
	   000000F3 R
	   00000AA5 R
 000061F3  64: C7 05	     1C     mov     fs:instruction_text_length,5
	   000000EF R
	   00000005
 000061FE  E9 FFFFF7E9	      C     jmp     pack_mmx_rm_common
			      C 
 00006203		      C   _punpckhbw:
			      C     @instr_bytes    2
 00006203  64: C7 05	     1C     mov     fs:instruction_bytes,2
	   000000EB R
	   00000002
			     1C     IF 2 EQ 1
			     1C         inc     esi
			     1C     ELSE
 0000620E  83 C6 02	     1C         add     esi,2
			     1C     ENDIF
			      C     @instr_text     punpckhbw_text, 9
 00006211  64: C7 05	     1C     mov     fs:instruction_text_offset,offset punpckhbw_text
	   000000F3 R
	   00000AAA R
 0000621C  64: C7 05	     1C     mov     fs:instruction_text_length,9
	   000000EF R
	   00000009
 00006227  E9 FFFFF7C0	      C     jmp     pack_mmx_rm_common
			      C 
 0000622C		      C   _punpckhwd:
			      C     @instr_bytes    2
 0000622C  64: C7 05	     1C     mov     fs:instruction_bytes,2
	   000000EB R
	   00000002
			     1C     IF 2 EQ 1
			     1C         inc     esi
			     1C     ELSE
 00006237  83 C6 02	     1C         add     esi,2
			     1C     ENDIF
			      C     @instr_text     punpckhwd_text, 9
 0000623A  64: C7 05	     1C     mov     fs:instruction_text_offset,offset punpckhwd_text
	   000000F3 R
	   00000AB3 R
 00006245  64: C7 05	     1C     mov     fs:instruction_text_length,9
	   000000EF R
	   00000009
 00006250  E9 FFFFF797	      C     jmp     pack_mmx_rm_common
			      C 
 00006255		      C   _punpckhdq:
			      C     @instr_bytes    2
 00006255  64: C7 05	     1C     mov     fs:instruction_bytes,2
	   000000EB R
	   00000002
			     1C     IF 2 EQ 1
			     1C         inc     esi
			     1C     ELSE
 00006260  83 C6 02	     1C         add     esi,2
			     1C     ENDIF
			      C     @instr_text     punpckhdq_text, 9
 00006263  64: C7 05	     1C     mov     fs:instruction_text_offset,offset punpckhdq_text
	   000000F3 R
	   00000ABC R
 0000626E  64: C7 05	     1C     mov     fs:instruction_text_length,9
	   000000EF R
	   00000009
 00006279  E9 FFFFF76E	      C     jmp     pack_mmx_rm_common
			      C 
 0000627E		      C   _punpcklbw:
			      C     @instr_bytes    2
 0000627E  64: C7 05	     1C     mov     fs:instruction_bytes,2
	   000000EB R
	   00000002
			     1C     IF 2 EQ 1
			     1C         inc     esi
			     1C     ELSE
 00006289  83 C6 02	     1C         add     esi,2
			     1C     ENDIF
			      C     @instr_text     punpcklbw_text, 9
 0000628C  64: C7 05	     1C     mov     fs:instruction_text_offset,offset punpcklbw_text
	   000000F3 R
	   00000AC5 R
 00006297  64: C7 05	     1C     mov     fs:instruction_text_length,9
	   000000EF R
	   00000009
 000062A2  E9 FFFFF745	      C     jmp     pack_mmx_rm_common
			      C 
 000062A7		      C   _punpcklwd:
			      C     @instr_bytes    2
 000062A7  64: C7 05	     1C     mov     fs:instruction_bytes,2
	   000000EB R
	   00000002
			     1C     IF 2 EQ 1
			     1C         inc     esi
			     1C     ELSE
 000062B2  83 C6 02	     1C         add     esi,2
			     1C     ENDIF
			      C     @instr_text     punpcklwd_text, 9
 000062B5  64: C7 05	     1C     mov     fs:instruction_text_offset,offset punpcklwd_text
	   000000F3 R
	   00000ACE R
 000062C0  64: C7 05	     1C     mov     fs:instruction_text_length,9
	   000000EF R
	   00000009
 000062CB  E9 FFFFF71C	      C     jmp     pack_mmx_rm_common
			      C 
 000062D0		      C   _punpckldq:
			      C     @instr_bytes    2
 000062D0  64: C7 05	     1C     mov     fs:instruction_bytes,2
	   000000EB R
	   00000002
			     1C     IF 2 EQ 1
			     1C         inc     esi
			     1C     ELSE
 000062DB  83 C6 02	     1C         add     esi,2
			     1C     ENDIF
			      C     @instr_text     punpckldq_text, 9
 000062DE  64: C7 05	     1C     mov     fs:instruction_text_offset,offset punpckldq_text
	   000000F3 R
	   00000AD7 R
 000062E9  64: C7 05	     1C     mov     fs:instruction_text_length,9
	   000000EF R
	   00000009
 000062F4  E9 FFFFF6F3	      C     jmp     pack_mmx_rm_common
			      C 
 000062F9		      C   _push_immed16_32:
			      C     @instr_bytes    1
 000062F9  64: C7 05	     1C     mov     fs:instruction_bytes,1
	   000000EB R
	   00000001
			     1C     IF 1 EQ 1
 00006304  46		     1C         inc     esi
			     1C     ELSE
			     1C         add     esi,1
			     1C     ENDIF
			      C     @instr_text     push_text, 4
 00006305  64: C7 05	     1C     mov     fs:instruction_text_offset,offset push_text
	   000000F3 R
	   00000716 R
 00006310  64: C7 05	     1C     mov     fs:instruction_text_length,4
	   000000EF R
	   00000004
 0000631B  E8 00002228	      C     call    start_offsets
 00006320  E8 000022B6	      C     call    determine_standard_operand_size
 00006325  E8 00003513	      C     call    store_signed_value
 0000632A  E8 0000222F	      C     call    end_offsets
 0000632F  E9 0000204B	      C     jmp     store_instruction
			      C 
 00006334		      C   _push_immed8:
			      C     @instr_bytes    1
 00006334  64: C7 05	     1C     mov     fs:instruction_bytes,1
	   000000EB R
	   00000001
			     1C     IF 1 EQ 1
 0000633F  46		     1C         inc     esi
			     1C     ELSE
			     1C         add     esi,1
			     1C     ENDIF
			      C     @instr_text     push_text, 4
 00006340  64: C7 05	     1C     mov     fs:instruction_text_offset,offset push_text
	   000000F3 R
	   00000716 R
 0000634B  64: C7 05	     1C     mov     fs:instruction_text_length,4
	   000000EF R
	   00000004
 00006356  E8 000021ED	      C     call    start_offsets
 0000635B  8A 06	      C     mov     al,byte ptr ds:[esi]
 0000635D  E8 00002193	      C     call    convert_al_to_hex
 00006362  66| 64: 89 07      C     mov     word ptr fs:[edi],ax
 00006366  83 C7 02	      C     add     edi,2
 00006369  46		      C     inc     esi
 0000636A  64: FF 05	      C     inc     fs:instruction_bytes
	   000000EB R
			      C     .IF ((fs:cpu_mode == 0 && fs:op_size_override != 0) || (fs:cpu_mode != 0 && fs:op_size_override == 0))
 00006371  64: 83 3D
	   0000009B R 00   *	    cmp    fs : cpu_mode, 000h
 00006379  75 0A	   *	    jne    @C025A
 0000637B  64: 83 3D
	   000000BF R 00   *	    cmp    fs : op_size_override, 000h
 00006383  75 14	   *	    jne    @C0259
 00006385		   *@C025A:
 00006385  64: 83 3D
	   0000009B R 00   *	    cmp    fs : cpu_mode, 000h
 0000638D  74 11	   *	    je     @C0258
 0000638F  64: 83 3D
	   000000BF R 00   *	    cmp    fs : op_size_override, 000h
 00006397  75 07	   *	    jne    @C0258
 00006399		   *@C0259:
 00006399  68 0000054B R      C         push    dword ptr offset sx_to_word_text
			      C     .ELSE
 0000639E  EB 05	   *	    jmp    @C025D
 000063A0		   *@C0258:
 000063A0  68 0000055A R      C         push    dword ptr offset sx_to_dword_text
			      C     .ENDIF
 000063A5		   *@C025D:
 000063A5  E8 000034C8	      C     call    store_string
 000063AA  E8 000021AF	      C     call    end_offsets
 000063AF  E9 00001FCB	      C     jmp     store_instruction
			      C 
 000063B4		      C   _push_rm:
			      C     @instr_bytes    1
 000063B4  64: C7 05	     1C     mov     fs:instruction_bytes,1
	   000000EB R
	   00000001
			     1C     IF 1 EQ 1
 000063BF  46		     1C         inc     esi
			     1C     ELSE
			     1C         add     esi,1
			     1C     ENDIF
			      C     @instr_text     push_text, 4
 000063C0  64: C7 05	     1C     mov     fs:instruction_text_offset,offset push_text
	   000000F3 R
	   00000716 R
 000063CB  64: C7 05	     1C     mov     fs:instruction_text_length,4
	   000000EF R
	   00000004
 000063D6  E8 00002200	      C     call    determine_standard_operand_size
 000063DB  E8 000024BB	      C     call    extract_mod_rm
 000063E0  E9 00001F9A	      C     jmp     store_instruction
			      C 
 000063E5		      C   _push_cs:
			      C     @instr_bytes    1
 000063E5  64: C7 05	     1C     mov     fs:instruction_bytes,1
	   000000EB R
	   00000001
			     1C     IF 1 EQ 1
 000063F0  46		     1C         inc     esi
			     1C     ELSE
			     1C         add     esi,1
			     1C     ENDIF
 000063F1  B3 01	      C     mov     bl,001b
 000063F3		      C   _push_xs_common:
			      C     @instr_text     push_text, 4
 000063F3  64: C7 05	     1C     mov     fs:instruction_text_offset,offset push_text
	   000000F3 R
	   00000716 R
 000063FE  64: C7 05	     1C     mov     fs:instruction_text_length,4
	   000000EF R
	   00000004
 00006409  E8 0000213A	      C     call    start_offsets
 0000640E  64: C7 05	      C     mov     fs:special_reg,_SEG_REGS
	   000000AF R
	   00000004
 00006419  E8 00002524	      C     call    store_gp_register
 0000641E  E8 0000213B	      C     call    end_offsets
 00006423  E9 00001F57	      C     jmp     store_instruction
			      C 
 00006428		      C   _push_ds:
			      C     @instr_bytes    1
 00006428  64: C7 05	     1C     mov     fs:instruction_bytes,1
	   000000EB R
	   00000001
			     1C     IF 1 EQ 1
 00006433  46		     1C         inc     esi
			     1C     ELSE
			     1C         add     esi,1
			     1C     ENDIF
 00006434  B3 03	      C     mov     bl,011b
 00006436  EB BB	      C     jmp     _push_xs_common
			      C 
 00006438		      C   _push_es:
			      C     @instr_bytes    1
 00006438  64: C7 05	     1C     mov     fs:instruction_bytes,1
	   000000EB R
	   00000001
			     1C     IF 1 EQ 1
 00006443  46		     1C         inc     esi
			     1C     ELSE
			     1C         add     esi,1
			     1C     ENDIF
 00006444  B3 00	      C     mov     bl,000b
 00006446  EB AB	      C     jmp     _push_xs_common
			      C 
 00006448		      C   _push_fs:
			      C     @instr_bytes    2
 00006448  64: C7 05	     1C     mov     fs:instruction_bytes,2
	   000000EB R
	   00000002
			     1C     IF 2 EQ 1
			     1C         inc     esi
			     1C     ELSE
 00006453  83 C6 02	     1C         add     esi,2
			     1C     ENDIF
 00006456  B3 04	      C     mov     bl,100b
 00006458  EB 99	      C     jmp     _push_xs_common
			      C 
 0000645A		      C   _push_gs:
			      C     @instr_bytes    2
 0000645A  64: C7 05	     1C     mov     fs:instruction_bytes,2
	   000000EB R
	   00000002
			     1C     IF 2 EQ 1
			     1C         inc     esi
			     1C     ELSE
 00006465  83 C6 02	     1C         add     esi,2
			     1C     ENDIF
 00006468  B3 05	      C     mov     bl,101b
 0000646A  EB 87	      C     jmp     _push_xs_common
			      C 
 0000646C		      C   _push_ss:
			      C     @instr_bytes    1
 0000646C  64: C7 05	     1C     mov     fs:instruction_bytes,1
	   000000EB R
	   00000001
			     1C     IF 1 EQ 1
 00006477  46		     1C         inc     esi
			     1C     ELSE
			     1C         add     esi,1
			     1C     ENDIF
 00006478  B3 02	      C     mov     bl,010b
 0000647A  E9 FFFFFF74	      C     jmp     _push_xs_common
			      C 
 0000647F		      C   _push_xax:
 0000647F		      C   _push_xbp:
 0000647F		      C   _push_xbx:
 0000647F		      C   _push_xcx:
 0000647F		      C   _push_xdi:
 0000647F		      C   _push_xdx:
 0000647F		      C   _push_xsi:
 0000647F		      C   _push_xsp:
			      C     @instr_bytes    1
 0000647F  64: C7 05	     1C     mov     fs:instruction_bytes,1
	   000000EB R
	   00000001
			     1C     IF 1 EQ 1
 0000648A  46		     1C         inc     esi
			     1C     ELSE
			     1C         add     esi,1
			     1C     ENDIF
			      C     @instr_text     push_text, 4
 0000648B  64: C7 05	     1C     mov     fs:instruction_text_offset,offset push_text
	   000000F3 R
	   00000716 R
 00006496  64: C7 05	     1C     mov     fs:instruction_text_length,4
	   000000EF R
	   00000004
 000064A1  E8 000020A2	      C     call    start_offsets
 000064A6  83 E0 07	      C     and     eax,111b
 000064A9  E8 0000212D	      C     call    determine_standard_operand_size
 000064AE  8A D8	      C     mov     bl,al
 000064B0  E8 0000248D	      C     call    store_gp_register
 000064B5  E8 000020A4	      C     call    end_offsets
 000064BA  E9 00001EC0	      C     jmp     store_instruction
			      C 
 000064BF		      C   _pusha:
			      C     @instr_bytes    1
 000064BF  64: C7 05	     1C     mov     fs:instruction_bytes,1
	   000000EB R
	   00000001
			     1C     IF 1 EQ 1
 000064CA  46		     1C         inc     esi
			     1C     ELSE
			     1C         add     esi,1
			     1C     ENDIF
			      C     .IF ((fs:cpu_mode == 0 && fs:op_size_override != 0) || (fs:cpu_mode != 0 && fs:op_size_override == 0))
 000064CB  64: 83 3D
	   0000009B R 00   *	    cmp    fs : cpu_mode, 000h
 000064D3  75 0A	   *	    jne    @C0260
 000064D5  64: 83 3D
	   000000BF R 00   *	    cmp    fs : op_size_override, 000h
 000064DD  75 14	   *	    jne    @C025F
 000064DF		   *@C0260:
 000064DF  64: 83 3D
	   0000009B R 00   *	    cmp    fs : cpu_mode, 000h
 000064E7  74 22	   *	    je     @C025E
 000064E9  64: 83 3D
	   000000BF R 00   *	    cmp    fs : op_size_override, 000h
 000064F1  75 18	   *	    jne    @C025E
 000064F3		   *@C025F:
			      C         @instr_text     pusha_text, 5
 000064F3  64: C7 05	     1C     mov     fs:instruction_text_offset,offset pusha_text
	   000000F3 R
	   000005B9 R
 000064FE  64: C7 05	     1C     mov     fs:instruction_text_length,5
	   000000EF R
	   00000005
			      C     .ELSE
 00006509  EB 16	   *	    jmp    @C0263
 0000650B		   *@C025E:
			      C         @instr_text     pushad_text, 6
 0000650B  64: C7 05	     1C     mov     fs:instruction_text_offset,offset pushad_text
	   000000F3 R
	   000005B9 R
 00006516  64: C7 05	     1C     mov     fs:instruction_text_length,6
	   000000EF R
	   00000006
			      C     .ENDIF
 00006521		   *@C0263:
 00006521  E9 00001E59	      C     jmp     store_instruction
			      C 
 00006526		      C   _pushf:
			      C     @instr_bytes    1
 00006526  64: C7 05	     1C     mov     fs:instruction_bytes,1
	   000000EB R
	   00000001
			     1C     IF 1 EQ 1
 00006531  46		     1C         inc     esi
			     1C     ELSE
			     1C         add     esi,1
			     1C     ENDIF
			      C     .IF ((fs:cpu_mode == 0 && fs:op_size_override != 0) || (fs:cpu_mode != 0 && fs:op_size_override == 0))
 00006532  64: 83 3D
	   0000009B R 00   *	    cmp    fs : cpu_mode, 000h
 0000653A  75 0A	   *	    jne    @C0266
 0000653C  64: 83 3D
	   000000BF R 00   *	    cmp    fs : op_size_override, 000h
 00006544  75 14	   *	    jne    @C0265
 00006546		   *@C0266:
 00006546  64: 83 3D
	   0000009B R 00   *	    cmp    fs : cpu_mode, 000h
 0000654E  74 22	   *	    je     @C0264
 00006550  64: 83 3D
	   000000BF R 00   *	    cmp    fs : op_size_override, 000h
 00006558  75 18	   *	    jne    @C0264
 0000655A		   *@C0265:
			      C         @instr_text     pushf_text, 5
 0000655A  64: C7 05	     1C     mov     fs:instruction_text_offset,offset pushf_text
	   000000F3 R
	   000005BF R
 00006565  64: C7 05	     1C     mov     fs:instruction_text_length,5
	   000000EF R
	   00000005
			      C     .ELSE
 00006570  EB 16	   *	    jmp    @C0269
 00006572		   *@C0264:
			      C         @instr_text     pushfd_text, 6
 00006572  64: C7 05	     1C     mov     fs:instruction_text_offset,offset pushfd_text
	   000000F3 R
	   000005BF R
 0000657D  64: C7 05	     1C     mov     fs:instruction_text_length,6
	   000000EF R
	   00000006
			      C     .ENDIF
 00006588		   *@C0269:
 00006588  E9 00001DF2	      C     jmp     store_instruction
			      C 
 0000658D		      C   _pxor:
			      C     @instr_bytes    2
 0000658D  64: C7 05	     1C     mov     fs:instruction_bytes,2
	   000000EB R
	   00000002
			     1C     IF 2 EQ 1
			     1C         inc     esi
			     1C     ELSE
 00006598  83 C6 02	     1C         add     esi,2
			     1C     ENDIF
			      C     @instr_text     pxor_text, 4
 0000659B  64: C7 05	     1C     mov     fs:instruction_text_offset,offset pxor_text
	   000000F3 R
	   00000AE0 R
 000065A6  64: C7 05	     1C     mov     fs:instruction_text_length,4
	   000000EF R
	   00000004
 000065B1  E9 FFFFF436	      C     jmp     pack_mmx_rm_common
			      C 
 000065B6		      C   _rol_rm8_immed8:
			      C     @instr_bytes    1
 000065B6  64: C7 05	     1C     mov     fs:instruction_bytes,1
	   000000EB R
	   00000001
			     1C     IF 1 EQ 1
 000065C1  46		     1C         inc     esi
			     1C     ELSE
			     1C         add     esi,1
			     1C     ENDIF
			      C     @instr_text     rol_text, 3
 000065C2  64: C7 05	     1C     mov     fs:instruction_text_offset,offset rol_text
	   000000F3 R
	   00000804 R
 000065CD  64: C7 05	     1C     mov     fs:instruction_text_length,3
	   000000EF R
	   00000003
 000065D8		      C   rxx_rm8_immed8_common:
 000065D8  64: C7 05	      C     mov     fs:operand_size,8
	   00000127 R
	   00000008
 000065E3  E8 000022B3	      C     call    extract_mod_rm
 000065E8  E8 000032A2	      C     call    store_comma
 000065ED  E8 0000320B	      C     call    store_8_bit_signed_value
 000065F2  E9 00001D88	      C     jmp     store_instruction
			      C 
 000065F7		      C   _ror_rm8_immed8:
			      C     @instr_bytes    1
 000065F7  64: C7 05	     1C     mov     fs:instruction_bytes,1
	   000000EB R
	   00000001
			     1C     IF 1 EQ 1
 00006602  46		     1C         inc     esi
			     1C     ELSE
			     1C         add     esi,1
			     1C     ENDIF
			      C     @instr_text     ror_text, 3
 00006603  64: C7 05	     1C     mov     fs:instruction_text_offset,offset ror_text
	   000000F3 R
	   0000080A R
 0000660E  64: C7 05	     1C     mov     fs:instruction_text_length,3
	   000000EF R
	   00000003
 00006619  EB BD	      C     jmp     rxx_rm8_immed8_common
			      C 
 0000661B		      C   _rcl_rm8_immed8:
			      C     @instr_bytes    1
 0000661B  64: C7 05	     1C     mov     fs:instruction_bytes,1
	   000000EB R
	   00000001
			     1C     IF 1 EQ 1
 00006626  46		     1C         inc     esi
			     1C     ELSE
			     1C         add     esi,1
			     1C     ENDIF
			      C     @instr_text     rcl_text, 3
 00006627  64: C7 05	     1C     mov     fs:instruction_text_offset,offset rcl_text
	   000000F3 R
	   00000807 R
 00006632  64: C7 05	     1C     mov     fs:instruction_text_length,3
	   000000EF R
	   00000003
 0000663D  EB 99	      C     jmp     rxx_rm8_immed8_common
			      C 
 0000663F		      C   _rcr_rm8_immed8:
			      C     @instr_bytes    1
 0000663F  64: C7 05	     1C     mov     fs:instruction_bytes,1
	   000000EB R
	   00000001
			     1C     IF 1 EQ 1
 0000664A  46		     1C         inc     esi
			     1C     ELSE
			     1C         add     esi,1
			     1C     ENDIF
			      C     @instr_text     rcr_text, 3
 0000664B  64: C7 05	     1C     mov     fs:instruction_text_offset,offset rcr_text
	   000000F3 R
	   0000080D R
 00006656  64: C7 05	     1C     mov     fs:instruction_text_length,3
	   000000EF R
	   00000003
 00006661  E9 FFFFFF72	      C     jmp     rxx_rm8_immed8_common
			      C 
 00006666		      C   _rol_immed8:
			      C     @instr_bytes    1
 00006666  64: C7 05	     1C     mov     fs:instruction_bytes,1
	   000000EB R
	   00000001
			     1C     IF 1 EQ 1
 00006671  46		     1C         inc     esi
			     1C     ELSE
			     1C         add     esi,1
			     1C     ENDIF
			      C     @instr_text     rol_text, 3
 00006672  64: C7 05	     1C     mov     fs:instruction_text_offset,offset rol_text
	   000000F3 R
	   00000804 R
 0000667D  64: C7 05	     1C     mov     fs:instruction_text_length,3
	   000000EF R
	   00000003
 00006688		      C   rxx_rm_immed8_common:
 00006688  E8 00001F4E	      C     call    determine_standard_operand_size
 0000668D  E8 00002209	      C     call    extract_mod_rm
 00006692  E8 000031F8	      C     call    store_comma
 00006697  E8 00003161	      C     call    store_8_bit_signed_value
 0000669C  E9 00001CDE	      C     jmp     store_instruction
			      C 
 000066A1		      C   _ror_immed8:
			      C     @instr_bytes    1
 000066A1  64: C7 05	     1C     mov     fs:instruction_bytes,1
	   000000EB R
	   00000001
			     1C     IF 1 EQ 1
 000066AC  46		     1C         inc     esi
			     1C     ELSE
			     1C         add     esi,1
			     1C     ENDIF
			      C     @instr_text     ror_text, 3
 000066AD  64: C7 05	     1C     mov     fs:instruction_text_offset,offset ror_text
	   000000F3 R
	   0000080A R
 000066B8  64: C7 05	     1C     mov     fs:instruction_text_length,3
	   000000EF R
	   00000003
 000066C3  EB C3	      C     jmp     rxx_rm_immed8_common
			      C 
 000066C5		      C   _rcl_immed8:
			      C     @instr_bytes    1
 000066C5  64: C7 05	     1C     mov     fs:instruction_bytes,1
	   000000EB R
	   00000001
			     1C     IF 1 EQ 1
 000066D0  46		     1C         inc     esi
			     1C     ELSE
			     1C         add     esi,1
			     1C     ENDIF
			      C     @instr_text     rcl_text, 3
 000066D1  64: C7 05	     1C     mov     fs:instruction_text_offset,offset rcl_text
	   000000F3 R
	   00000807 R
 000066DC  64: C7 05	     1C     mov     fs:instruction_text_length,3
	   000000EF R
	   00000003
 000066E7  EB 9F	      C     jmp     rxx_rm_immed8_common
			      C 
 000066E9		      C   _rcr_immed8:
			      C     @instr_bytes    1
 000066E9  64: C7 05	     1C     mov     fs:instruction_bytes,1
	   000000EB R
	   00000001
			     1C     IF 1 EQ 1
 000066F4  46		     1C         inc     esi
			     1C     ELSE
			     1C         add     esi,1
			     1C     ENDIF
			      C     @instr_text     rcr_text, 3
 000066F5  64: C7 05	     1C     mov     fs:instruction_text_offset,offset rcr_text
	   000000F3 R
	   0000080D R
 00006700  64: C7 05	     1C     mov     fs:instruction_text_length,3
	   000000EF R
	   00000003
 0000670B  E9 FFFFFF78	      C     jmp     rxx_rm_immed8_common
			      C 
 00006710		      C   _rol_rm8_1:
			      C     @instr_bytes    1
 00006710  64: C7 05	     1C     mov     fs:instruction_bytes,1
	   000000EB R
	   00000001
			     1C     IF 1 EQ 1
 0000671B  46		     1C         inc     esi
			     1C     ELSE
			     1C         add     esi,1
			     1C     ENDIF
			      C     @instr_text     rol_text, 3
 0000671C  64: C7 05	     1C     mov     fs:instruction_text_offset,offset rol_text
	   000000F3 R
	   00000804 R
 00006727  64: C7 05	     1C     mov     fs:instruction_text_length,3
	   000000EF R
	   00000003
 00006732		      C   rxx_rm8_1_common:
 00006732  64: C7 05	      C     mov     fs:operand_size,8
	   00000127 R
	   00000008
 0000673D  E8 00002159	      C     call    extract_mod_rm
 00006742  E8 00003155	      C     call    store_comma_one
 00006747  E9 00001C33	      C     jmp     store_instruction
			      C 
 0000674C		      C   _ror_rm8_1:
			      C     @instr_bytes    1
 0000674C  64: C7 05	     1C     mov     fs:instruction_bytes,1
	   000000EB R
	   00000001
			     1C     IF 1 EQ 1
 00006757  46		     1C         inc     esi
			     1C     ELSE
			     1C         add     esi,1
			     1C     ENDIF
			      C     @instr_text     ror_text, 3
 00006758  64: C7 05	     1C     mov     fs:instruction_text_offset,offset ror_text
	   000000F3 R
	   0000080A R
 00006763  64: C7 05	     1C     mov     fs:instruction_text_length,3
	   000000EF R
	   00000003
 0000676E  EB C2	      C     jmp     rxx_rm8_1_common
			      C 
 00006770		      C   _rcl_rm8_1:
			      C     @instr_bytes    1
 00006770  64: C7 05	     1C     mov     fs:instruction_bytes,1
	   000000EB R
	   00000001
			     1C     IF 1 EQ 1
 0000677B  46		     1C         inc     esi
			     1C     ELSE
			     1C         add     esi,1
			     1C     ENDIF
			      C     @instr_text     rcl_text, 3
 0000677C  64: C7 05	     1C     mov     fs:instruction_text_offset,offset rcl_text
	   000000F3 R
	   00000807 R
 00006787  64: C7 05	     1C     mov     fs:instruction_text_length,3
	   000000EF R
	   00000003
 00006792  EB 9E	      C     jmp     rxx_rm8_1_common
			      C 
 00006794		      C   _rcr_rm8_1:
			      C     @instr_bytes    1
 00006794  64: C7 05	     1C     mov     fs:instruction_bytes,1
	   000000EB R
	   00000001
			     1C     IF 1 EQ 1
 0000679F  46		     1C         inc     esi
			     1C     ELSE
			     1C         add     esi,1
			     1C     ENDIF
			      C     @instr_text     rcr_text, 3
 000067A0  64: C7 05	     1C     mov     fs:instruction_text_offset,offset rcr_text
	   000000F3 R
	   0000080D R
 000067AB  64: C7 05	     1C     mov     fs:instruction_text_length,3
	   000000EF R
	   00000003
 000067B6  E9 FFFFFF77	      C     jmp     rxx_rm8_1_common
			      C 
 000067BB		      C   _rol_rm_1:
			      C     @instr_bytes    1
 000067BB  64: C7 05	     1C     mov     fs:instruction_bytes,1
	   000000EB R
	   00000001
			     1C     IF 1 EQ 1
 000067C6  46		     1C         inc     esi
			     1C     ELSE
			     1C         add     esi,1
			     1C     ENDIF
			      C     @instr_text     rol_text, 3
 000067C7  64: C7 05	     1C     mov     fs:instruction_text_offset,offset rol_text
	   000000F3 R
	   00000804 R
 000067D2  64: C7 05	     1C     mov     fs:instruction_text_length,3
	   000000EF R
	   00000003
 000067DD		      C   rxx_rm_1_common:
 000067DD  E8 00001DF9	      C     call    determine_standard_operand_size
 000067E2  E8 000020B4	      C     call    extract_mod_rm
 000067E7  E8 000030B0	      C     call    store_comma_one
 000067EC  E9 00001B8E	      C     jmp     store_instruction
			      C 
 000067F1		      C   _ror_rm_1:
			      C     @instr_bytes    1
 000067F1  64: C7 05	     1C     mov     fs:instruction_bytes,1
	   000000EB R
	   00000001
			     1C     IF 1 EQ 1
 000067FC  46		     1C         inc     esi
			     1C     ELSE
			     1C         add     esi,1
			     1C     ENDIF
			      C     @instr_text     ror_text, 3
 000067FD  64: C7 05	     1C     mov     fs:instruction_text_offset,offset ror_text
	   000000F3 R
	   0000080A R
 00006808  64: C7 05	     1C     mov     fs:instruction_text_length,3
	   000000EF R
	   00000003
 00006813  EB C8	      C     jmp     rxx_rm_1_common
			      C 
 00006815		      C   _rcl_rm_1:
			      C     @instr_bytes    1
 00006815  64: C7 05	     1C     mov     fs:instruction_bytes,1
	   000000EB R
	   00000001
			     1C     IF 1 EQ 1
 00006820  46		     1C         inc     esi
			     1C     ELSE
			     1C         add     esi,1
			     1C     ENDIF
			      C     @instr_text     rcl_text, 3
 00006821  64: C7 05	     1C     mov     fs:instruction_text_offset,offset rcl_text
	   000000F3 R
	   00000807 R
 0000682C  64: C7 05	     1C     mov     fs:instruction_text_length,3
	   000000EF R
	   00000003
 00006837  EB A4	      C     jmp     rxx_rm_1_common
			      C 
 00006839		      C   _rcr_rm_1:
			      C     @instr_bytes    1
 00006839  64: C7 05	     1C     mov     fs:instruction_bytes,1
	   000000EB R
	   00000001
			     1C     IF 1 EQ 1
 00006844  46		     1C         inc     esi
			     1C     ELSE
			     1C         add     esi,1
			     1C     ENDIF
			      C     @instr_text     rcr_text, 3
 00006845  64: C7 05	     1C     mov     fs:instruction_text_offset,offset rcr_text
	   000000F3 R
	   0000080D R
 00006850  64: C7 05	     1C     mov     fs:instruction_text_length,3
	   000000EF R
	   00000003
 0000685B  EB 80	      C     jmp     rxx_rm_1_common
			      C 
 0000685D		      C   _rol_rm8_cl:
			      C     @instr_bytes    1
 0000685D  64: C7 05	     1C     mov     fs:instruction_bytes,1
	   000000EB R
	   00000001
			     1C     IF 1 EQ 1
 00006868  46		     1C         inc     esi
			     1C     ELSE
			     1C         add     esi,1
			     1C     ENDIF
			      C     @instr_text     rol_text, 3
 00006869  64: C7 05	     1C     mov     fs:instruction_text_offset,offset rol_text
	   000000F3 R
	   00000804 R
 00006874  64: C7 05	     1C     mov     fs:instruction_text_length,3
	   000000EF R
	   00000003
 0000687F		      C   _rxx_rm8_cl_common:
 0000687F  64: C7 05	      C     mov     fs:operand_size,8
	   00000127 R
	   00000008
 0000688A  E8 0000200C	      C     call    extract_mod_rm
 0000688F  E8 0000301A	      C     call    store_comma_cl
 00006894  E9 00001AE6	      C     jmp     store_instruction
			      C 
 00006899		      C   _ror_rm8_cl:
			      C     @instr_bytes    1
 00006899  64: C7 05	     1C     mov     fs:instruction_bytes,1
	   000000EB R
	   00000001
			     1C     IF 1 EQ 1
 000068A4  46		     1C         inc     esi
			     1C     ELSE
			     1C         add     esi,1
			     1C     ENDIF
			      C     @instr_text     ror_text, 3
 000068A5  64: C7 05	     1C     mov     fs:instruction_text_offset,offset ror_text
	   000000F3 R
	   0000080A R
 000068B0  64: C7 05	     1C     mov     fs:instruction_text_length,3
	   000000EF R
	   00000003
 000068BB  EB C2	      C     jmp     _rxx_rm8_cl_common
			      C 
 000068BD		      C   _rcl_rm8_cl:
			      C     @instr_bytes    1
 000068BD  64: C7 05	     1C     mov     fs:instruction_bytes,1
	   000000EB R
	   00000001
			     1C     IF 1 EQ 1
 000068C8  46		     1C         inc     esi
			     1C     ELSE
			     1C         add     esi,1
			     1C     ENDIF
			      C     @instr_text     rcl_text, 3
 000068C9  64: C7 05	     1C     mov     fs:instruction_text_offset,offset rcl_text
	   000000F3 R
	   00000807 R
 000068D4  64: C7 05	     1C     mov     fs:instruction_text_length,3
	   000000EF R
	   00000003
 000068DF  EB 9E	      C     jmp     _rxx_rm8_cl_common
			      C 
 000068E1		      C   _rcr_rm8_cl:
			      C     @instr_bytes    1
 000068E1  64: C7 05	     1C     mov     fs:instruction_bytes,1
	   000000EB R
	   00000001
			     1C     IF 1 EQ 1
 000068EC  46		     1C         inc     esi
			     1C     ELSE
			     1C         add     esi,1
			     1C     ENDIF
			      C     @instr_text     rcr_text, 3
 000068ED  64: C7 05	     1C     mov     fs:instruction_text_offset,offset rcr_text
	   000000F3 R
	   0000080D R
 000068F8  64: C7 05	     1C     mov     fs:instruction_text_length,3
	   000000EF R
	   00000003
 00006903  E9 FFFFFF77	      C     jmp     _rxx_rm8_cl_common
			      C 
 00006908		      C   _rol_rm_cl:
			      C     @instr_bytes    1
 00006908  64: C7 05	     1C     mov     fs:instruction_bytes,1
	   000000EB R
	   00000001
			     1C     IF 1 EQ 1
 00006913  46		     1C         inc     esi
			     1C     ELSE
			     1C         add     esi,1
			     1C     ENDIF
			      C     @instr_text     rol_text, 3
 00006914  64: C7 05	     1C     mov     fs:instruction_text_offset,offset rol_text
	   000000F3 R
	   00000804 R
 0000691F  64: C7 05	     1C     mov     fs:instruction_text_length,3
	   000000EF R
	   00000003
 0000692A		      C   rxx_rm_cl_common:
 0000692A  E8 00001CAC	      C     call    determine_standard_operand_size
 0000692F  E8 00001F67	      C     call    extract_mod_rm
 00006934  E8 00002F75	      C     call    store_comma_cl
 00006939  E9 00001A41	      C     jmp     store_instruction
			      C 
 0000693E		      C   _ror_rm_cl:
			      C     @instr_bytes    1
 0000693E  64: C7 05	     1C     mov     fs:instruction_bytes,1
	   000000EB R
	   00000001
			     1C     IF 1 EQ 1
 00006949  46		     1C         inc     esi
			     1C     ELSE
			     1C         add     esi,1
			     1C     ENDIF
			      C     @instr_text     ror_text, 3
 0000694A  64: C7 05	     1C     mov     fs:instruction_text_offset,offset ror_text
	   000000F3 R
	   0000080A R
 00006955  64: C7 05	     1C     mov     fs:instruction_text_length,3
	   000000EF R
	   00000003
 00006960  EB C8	      C     jmp     rxx_rm_cl_common
			      C 
 00006962		      C   _rcl_rm_cl:
			      C     @instr_bytes    1
 00006962  64: C7 05	     1C     mov     fs:instruction_bytes,1
	   000000EB R
	   00000001
			     1C     IF 1 EQ 1
 0000696D  46		     1C         inc     esi
			     1C     ELSE
			     1C         add     esi,1
			     1C     ENDIF
			      C     @instr_text     rcl_text, 3
 0000696E  64: C7 05	     1C     mov     fs:instruction_text_offset,offset rcl_text
	   000000F3 R
	   00000807 R
 00006979  64: C7 05	     1C     mov     fs:instruction_text_length,3
	   000000EF R
	   00000003
 00006984  EB A4	      C     jmp     rxx_rm_cl_common
			      C 
 00006986		      C   _rcr_rm_cl:
			      C     @instr_bytes    1
 00006986  64: C7 05	     1C     mov     fs:instruction_bytes,1
	   000000EB R
	   00000001
			     1C     IF 1 EQ 1
 00006991  46		     1C         inc     esi
			     1C     ELSE
			     1C         add     esi,1
			     1C     ENDIF
			      C     @instr_text     rcr_text, 3
 00006992  64: C7 05	     1C     mov     fs:instruction_text_offset,offset rcr_text
	   000000F3 R
	   0000080D R
 0000699D  64: C7 05	     1C     mov     fs:instruction_text_length,3
	   000000EF R
	   00000003
 000069A8  EB 80	      C     jmp     rxx_rm_cl_common
			      C 
 000069AA		      C   _rdmsr:
			      C     @instr_bytes    2
 000069AA  64: C7 05	     1C     mov     fs:instruction_bytes,2
	   000000EB R
	   00000002
			     1C     IF 2 EQ 1
			     1C         inc     esi
			     1C     ELSE
 000069B5  83 C6 02	     1C         add     esi,2
			     1C     ENDIF
			      C     @instr_text     rdmsr_text, 5
 000069B8  64: C7 05	     1C     mov     fs:instruction_text_offset,offset rdmsr_text
	   000000F3 R
	   0000082B R
 000069C3  64: C7 05	     1C     mov     fs:instruction_text_length,5
	   000000EF R
	   00000005
 000069CE  E9 000019AC	      C     jmp     store_instruction
			      C 
 000069D3		      C   _rdpmc:
			      C     @instr_bytes    2
 000069D3  64: C7 05	     1C     mov     fs:instruction_bytes,2
	   000000EB R
	   00000002
			     1C     IF 2 EQ 1
			     1C         inc     esi
			     1C     ELSE
 000069DE  83 C6 02	     1C         add     esi,2
			     1C     ENDIF
			      C     @instr_text     rdpmc_text, 5
 000069E1  64: C7 05	     1C     mov     fs:instruction_text_offset,offset rdpmc_text
	   000000F3 R
	   00000830 R
 000069EC  64: C7 05	     1C     mov     fs:instruction_text_length,5
	   000000EF R
	   00000005
 000069F7  E9 00001983	      C     jmp     store_instruction
			      C 
 000069FC		      C   _rdtsc:
			      C     @instr_bytes    2
 000069FC  64: C7 05	     1C     mov     fs:instruction_bytes,2
	   000000EB R
	   00000002
			     1C     IF 2 EQ 1
			     1C         inc     esi
			     1C     ELSE
 00006A07  83 C6 02	     1C         add     esi,2
			     1C     ENDIF
			      C     @instr_text     rdtsc_text, 5
 00006A0A  64: C7 05	     1C     mov     fs:instruction_text_offset,offset rdtsc_text
	   000000F3 R
	   00000835 R
 00006A15  64: C7 05	     1C     mov     fs:instruction_text_length,5
	   000000EF R
	   00000005
 00006A20  E9 0000195A	      C     jmp     store_instruction
			      C 
 00006A25		      C   _repe_prefix:
			      C     @instr_bytes    1
 00006A25  64: C7 05	     1C     mov     fs:instruction_bytes,1
	   000000EB R
	   00000001
			     1C     IF 1 EQ 1
 00006A30  46		     1C         inc     esi
			     1C     ELSE
			     1C         add     esi,1
			     1C     ENDIF
			      C     @instr_text     rep_text, 3
 00006A31  64: C7 05	     1C     mov     fs:instruction_text_offset,offset rep_text
	   000000F3 R
	   0000071B R
 00006A3C  64: C7 05	     1C     mov     fs:instruction_text_length,3
	   000000EF R
	   00000003
 00006A47  E9 00001933	      C     jmp     store_instruction
			      C 
 00006A4C		      C   _repne_prefix:
			      C     @instr_bytes    1
 00006A4C  64: C7 05	     1C     mov     fs:instruction_bytes,1
	   000000EB R
	   00000001
			     1C     IF 1 EQ 1
 00006A57  46		     1C         inc     esi
			     1C     ELSE
			     1C         add     esi,1
			     1C     ENDIF
			      C     @instr_text     repne_text, 5
 00006A58  64: C7 05	     1C     mov     fs:instruction_text_offset,offset repne_text
	   000000F3 R
	   0000071B R
 00006A63  64: C7 05	     1C     mov     fs:instruction_text_length,5
	   000000EF R
	   00000005
 00006A6E  E9 0000190C	      C     jmp     store_instruction
			      C 
 00006A73		      C   _retf:
			      C     @instr_bytes    1
 00006A73  64: C7 05	     1C     mov     fs:instruction_bytes,1
	   000000EB R
	   00000001
			     1C     IF 1 EQ 1
 00006A7E  46		     1C         inc     esi
			     1C     ELSE
			     1C         add     esi,1
			     1C     ENDIF
			      C     @instr_text     retf_text, 4
 00006A7F  64: C7 05	     1C     mov     fs:instruction_text_offset,offset retf_text
	   000000F3 R
	   000005C8 R
 00006A8A  64: C7 05	     1C     mov     fs:instruction_text_length,4
	   000000EF R
	   00000004
 00006A95  E9 000018E5	      C     jmp     store_instruction
			      C 
 00006A9A		      C   _retf_immed:
			      C     @instr_bytes    1
 00006A9A  64: C7 05	     1C     mov     fs:instruction_bytes,1
	   000000EB R
	   00000001
			     1C     IF 1 EQ 1
 00006AA5  46		     1C         inc     esi
			     1C     ELSE
			     1C         add     esi,1
			     1C     ENDIF
			      C     @instr_text     retf_text, 4
 00006AA6  64: C7 05	     1C     mov     fs:instruction_text_offset,offset retf_text
	   000000F3 R
	   000005C8 R
 00006AB1  64: C7 05	     1C     mov     fs:instruction_text_length,4
	   000000EF R
	   00000004
 00006ABC		      C   retx_immed16_common:
 00006ABC  E8 00001A87	      C     call    start_offsets
 00006AC1  E8 00002ABA	      C     call    store_16_bit_value
 00006AC6  E8 00001A93	      C     call    end_offsets
 00006ACB  E9 000018AF	      C     jmp     store_instruction
			      C 
 00006AD0		      C   _retn:
			      C     @instr_bytes    1
 00006AD0  64: C7 05	     1C     mov     fs:instruction_bytes,1
	   000000EB R
	   00000001
			     1C     IF 1 EQ 1
 00006ADB  46		     1C         inc     esi
			     1C     ELSE
			     1C         add     esi,1
			     1C     ENDIF
			      C     @instr_text     ret_text, 3
 00006ADC  64: C7 05	     1C     mov     fs:instruction_text_offset,offset ret_text
	   000000F3 R
	   000005C5 R
 00006AE7  64: C7 05	     1C     mov     fs:instruction_text_length,3
	   000000EF R
	   00000003
 00006AF2  E9 00001888	      C     jmp     store_instruction
			      C 
 00006AF7		      C   _retn_immed:
			      C     @instr_bytes    1
 00006AF7  64: C7 05	     1C     mov     fs:instruction_bytes,1
	   000000EB R
	   00000001
			     1C     IF 1 EQ 1
 00006B02  46		     1C         inc     esi
			     1C     ELSE
			     1C         add     esi,1
			     1C     ENDIF
			      C     @instr_text     ret_text, 3
 00006B03  64: C7 05	     1C     mov     fs:instruction_text_offset,offset ret_text
	   000000F3 R
	   000005C5 R
 00006B0E  64: C7 05	     1C     mov     fs:instruction_text_length,3
	   000000EF R
	   00000003
 00006B19  EB A1	      C     jmp     retx_immed16_common
			      C 
 00006B1B		      C   _rsm:
			      C     @instr_bytes    2
 00006B1B  64: C7 05	     1C     mov     fs:instruction_bytes,2
	   000000EB R
	   00000002
			     1C     IF 2 EQ 1
			     1C         inc     esi
			     1C     ELSE
 00006B26  83 C6 02	     1C         add     esi,2
			     1C     ENDIF
			      C     @instr_text     rsm_text, 3
 00006B29  64: C7 05	     1C     mov     fs:instruction_text_offset,offset rsm_text
	   000000F3 R
	   0000083A R
 00006B34  64: C7 05	     1C     mov     fs:instruction_text_length,3
	   000000EF R
	   00000003
 00006B3F  E9 0000183B	      C     jmp     store_instruction
			      C 
 00006B44		      C   _sahf:
			      C     @instr_bytes    1
 00006B44  64: C7 05	     1C     mov     fs:instruction_bytes,1
	   000000EB R
	   00000001
			     1C     IF 1 EQ 1
 00006B4F  46		     1C         inc     esi
			     1C     ELSE
			     1C         add     esi,1
			     1C     ENDIF
			      C     @instr_text     sahf_text, 4
 00006B50  64: C7 05	     1C     mov     fs:instruction_text_offset,offset sahf_text
	   000000F3 R
	   000005CC R
 00006B5B  64: C7 05	     1C     mov     fs:instruction_text_length,4
	   000000EF R
	   00000004
 00006B66  E9 00001814	      C     jmp     store_instruction
			      C 
 00006B6B		      C   _sbb_rm_reg8:
 00006B6B  64: C7 05	      C     mov     dword ptr fs:xxx_text,' bbs'
	   00000819 R
	   20626273
 00006B76  E9 00000190	      C     jmp     _xxx_rm_reg8
			      C 
 00006B7B		      C   _sbb_rm_reg16_32:
 00006B7B  64: C7 05	      C     mov     dword ptr fs:xxx_text,' bbs'
	   00000819 R
	   20626273
 00006B86  E9 000001B7	      C     jmp     _xxx_rm_reg16_32
			      C 
 00006B8B		      C   _sbb_reg8_rm:
 00006B8B  64: C7 05	      C     mov     dword ptr fs:xxx_text,' bbs'
	   00000819 R
	   20626273
 00006B96  E9 000001D8	      C     jmp     _xxx_reg8_rm
			      C 
 00006B9B		      C   _sbb_reg16_32_rm:
 00006B9B  64: C7 05	      C     mov     dword ptr fs:xxx_text,' bbs'
	   00000819 R
	   20626273
 00006BA6  E9 0000020A	      C     jmp     _xxx_reg16_32_rm
			      C 
 00006BAB		      C   _sbb_accum_immed8:
 00006BAB  64: C7 05	      C     mov     dword ptr fs:xxx_text,' bbs'
	   00000819 R
	   20626273
 00006BB6  E9 00000236	      C     jmp     _xxx_accum_immed8
			      C 
 00006BBB		      C   _sbb_accum_immed16_32:
 00006BBB  64: C7 05	      C     mov     dword ptr fs:xxx_text,' bbs'
	   00000819 R
	   20626273
 00006BC6  E9 00000273	      C     jmp     _xxx_accum_immed16_32
			      C 
 00006BCB		      C   _sbb_rm8_immed8:
 00006BCB  64: C7 05	      C     mov     dword ptr fs:xxx_text,' bbs'
	   00000819 R
	   20626273
 00006BD6  E9 000002AA	      C     jmp     _xxx_rm8_immed8
			      C 
 00006BDB		      C   _sbb_rm_immed:
 00006BDB  64: C7 05	      C     mov     dword ptr fs:xxx_text,' bbs'
	   00000819 R
	   20626273
 00006BE6  E9 000002E5	      C     jmp     _xxx_rm_immed
			      C 
 00006BEB		      C   _sbb_rm16_32_immed8:
 00006BEB  64: C7 05	      C     mov     dword ptr fs:xxx_text,' bbs'
	   00000819 R
	   20626273
 00006BF6  E9 0000031A	      C     jmp     _xxx_rm16_32_immed8
			      C 
 00006BFB		      C   _sub_rm_reg8:
 00006BFB  64: C7 05	      C     mov     dword ptr fs:xxx_text,' bus'
	   00000819 R
	   20627573
 00006C06  E9 00000100	      C     jmp     _xxx_rm_reg8
			      C 
 00006C0B		      C   _sub_rm_reg16_32:
 00006C0B  64: C7 05	      C     mov     dword ptr fs:xxx_text,' bus'
	   00000819 R
	   20627573
 00006C16  E9 00000127	      C     jmp     _xxx_rm_reg16_32
			      C 
 00006C1B		      C   _sub_reg8_rm:
 00006C1B  64: C7 05	      C     mov     dword ptr fs:xxx_text,' bus'
	   00000819 R
	   20627573
 00006C26  E9 00000148	      C     jmp     _xxx_reg8_rm
			      C 
 00006C2B		      C   _sub_reg16_32_rm:
 00006C2B  64: C7 05	      C     mov     dword ptr fs:xxx_text,' bus'
	   00000819 R
	   20627573
 00006C36  E9 0000017A	      C     jmp     _xxx_reg16_32_rm
			      C 
 00006C3B		      C   _sub_accum_immed8:
 00006C3B  64: C7 05	      C     mov     dword ptr fs:xxx_text,' bus'
	   00000819 R
	   20627573
 00006C46  E9 000001A6	      C     jmp     _xxx_accum_immed8
			      C 
 00006C4B		      C   _sub_accum_immed16_32:
 00006C4B  64: C7 05	      C     mov     dword ptr fs:xxx_text,' bus'
	   00000819 R
	   20627573
 00006C56  E9 000001E3	      C     jmp     _xxx_accum_immed16_32
			      C 
 00006C5B		      C   _sub_rm8_immed8:
 00006C5B  64: C7 05	      C     mov     dword ptr fs:xxx_text,' bus'
	   00000819 R
	   20627573
 00006C66  E9 0000021A	      C     jmp     _xxx_rm8_immed8
			      C 
 00006C6B		      C   _sub_rm_immed:
 00006C6B  64: C7 05	      C     mov     dword ptr fs:xxx_text,' bus'
	   00000819 R
	   20627573
 00006C76  E9 00000255	      C     jmp     _xxx_rm_immed
			      C 
 00006C7B		      C   _xor_rm_reg8:
 00006C7B  64: C7 05	      C     mov     dword ptr fs:xxx_text,' rox'
	   00000819 R
	   20726F78
 00006C86  E9 00000080	      C     jmp     _xxx_rm_reg8
			      C 
 00006C8B		      C   _xor_rm_reg16_32:
 00006C8B  64: C7 05	      C     mov     dword ptr fs:xxx_text,' rox'
	   00000819 R
	   20726F78
 00006C96  E9 000000A7	      C     jmp     _xxx_rm_reg16_32
			      C 
 00006C9B		      C   _xor_reg8_rm:
 00006C9B  64: C7 05	      C     mov     dword ptr fs:xxx_text,' rox'
	   00000819 R
	   20726F78
 00006CA6  E9 000000C8	      C     jmp     _xxx_reg8_rm
			      C 
 00006CAB		      C   _xor_reg16_32_rm:
 00006CAB  64: C7 05	      C     mov     dword ptr fs:xxx_text,' rox'
	   00000819 R
	   20726F78
 00006CB6  E9 000000FA	      C     jmp     _xxx_reg16_32_rm
			      C 
 00006CBB		      C   _xor_accum_immed8:
 00006CBB  64: C7 05	      C     mov     dword ptr fs:xxx_text,' rox'
	   00000819 R
	   20726F78
 00006CC6  E9 00000126	      C     jmp     _xxx_accum_immed8
			      C 
 00006CCB		      C   _xor_accum_immed16_32:
 00006CCB  64: C7 05	      C     mov     dword ptr fs:xxx_text,' rox'
	   00000819 R
	   20726F78
 00006CD6  E9 00000163	      C     jmp     _xxx_accum_immed16_32
			      C 
 00006CDB		      C   _xor_rm8_immed8:
 00006CDB  64: C7 05	      C     mov     dword ptr fs:xxx_text,' rox'
	   00000819 R
	   20726F78
 00006CE6  E9 0000019A	      C     jmp     _xxx_rm8_immed8
			      C 
 00006CEB		      C   _xor_rm_immed:
 00006CEB  64: C7 05	      C     mov     dword ptr fs:xxx_text,' rox'
	   00000819 R
	   20726F78
 00006CF6  E9 000001D5	      C     jmp     _xxx_rm_immed
			      C 
 00006CFB		      C   _sub_rm16_32_immed8:
 00006CFB  64: C7 05	      C     mov     dword ptr fs:xxx_text,' bus'
	   00000819 R
	   20627573
 00006D06  E9 0000020A	      C     jmp     _xxx_rm16_32_immed8
			      C 
 00006D0B		      C   _xxx_rm_reg8:
			      C     @instr_bytes    1
 00006D0B  64: C7 05	     1C     mov     fs:instruction_bytes,1
	   000000EB R
	   00000001
			     1C     IF 1 EQ 1
 00006D16  46		     1C         inc     esi
			     1C     ELSE
			     1C         add     esi,1
			     1C     ENDIF
			      C     @instr_text     xxx_text, 3
 00006D17  64: C7 05	     1C     mov     fs:instruction_text_offset,offset xxx_text
	   000000F3 R
	   00000819 R
 00006D22  64: C7 05	     1C     mov     fs:instruction_text_length,3
	   000000EF R
	   00000003
 00006D2D  64: C7 05	      C     mov     fs:operand_size,8
	   00000127 R
	   00000008
 00006D38  E8 000018DF	      C     call    extract_mod_reg_rm
 00006D3D  E9 0000163D	      C     jmp     store_instruction
			      C 
 00006D42		      C   _xxx_rm_reg16_32:
			      C     @instr_bytes    1
 00006D42  64: C7 05	     1C     mov     fs:instruction_bytes,1
	   000000EB R
	   00000001
			     1C     IF 1 EQ 1
 00006D4D  46		     1C         inc     esi
			     1C     ELSE
			     1C         add     esi,1
			     1C     ENDIF
			      C     @instr_text     xxx_text, 3
 00006D4E  64: C7 05	     1C     mov     fs:instruction_text_offset,offset xxx_text
	   000000F3 R
	   00000819 R
 00006D59  64: C7 05	     1C     mov     fs:instruction_text_length,3
	   000000EF R
	   00000003
 00006D64  E8 00001872	      C     call    determine_standard_operand_size
 00006D69  E8 000018AE	      C     call    extract_mod_reg_rm
 00006D6E  E9 0000160C	      C     jmp     store_instruction
			      C 
 00006D73		      C   _xxx_reg8_rm:
			      C     @instr_bytes    1
 00006D73  64: C7 05	     1C     mov     fs:instruction_bytes,1
	   000000EB R
	   00000001
			     1C     IF 1 EQ 1
 00006D7E  46		     1C         inc     esi
			     1C     ELSE
			     1C         add     esi,1
			     1C     ENDIF
			      C     @instr_text     xxx_text, 3
 00006D7F  64: C7 05	     1C     mov     fs:instruction_text_offset,offset xxx_text
	   000000F3 R
	   00000819 R
 00006D8A  64: C7 05	     1C     mov     fs:instruction_text_length,3
	   000000EF R
	   00000003
 00006D95  64: C7 05	      C     mov     fs:operand_size,8
	   00000127 R
	   00000008
 00006DA0  64: C7 05	      C     mov     fs:reverse_mod_reg_rm,1
	   000000C7 R
	   00000001
 00006DAB  E8 0000186C	      C     call    extract_mod_reg_rm
 00006DB0  E9 000015CA	      C     jmp     store_instruction
			      C 
 00006DB5		      C   _xxx_reg16_32_rm:
			      C     @instr_bytes    1
 00006DB5  64: C7 05	     1C     mov     fs:instruction_bytes,1
	   000000EB R
	   00000001
			     1C     IF 1 EQ 1
 00006DC0  46		     1C         inc     esi
			     1C     ELSE
			     1C         add     esi,1
			     1C     ENDIF
			      C     @instr_text     xxx_text, 3
 00006DC1  64: C7 05	     1C     mov     fs:instruction_text_offset,offset xxx_text
	   000000F3 R
	   00000819 R
 00006DCC  64: C7 05	     1C     mov     fs:instruction_text_length,3
	   000000EF R
	   00000003
 00006DD7  64: C7 05	      C     mov     fs:reverse_mod_reg_rm,1
	   000000C7 R
	   00000001
 00006DE2  E8 000017F4	      C     call    determine_standard_operand_size
 00006DE7  E8 00001830	      C     call    extract_mod_reg_rm
 00006DEC  E9 0000158E	      C     jmp     store_instruction
			      C 
 00006DF1		      C   _xxx_accum_immed8:
			      C     @instr_bytes    1
 00006DF1  64: C7 05	     1C     mov     fs:instruction_bytes,1
	   000000EB R
	   00000001
			     1C     IF 1 EQ 1
 00006DFC  46		     1C         inc     esi
			     1C     ELSE
			     1C         add     esi,1
			     1C     ENDIF
			      C     @instr_text     xxx_text, 3
 00006DFD  64: C7 05	     1C     mov     fs:instruction_text_offset,offset xxx_text
	   000000F3 R
	   00000819 R
 00006E08  64: C7 05	     1C     mov     fs:instruction_text_length,3
	   000000EF R
	   00000003
 00006E13  64: C7 05	      C     mov     fs:operand_size,8
	   00000127 R
	   00000008
 00006E1E  E8 00001725	      C     call    start_offsets
 00006E23  32 DB	      C     xor     bl,bl
 00006E25  E8 00001B18	      C     call    store_gp_register
 00006E2A  E8 00002A60	      C     call    store_comma
 00006E2F  E8 000029C9	      C     call    store_8_bit_signed_value
 00006E34  E8 00001725	      C     call    end_offsets
 00006E39  E9 00001541	      C     jmp     store_instruction
			      C 
 00006E3E		      C   _xxx_accum_immed16_32:
			      C     @instr_bytes    1
 00006E3E  64: C7 05	     1C     mov     fs:instruction_bytes,1
	   000000EB R
	   00000001
			     1C     IF 1 EQ 1
 00006E49  46		     1C         inc     esi
			     1C     ELSE
			     1C         add     esi,1
			     1C     ENDIF
			      C     @instr_text     xxx_text, 3
 00006E4A  64: C7 05	     1C     mov     fs:instruction_text_offset,offset xxx_text
	   000000F3 R
	   00000819 R
 00006E55  64: C7 05	     1C     mov     fs:instruction_text_length,3
	   000000EF R
	   00000003
 00006E60  E8 00001776	      C     call    determine_standard_operand_size
 00006E65  E8 000016DE	      C     call    start_offsets
 00006E6A  32 DB	      C     xor     bl,bl
 00006E6C  E8 00001AD1	      C     call    store_gp_register
 00006E71  E8 00002A19	      C     call    store_comma
 00006E76  E8 000029C2	      C     call    store_signed_value
 00006E7B  E8 000016DE	      C     call    end_offsets
 00006E80  E9 000014FA	      C     jmp     store_instruction
			      C 
 00006E85		      C   _xxx_rm8_immed8:
			      C     @instr_bytes    1
 00006E85  64: C7 05	     1C     mov     fs:instruction_bytes,1
	   000000EB R
	   00000001
			     1C     IF 1 EQ 1
 00006E90  46		     1C         inc     esi
			     1C     ELSE
			     1C         add     esi,1
			     1C     ENDIF
			      C     @instr_text     xxx_text, 3
 00006E91  64: C7 05	     1C     mov     fs:instruction_text_offset,offset xxx_text
	   000000F3 R
	   00000819 R
 00006E9C  64: C7 05	     1C     mov     fs:instruction_text_length,3
	   000000EF R
	   00000003
 00006EA7  64: C7 05	      C     mov     fs:operand_size,8
	   00000127 R
	   00000008
 00006EB2  E8 00001691	      C     call    start_offsets
 00006EB7  E8 000019DF	      C     call    extract_mod_rm
 00006EBC  E8 000029CE	      C     call    store_comma
 00006EC1  E8 00002937	      C     call    store_8_bit_signed_value
 00006EC6  E8 00001693	      C     call    end_offsets
 00006ECB  E9 000014AF	      C     jmp     store_instruction
			      C 
 00006ED0		      C   _xxx_rm_immed:
			      C     @instr_bytes    1
 00006ED0  64: C7 05	     1C     mov     fs:instruction_bytes,1
	   000000EB R
	   00000001
			     1C     IF 1 EQ 1
 00006EDB  46		     1C         inc     esi
			     1C     ELSE
			     1C         add     esi,1
			     1C     ENDIF
			      C     @instr_text     xxx_text, 3
 00006EDC  64: C7 05	     1C     mov     fs:instruction_text_offset,offset xxx_text
	   000000F3 R
	   00000819 R
 00006EE7  64: C7 05	     1C     mov     fs:instruction_text_length,3
	   000000EF R
	   00000003
 00006EF2  E8 000016E4	      C     call    determine_standard_operand_size
 00006EF7  E8 0000164C	      C     call    start_offsets
 00006EFC  E8 0000199A	      C     call    extract_mod_rm
 00006F01  E8 00002989	      C     call    store_comma
 00006F06  E8 00002932	      C     call    store_signed_value
 00006F0B  E8 0000164E	      C     call    end_offsets
 00006F10  E9 0000146A	      C     jmp     store_instruction
			      C 
 00006F15		      C   _xxx_rm16_32_immed8:
			      C     @instr_bytes    1
 00006F15  64: C7 05	     1C     mov     fs:instruction_bytes,1
	   000000EB R
	   00000001
			     1C     IF 1 EQ 1
 00006F20  46		     1C         inc     esi
			     1C     ELSE
			     1C         add     esi,1
			     1C     ENDIF
			      C     @instr_text     xxx_text, 3
 00006F21  64: C7 05	     1C     mov     fs:instruction_text_offset,offset xxx_text
	   000000F3 R
	   00000819 R
 00006F2C  64: C7 05	     1C     mov     fs:instruction_text_length,3
	   000000EF R
	   00000003
 00006F37  E8 0000169F	      C     call    determine_standard_operand_size
 00006F3C  E8 00001607	      C     call    start_offsets
 00006F41  E8 00001955	      C     call    extract_mod_rm
 00006F46  E8 00002944	      C     call    store_comma
 00006F4B  E8 000028AD	      C     call    store_8_bit_signed_value
 00006F50  E8 00001609	      C     call    end_offsets
 00006F55  E9 00001425	      C     jmp     store_instruction
			      C 
 00006F5A		      C   _scasb:
			      C     @instr_bytes    1
 00006F5A  64: C7 05	     1C     mov     fs:instruction_bytes,1
	   000000EB R
	   00000001
			     1C     IF 1 EQ 1
 00006F65  46		     1C         inc     esi
			     1C     ELSE
			     1C         add     esi,1
			     1C     ENDIF
			      C     @instr_text     scasb_text, 5
 00006F66  64: C7 05	     1C     mov     fs:instruction_text_offset,offset scasb_text
	   000000F3 R
	   00000777 R
 00006F71  64: C7 05	     1C     mov     fs:instruction_text_length,5
	   000000EF R
	   00000005
 00006F7C  E9 000013FE	      C     jmp     store_instruction
			      C 
 00006F81		      C   _scasw:
			      C     @instr_bytes    1
 00006F81  64: C7 05	     1C     mov     fs:instruction_bytes,1
	   000000EB R
	   00000001
			     1C     IF 1 EQ 1
 00006F8C  46		     1C         inc     esi
			     1C     ELSE
			     1C         add     esi,1
			     1C     ENDIF
			      C     .IF ((fs:cpu_mode == 0 && fs:op_size_override != 0) || (fs:cpu_mode != 0 && fs:op_size_override == 0))
 00006F8D  64: 83 3D
	   0000009B R 00   *	    cmp    fs : cpu_mode, 000h
 00006F95  75 0A	   *	    jne    @C026C
 00006F97  64: 83 3D
	   000000BF R 00   *	    cmp    fs : op_size_override, 000h
 00006F9F  75 14	   *	    jne    @C026B
 00006FA1		   *@C026C:
 00006FA1  64: 83 3D
	   0000009B R 00   *	    cmp    fs : cpu_mode, 000h
 00006FA9  74 22	   *	    je     @C026A
 00006FAB  64: 83 3D
	   000000BF R 00   *	    cmp    fs : op_size_override, 000h
 00006FB3  75 18	   *	    jne    @C026A
 00006FB5		   *@C026B:
			      C         @instr_text     scasw_text, 5
 00006FB5  64: C7 05	     1C     mov     fs:instruction_text_offset,offset scasw_text
	   000000F3 R
	   0000077C R
 00006FC0  64: C7 05	     1C     mov     fs:instruction_text_length,5
	   000000EF R
	   00000005
			      C     .ELSE
 00006FCB  EB 16	   *	    jmp    @C026F
 00006FCD		   *@C026A:
			      C         @instr_text     scasd_text, 5
 00006FCD  64: C7 05	     1C     mov     fs:instruction_text_offset,offset scasd_text
	   000000F3 R
	   00000781 R
 00006FD8  64: C7 05	     1C     mov     fs:instruction_text_length,5
	   000000EF R
	   00000005
			      C     .ENDIF
 00006FE3		   *@C026F:
 00006FE3  E9 00001397	      C     jmp     store_instruction
			      C 
 00006FE8		      C   _seto:
			      C     @instr_bytes    2
 00006FE8  64: C7 05	     1C     mov     fs:instruction_bytes,2
	   000000EB R
	   00000002
			     1C     IF 2 EQ 1
			     1C         inc     esi
			     1C     ELSE
 00006FF3  83 C6 02	     1C         add     esi,2
			     1C     ENDIF
			      C     @instr_text     seto_text, 4
 00006FF6  64: C7 05	     1C     mov     fs:instruction_text_offset,offset seto_text
	   000000F3 R
	   000006A0 R
 00007001  64: C7 05	     1C     mov     fs:instruction_text_length,4
	   000000EF R
	   00000004
 0000700C		      C   setxx_common:
 0000700C  64: C7 05	      C     mov     fs:operand_size,8
	   00000127 R
	   00000008
 00007017  E8 0000187F	      C     call    extract_mod_rm
 0000701C  E9 0000135E	      C     jmp     store_instruction
			      C 
 00007021		      C   _setno:
			      C     @instr_bytes    2
 00007021  64: C7 05	     1C     mov     fs:instruction_bytes,2
	   000000EB R
	   00000002
			     1C     IF 2 EQ 1
			     1C         inc     esi
			     1C     ELSE
 0000702C  83 C6 02	     1C         add     esi,2
			     1C     ENDIF
			      C     @instr_text     setno_text, 5
 0000702F  64: C7 05	     1C     mov     fs:instruction_text_offset,offset setno_text
	   000000F3 R
	   000006A4 R
 0000703A  64: C7 05	     1C     mov     fs:instruction_text_length,5
	   000000EF R
	   00000005
 00007045  EB C5	      C     jmp     setxx_common
			      C 
 00007047		      C   _setc:
			      C     @instr_bytes    2
 00007047  64: C7 05	     1C     mov     fs:instruction_bytes,2
	   000000EB R
	   00000002
			     1C     IF 2 EQ 1
			     1C         inc     esi
			     1C     ELSE
 00007052  83 C6 02	     1C         add     esi,2
			     1C     ENDIF
			      C     @instr_text     setc_text, 4
 00007055  64: C7 05	     1C     mov     fs:instruction_text_offset,offset setc_text
	   000000F3 R
	   000006A9 R
 00007060  64: C7 05	     1C     mov     fs:instruction_text_length,4
	   000000EF R
	   00000004
 0000706B  EB 9F	      C     jmp     setxx_common
			      C 
 0000706D		      C   _setnc:
			      C     @instr_bytes    2
 0000706D  64: C7 05	     1C     mov     fs:instruction_bytes,2
	   000000EB R
	   00000002
			     1C     IF 2 EQ 1
			     1C         inc     esi
			     1C     ELSE
 00007078  83 C6 02	     1C         add     esi,2
			     1C     ENDIF
			      C     @instr_text     setnc_text, 5
 0000707B  64: C7 05	     1C     mov     fs:instruction_text_offset,offset setnc_text
	   000000F3 R
	   000006AD R
 00007086  64: C7 05	     1C     mov     fs:instruction_text_length,5
	   000000EF R
	   00000005
 00007091  E9 FFFFFF76	      C     jmp     setxx_common
			      C 
 00007096		      C   _setz:
			      C     @instr_bytes    2
 00007096  64: C7 05	     1C     mov     fs:instruction_bytes,2
	   000000EB R
	   00000002
			     1C     IF 2 EQ 1
			     1C         inc     esi
			     1C     ELSE
 000070A1  83 C6 02	     1C         add     esi,2
			     1C     ENDIF
			      C     @instr_text     setz_text, 4
 000070A4  64: C7 05	     1C     mov     fs:instruction_text_offset,offset setz_text
	   000000F3 R
	   000006B2 R
 000070AF  64: C7 05	     1C     mov     fs:instruction_text_length,4
	   000000EF R
	   00000004
 000070BA  E9 FFFFFF4D	      C     jmp     setxx_common
			      C 
 000070BF		      C   _setnz:
			      C     @instr_bytes    2
 000070BF  64: C7 05	     1C     mov     fs:instruction_bytes,2
	   000000EB R
	   00000002
			     1C     IF 2 EQ 1
			     1C         inc     esi
			     1C     ELSE
 000070CA  83 C6 02	     1C         add     esi,2
			     1C     ENDIF
			      C     @instr_text     setnz_text, 5
 000070CD  64: C7 05	     1C     mov     fs:instruction_text_offset,offset setnz_text
	   000000F3 R
	   000006B6 R
 000070D8  64: C7 05	     1C     mov     fs:instruction_text_length,5
	   000000EF R
	   00000005
 000070E3  E9 FFFFFF24	      C     jmp     setxx_common
			      C 
 000070E8		      C   _setna:
			      C     @instr_bytes    2
 000070E8  64: C7 05	     1C     mov     fs:instruction_bytes,2
	   000000EB R
	   00000002
			     1C     IF 2 EQ 1
			     1C         inc     esi
			     1C     ELSE
 000070F3  83 C6 02	     1C         add     esi,2
			     1C     ENDIF
			      C     @instr_text     setna_text, 5
 000070F6  64: C7 05	     1C     mov     fs:instruction_text_offset,offset setna_text
	   000000F3 R
	   000006BB R
 00007101  64: C7 05	     1C     mov     fs:instruction_text_length,5
	   000000EF R
	   00000005
 0000710C  E9 FFFFFEFB	      C     jmp     setxx_common
			      C 
 00007111		      C   _seta:
			      C     @instr_bytes    2
 00007111  64: C7 05	     1C     mov     fs:instruction_bytes,2
	   000000EB R
	   00000002
			     1C     IF 2 EQ 1
			     1C         inc     esi
			     1C     ELSE
 0000711C  83 C6 02	     1C         add     esi,2
			     1C     ENDIF
			      C     @instr_text     seta_text, 4
 0000711F  64: C7 05	     1C     mov     fs:instruction_text_offset,offset seta_text
	   000000F3 R
	   000006C0 R
 0000712A  64: C7 05	     1C     mov     fs:instruction_text_length,4
	   000000EF R
	   00000004
 00007135  E9 FFFFFED2	      C     jmp     setxx_common
			      C 
 0000713A		      C   _sets:
			      C     @instr_bytes    2
 0000713A  64: C7 05	     1C     mov     fs:instruction_bytes,2
	   000000EB R
	   00000002
			     1C     IF 2 EQ 1
			     1C         inc     esi
			     1C     ELSE
 00007145  83 C6 02	     1C         add     esi,2
			     1C     ENDIF
			      C     @instr_text     sets_text, 4
 00007148  64: C7 05	     1C     mov     fs:instruction_text_offset,offset sets_text
	   000000F3 R
	   000006C4 R
 00007153  64: C7 05	     1C     mov     fs:instruction_text_length,4
	   000000EF R
	   00000004
 0000715E  E9 FFFFFEA9	      C     jmp     setxx_common
			      C 
 00007163		      C   _setns:
			      C     @instr_bytes    2
 00007163  64: C7 05	     1C     mov     fs:instruction_bytes,2
	   000000EB R
	   00000002
			     1C     IF 2 EQ 1
			     1C         inc     esi
			     1C     ELSE
 0000716E  83 C6 02	     1C         add     esi,2
			     1C     ENDIF
			      C     @instr_text     setns_text, 5
 00007171  64: C7 05	     1C     mov     fs:instruction_text_offset,offset setns_text
	   000000F3 R
	   000006C8 R
 0000717C  64: C7 05	     1C     mov     fs:instruction_text_length,5
	   000000EF R
	   00000005
 00007187  E9 FFFFFE80	      C     jmp     setxx_common
			      C 
 0000718C		      C   _setpe:
			      C     @instr_bytes    2
 0000718C  64: C7 05	     1C     mov     fs:instruction_bytes,2
	   000000EB R
	   00000002
			     1C     IF 2 EQ 1
			     1C         inc     esi
			     1C     ELSE
 00007197  83 C6 02	     1C         add     esi,2
			     1C     ENDIF
			      C     @instr_text     setpe_text, 5
 0000719A  64: C7 05	     1C     mov     fs:instruction_text_offset,offset setpe_text
	   000000F3 R
	   000006CD R
 000071A5  64: C7 05	     1C     mov     fs:instruction_text_length,5
	   000000EF R
	   00000005
 000071B0  E9 FFFFFE57	      C     jmp     setxx_common
			      C 
 000071B5		      C   _setpo:
			      C     @instr_bytes    2
 000071B5  64: C7 05	     1C     mov     fs:instruction_bytes,2
	   000000EB R
	   00000002
			     1C     IF 2 EQ 1
			     1C         inc     esi
			     1C     ELSE
 000071C0  83 C6 02	     1C         add     esi,2
			     1C     ENDIF
			      C     @instr_text     setpo_text, 5
 000071C3  64: C7 05	     1C     mov     fs:instruction_text_offset,offset setpo_text
	   000000F3 R
	   000006D2 R
 000071CE  64: C7 05	     1C     mov     fs:instruction_text_length,5
	   000000EF R
	   00000005
 000071D9  E9 FFFFFE2E	      C     jmp     setxx_common
			      C 
 000071DE		      C   _setl:
			      C     @instr_bytes    2
 000071DE  64: C7 05	     1C     mov     fs:instruction_bytes,2
	   000000EB R
	   00000002
			     1C     IF 2 EQ 1
			     1C         inc     esi
			     1C     ELSE
 000071E9  83 C6 02	     1C         add     esi,2
			     1C     ENDIF
			      C     @instr_text     setl_text, 4
 000071EC  64: C7 05	     1C     mov     fs:instruction_text_offset,offset setl_text
	   000000F3 R
	   000006D7 R
 000071F7  64: C7 05	     1C     mov     fs:instruction_text_length,4
	   000000EF R
	   00000004
 00007202  E9 FFFFFE05	      C     jmp     setxx_common
			      C 
 00007207		      C   _setnl:
			      C     @instr_bytes    2
 00007207  64: C7 05	     1C     mov     fs:instruction_bytes,2
	   000000EB R
	   00000002
			     1C     IF 2 EQ 1
			     1C         inc     esi
			     1C     ELSE
 00007212  83 C6 02	     1C         add     esi,2
			     1C     ENDIF
			      C     @instr_text     setnl_text, 5
 00007215  64: C7 05	     1C     mov     fs:instruction_text_offset,offset setnl_text
	   000000F3 R
	   000006DB R
 00007220  64: C7 05	     1C     mov     fs:instruction_text_length,5
	   000000EF R
	   00000005
 0000722B  E9 FFFFFDDC	      C     jmp     setxx_common
			      C 
 00007230		      C   _setng:
			      C     @instr_bytes    2
 00007230  64: C7 05	     1C     mov     fs:instruction_bytes,2
	   000000EB R
	   00000002
			     1C     IF 2 EQ 1
			     1C         inc     esi
			     1C     ELSE
 0000723B  83 C6 02	     1C         add     esi,2
			     1C     ENDIF
			      C     @instr_text     setng_text, 5
 0000723E  64: C7 05	     1C     mov     fs:instruction_text_offset,offset setng_text
	   000000F3 R
	   000006E0 R
 00007249  64: C7 05	     1C     mov     fs:instruction_text_length,5
	   000000EF R
	   00000005
 00007254  E9 FFFFFDB3	      C     jmp     setxx_common
			      C 
 00007259		      C   _setg:
			      C     @instr_bytes    2
 00007259  64: C7 05	     1C     mov     fs:instruction_bytes,2
	   000000EB R
	   00000002
			     1C     IF 2 EQ 1
			     1C         inc     esi
			     1C     ELSE
 00007264  83 C6 02	     1C         add     esi,2
			     1C     ENDIF
			      C     @instr_text     setg_text, 4
 00007267  64: C7 05	     1C     mov     fs:instruction_text_offset,offset setg_text
	   000000F3 R
	   000006E5 R
 00007272  64: C7 05	     1C     mov     fs:instruction_text_length,4
	   000000EF R
	   00000004
 0000727D  E9 FFFFFD8A	      C     jmp     setxx_common
			      C 
 00007282		      C   _sgdt_label:
			      C     @instr_bytes    2
 00007282  64: C7 05	     1C     mov     fs:instruction_bytes,2
	   000000EB R
	   00000002
			     1C     IF 2 EQ 1
			     1C         inc     esi
			     1C     ELSE
 0000728D  83 C6 02	     1C         add     esi,2
			     1C     ENDIF
			      C     @instr_text     sgdt_text, 4
 00007290  64: C7 05	     1C     mov     fs:instruction_text_offset,offset sgdt_text
	   000000F3 R
	   000007D2 R
 0000729B  64: C7 05	     1C     mov     fs:instruction_text_length,4
	   000000EF R
	   00000004
 000072A6  E9 FFFFFD61	      C     jmp     setxx_common
			      C 
 000072AB		      C   _sidt_label:
			      C     @instr_bytes    2
 000072AB  64: C7 05	     1C     mov     fs:instruction_bytes,2
	   000000EB R
	   00000002
			     1C     IF 2 EQ 1
			     1C         inc     esi
			     1C     ELSE
 000072B6  83 C6 02	     1C         add     esi,2
			     1C     ENDIF
			      C     @instr_text     sidt_text, 4
 000072B9  64: C7 05	     1C     mov     fs:instruction_text_offset,offset sidt_text
	   000000F3 R
	   000007D6 R
 000072C4  64: C7 05	     1C     mov     fs:instruction_text_length,4
	   000000EF R
	   00000004
 000072CF  E9 FFFFFD38	      C     jmp     setxx_common
			      C 
 000072D4		      C   _sldt:
			      C     @instr_bytes    2
 000072D4  64: C7 05	     1C     mov     fs:instruction_bytes,2
	   000000EB R
	   00000002
			     1C     IF 2 EQ 1
			     1C         inc     esi
			     1C     ELSE
 000072DF  83 C6 02	     1C         add     esi,2
			     1C     ENDIF
			      C     @instr_text     sldt_text, 4
 000072E2  64: C7 05	     1C     mov     fs:instruction_text_offset,offset sldt_text
	   000000F3 R
	   000007C3 R
 000072ED  64: C7 05	     1C     mov     fs:instruction_text_length,4
	   000000EF R
	   00000004
 000072F8  E9 FFFFD8CB	      C     jmp     xldt_common
			      C 
 000072FD		      C   _shl_rm8_immed8:
			      C     @instr_bytes    1
 000072FD  64: C7 05	     1C     mov     fs:instruction_bytes,1
	   000000EB R
	   00000001
			     1C     IF 1 EQ 1
 00007308  46		     1C         inc     esi
			     1C     ELSE
			     1C         add     esi,1
			     1C     ENDIF
			      C     @instr_text     shl_text, 3
 00007309  64: C7 05	     1C     mov     fs:instruction_text_offset,offset shl_text
	   000000F3 R
	   000007DE R
 00007314  64: C7 05	     1C     mov     fs:instruction_text_length,3
	   000000EF R
	   00000003
 0000731F		      C   sxx_rm8_immed8_common:
 0000731F  64: C7 05	      C     mov     fs:operand_size,8
	   00000127 R
	   00000008
 0000732A  E8 0000156C	      C     call    extract_mod_rm
 0000732F  E8 0000255B	      C     call    store_comma
 00007334  E8 000024C4	      C     call    store_8_bit_signed_value
 00007339  E9 00001041	      C     jmp     store_instruction
			      C 
 0000733E		      C   _shr_rm8_immed8:
			      C     @instr_bytes    1
 0000733E  64: C7 05	     1C     mov     fs:instruction_bytes,1
	   000000EB R
	   00000001
			     1C     IF 1 EQ 1
 00007349  46		     1C         inc     esi
			     1C     ELSE
			     1C         add     esi,1
			     1C     ENDIF
			      C     @instr_text     shr_text, 3
 0000734A  64: C7 05	     1C     mov     fs:instruction_text_offset,offset shr_text
	   000000F3 R
	   000007E5 R
 00007355  64: C7 05	     1C     mov     fs:instruction_text_length,3
	   000000EF R
	   00000003
 00007360  EB BD	      C     jmp     sxx_rm8_immed8_common
			      C 
 00007362		      C   _sar_rm8_immed8:
			      C     @instr_bytes    1
 00007362  64: C7 05	     1C     mov     fs:instruction_bytes,1
	   000000EB R
	   00000001
			     1C     IF 1 EQ 1
 0000736D  46		     1C         inc     esi
			     1C     ELSE
			     1C         add     esi,1
			     1C     ENDIF
			      C     @instr_text     sar_text, 3
 0000736E  64: C7 05	     1C     mov     fs:instruction_text_offset,offset sar_text
	   000000F3 R
	   000007E9 R
 00007379  64: C7 05	     1C     mov     fs:instruction_text_length,3
	   000000EF R
	   00000003
 00007384  EB 99	      C     jmp     sxx_rm8_immed8_common
			      C 
 00007386		      C   _shl_immed8:
			      C     @instr_bytes    1
 00007386  64: C7 05	     1C     mov     fs:instruction_bytes,1
	   000000EB R
	   00000001
			     1C     IF 1 EQ 1
 00007391  46		     1C         inc     esi
			     1C     ELSE
			     1C         add     esi,1
			     1C     ENDIF
			      C     @instr_text     shl_text, 3
 00007392  64: C7 05	     1C     mov     fs:instruction_text_offset,offset shl_text
	   000000F3 R
	   000007DE R
 0000739D  64: C7 05	     1C     mov     fs:instruction_text_length,3
	   000000EF R
	   00000003
 000073A8		      C   sxx_rm_immed8_common:
 000073A8  E8 0000122E	      C     call    determine_standard_operand_size
 000073AD  E8 000014E9	      C     call    extract_mod_rm
 000073B2  E8 000024D8	      C     call    store_comma
 000073B7  E8 00002441	      C     call    store_8_bit_signed_value
 000073BC  E9 00000FBE	      C     jmp     store_instruction
			      C 
 000073C1		      C   _shr_immed8:
			      C     @instr_bytes    1
 000073C1  64: C7 05	     1C     mov     fs:instruction_bytes,1
	   000000EB R
	   00000001
			     1C     IF 1 EQ 1
 000073CC  46		     1C         inc     esi
			     1C     ELSE
			     1C         add     esi,1
			     1C     ENDIF
			      C     @instr_text     shr_text, 3
 000073CD  64: C7 05	     1C     mov     fs:instruction_text_offset,offset shr_text
	   000000F3 R
	   000007E5 R
 000073D8  64: C7 05	     1C     mov     fs:instruction_text_length,3
	   000000EF R
	   00000003
 000073E3  EB C3	      C     jmp     sxx_rm_immed8_common
			      C 
 000073E5		      C   _sar_immed8:
			      C     @instr_bytes    1
 000073E5  64: C7 05	     1C     mov     fs:instruction_bytes,1
	   000000EB R
	   00000001
			     1C     IF 1 EQ 1
 000073F0  46		     1C         inc     esi
			     1C     ELSE
			     1C         add     esi,1
			     1C     ENDIF
			      C     @instr_text     sar_text, 3
 000073F1  64: C7 05	     1C     mov     fs:instruction_text_offset,offset sar_text
	   000000F3 R
	   000007E9 R
 000073FC  64: C7 05	     1C     mov     fs:instruction_text_length,3
	   000000EF R
	   00000003
 00007407  EB 9F	      C     jmp     sxx_rm_immed8_common
			      C 
 00007409		      C   _shl_rm8_1:
			      C     @instr_bytes    1
 00007409  64: C7 05	     1C     mov     fs:instruction_bytes,1
	   000000EB R
	   00000001
			     1C     IF 1 EQ 1
 00007414  46		     1C         inc     esi
			     1C     ELSE
			     1C         add     esi,1
			     1C     ENDIF
			      C     @instr_text     shl_text, 3
 00007415  64: C7 05	     1C     mov     fs:instruction_text_offset,offset shl_text
	   000000F3 R
	   000007DE R
 00007420  64: C7 05	     1C     mov     fs:instruction_text_length,3
	   000000EF R
	   00000003
 0000742B		      C   sxx_rm8_1_common:
 0000742B  64: C7 05	      C     mov     fs:operand_size,8
	   00000127 R
	   00000008
 00007436  E8 00001460	      C     call    extract_mod_rm
 0000743B  E8 0000245C	      C     call    store_comma_one
 00007440  E9 00000F3A	      C     jmp     store_instruction
			      C 
 00007445		      C   _shr_rm8_1:
			      C     @instr_bytes    1
 00007445  64: C7 05	     1C     mov     fs:instruction_bytes,1
	   000000EB R
	   00000001
			     1C     IF 1 EQ 1
 00007450  46		     1C         inc     esi
			     1C     ELSE
			     1C         add     esi,1
			     1C     ENDIF
			      C     @instr_text     shr_text, 3
 00007451  64: C7 05	     1C     mov     fs:instruction_text_offset,offset shr_text
	   000000F3 R
	   000007E5 R
 0000745C  64: C7 05	     1C     mov     fs:instruction_text_length,3
	   000000EF R
	   00000003
 00007467  EB C2	      C     jmp     sxx_rm8_1_common
			      C 
 00007469		      C   _sar_rm8_1:
			      C     @instr_bytes    1
 00007469  64: C7 05	     1C     mov     fs:instruction_bytes,1
	   000000EB R
	   00000001
			     1C     IF 1 EQ 1
 00007474  46		     1C         inc     esi
			     1C     ELSE
			     1C         add     esi,1
			     1C     ENDIF
			      C     @instr_text     sar_text, 3
 00007475  64: C7 05	     1C     mov     fs:instruction_text_offset,offset sar_text
	   000000F3 R
	   000007E9 R
 00007480  64: C7 05	     1C     mov     fs:instruction_text_length,3
	   000000EF R
	   00000003
 0000748B  EB 9E	      C     jmp     sxx_rm8_1_common
			      C 
 0000748D		      C   _shl_rm_1:
			      C     @instr_bytes    1
 0000748D  64: C7 05	     1C     mov     fs:instruction_bytes,1
	   000000EB R
	   00000001
			     1C     IF 1 EQ 1
 00007498  46		     1C         inc     esi
			     1C     ELSE
			     1C         add     esi,1
			     1C     ENDIF
			      C     @instr_text     shl_text, 3
 00007499  64: C7 05	     1C     mov     fs:instruction_text_offset,offset shl_text
	   000000F3 R
	   000007DE R
 000074A4  64: C7 05	     1C     mov     fs:instruction_text_length,3
	   000000EF R
	   00000003
 000074AF		      C   sxx_rm_1_common:
 000074AF  E8 00001127	      C     call    determine_standard_operand_size
 000074B4  E8 000013E2	      C     call    extract_mod_rm
 000074B9  E8 000023DE	      C     call    store_comma_one
 000074BE  E9 00000EBC	      C     jmp     store_instruction
			      C 
 000074C3		      C   _shr_rm_1:
			      C     @instr_bytes    1
 000074C3  64: C7 05	     1C     mov     fs:instruction_bytes,1
	   000000EB R
	   00000001
			     1C     IF 1 EQ 1
 000074CE  46		     1C         inc     esi
			     1C     ELSE
			     1C         add     esi,1
			     1C     ENDIF
			      C     @instr_text     shr_text, 3
 000074CF  64: C7 05	     1C     mov     fs:instruction_text_offset,offset shr_text
	   000000F3 R
	   000007E5 R
 000074DA  64: C7 05	     1C     mov     fs:instruction_text_length,3
	   000000EF R
	   00000003
 000074E5  EB C8	      C     jmp     sxx_rm_1_common
			      C 
 000074E7		      C   _sar_rm_1:
			      C     @instr_bytes    1
 000074E7  64: C7 05	     1C     mov     fs:instruction_bytes,1
	   000000EB R
	   00000001
			     1C     IF 1 EQ 1
 000074F2  46		     1C         inc     esi
			     1C     ELSE
			     1C         add     esi,1
			     1C     ENDIF
			      C     @instr_text     sar_text, 3
 000074F3  64: C7 05	     1C     mov     fs:instruction_text_offset,offset sar_text
	   000000F3 R
	   000007E9 R
 000074FE  64: C7 05	     1C     mov     fs:instruction_text_length,3
	   000000EF R
	   00000003
 00007509  EB A4	      C     jmp     sxx_rm_1_common
			      C 
 0000750B		      C   _shl_rm8_cl:
			      C     @instr_bytes    1
 0000750B  64: C7 05	     1C     mov     fs:instruction_bytes,1
	   000000EB R
	   00000001
			     1C     IF 1 EQ 1
 00007516  46		     1C         inc     esi
			     1C     ELSE
			     1C         add     esi,1
			     1C     ENDIF
			      C     @instr_text     shl_text, 3
 00007517  64: C7 05	     1C     mov     fs:instruction_text_offset,offset shl_text
	   000000F3 R
	   000007DE R
 00007522  64: C7 05	     1C     mov     fs:instruction_text_length,3
	   000000EF R
	   00000003
 0000752D		      C   _sxx_rm8_cl_common:
 0000752D  64: C7 05	      C     mov     fs:operand_size,8
	   00000127 R
	   00000008
 00007538  E8 0000135E	      C     call    extract_mod_rm
 0000753D  E8 0000236C	      C     call    store_comma_cl
 00007542  E9 00000E38	      C     jmp     store_instruction
			      C 
 00007547		      C   _shr_rm8_cl:
			      C     @instr_bytes    1
 00007547  64: C7 05	     1C     mov     fs:instruction_bytes,1
	   000000EB R
	   00000001
			     1C     IF 1 EQ 1
 00007552  46		     1C         inc     esi
			     1C     ELSE
			     1C         add     esi,1
			     1C     ENDIF
			      C     @instr_text     shr_text, 3
 00007553  64: C7 05	     1C     mov     fs:instruction_text_offset,offset shr_text
	   000000F3 R
	   000007E5 R
 0000755E  64: C7 05	     1C     mov     fs:instruction_text_length,3
	   000000EF R
	   00000003
 00007569  EB C2	      C     jmp     _sxx_rm8_cl_common
			      C 
 0000756B		      C   _sar_rm8_cl:
			      C     @instr_bytes    1
 0000756B  64: C7 05	     1C     mov     fs:instruction_bytes,1
	   000000EB R
	   00000001
			     1C     IF 1 EQ 1
 00007576  46		     1C         inc     esi
			     1C     ELSE
			     1C         add     esi,1
			     1C     ENDIF
			      C     @instr_text     sar_text, 3
 00007577  64: C7 05	     1C     mov     fs:instruction_text_offset,offset sar_text
	   000000F3 R
	   000007E9 R
 00007582  64: C7 05	     1C     mov     fs:instruction_text_length,3
	   000000EF R
	   00000003
 0000758D  EB 9E	      C     jmp     _sxx_rm8_cl_common
			      C 
 0000758F		      C   _shl_rm_cl:
			      C     @instr_bytes    1
 0000758F  64: C7 05	     1C     mov     fs:instruction_bytes,1
	   000000EB R
	   00000001
			     1C     IF 1 EQ 1
 0000759A  46		     1C         inc     esi
			     1C     ELSE
			     1C         add     esi,1
			     1C     ENDIF
			      C     @instr_text     shl_text, 3
 0000759B  64: C7 05	     1C     mov     fs:instruction_text_offset,offset shl_text
	   000000F3 R
	   000007DE R
 000075A6  64: C7 05	     1C     mov     fs:instruction_text_length,3
	   000000EF R
	   00000003
 000075B1		      C   sxx_rm_cl_common:
 000075B1  E8 00001025	      C     call    determine_standard_operand_size
 000075B6  E8 000012E0	      C     call    extract_mod_rm
 000075BB  E8 000022EE	      C     call    store_comma_cl
 000075C0  E9 00000DBA	      C     jmp     store_instruction
			      C 
 000075C5		      C   _shr_rm_cl:
			      C     @instr_bytes    1
 000075C5  64: C7 05	     1C     mov     fs:instruction_bytes,1
	   000000EB R
	   00000001
			     1C     IF 1 EQ 1
 000075D0  46		     1C         inc     esi
			     1C     ELSE
			     1C         add     esi,1
			     1C     ENDIF
			      C     @instr_text     shr_text, 3
 000075D1  64: C7 05	     1C     mov     fs:instruction_text_offset,offset shr_text
	   000000F3 R
	   000007E5 R
 000075DC  64: C7 05	     1C     mov     fs:instruction_text_length,3
	   000000EF R
	   00000003
 000075E7  EB C8	      C     jmp     sxx_rm_cl_common
			      C 
 000075E9		      C   _sar_rm_cl:
			      C     @instr_bytes    1
 000075E9  64: C7 05	     1C     mov     fs:instruction_bytes,1
	   000000EB R
	   00000001
			     1C     IF 1 EQ 1
 000075F4  46		     1C         inc     esi
			     1C     ELSE
			     1C         add     esi,1
			     1C     ENDIF
			      C     @instr_text     sar_text, 3
 000075F5  64: C7 05	     1C     mov     fs:instruction_text_offset,offset sar_text
	   000000F3 R
	   000007E9 R
 00007600  64: C7 05	     1C     mov     fs:instruction_text_length,3
	   000000EF R
	   00000003
 0000760B  EB A4	      C     jmp     sxx_rm_cl_common
			      C 
 0000760D		      C   _shld_cl:
			      C     @instr_bytes    2
 0000760D  64: C7 05	     1C     mov     fs:instruction_bytes,2
	   000000EB R
	   00000002
			     1C     IF 2 EQ 1
			     1C         inc     esi
			     1C     ELSE
 00007618  83 C6 02	     1C         add     esi,2
			     1C     ENDIF
			      C     @instr_text     shld_text, 4
 0000761B  64: C7 05	     1C     mov     fs:instruction_text_offset,offset shld_text
	   000000F3 R
	   000007DE R
 00007626  64: C7 05	     1C     mov     fs:instruction_text_length,4
	   000000EF R
	   00000004
 00007631		      C   shxd_cl_common:
 00007631  E8 00000FA5	      C     call    determine_standard_operand_size
 00007636  E8 00000F0D	      C     call    start_offsets
 0000763B  E8 00000FDC	      C     call    extract_mod_reg_rm
 00007640  E8 0000224A	      C     call    store_comma
 00007645  B3 01	      C     mov     bl,01b
 00007647  64: C7 05	      C     mov     fs:operand_size,8
	   00000127 R
	   00000008
 00007652  E8 000012EB	      C     call    store_gp_register
 00007657  E8 00000F02	      C     call    end_offsets
 0000765C  64: C7 05	      C     mov     fs:operand_size,0
	   00000127 R
	   00000000
 00007667  E9 00000D13	      C     jmp     store_instruction
			      C 
 0000766C		      C   _shld_immed:
			      C     @instr_bytes    2
 0000766C  64: C7 05	     1C     mov     fs:instruction_bytes,2
	   000000EB R
	   00000002
			     1C     IF 2 EQ 1
			     1C         inc     esi
			     1C     ELSE
 00007677  83 C6 02	     1C         add     esi,2
			     1C     ENDIF
			      C     @instr_text     shld_text, 4
 0000767A  64: C7 05	     1C     mov     fs:instruction_text_offset,offset shld_text
	   000000F3 R
	   000007DE R
 00007685  64: C7 05	     1C     mov     fs:instruction_text_length,4
	   000000EF R
	   00000004
 00007690		      C   shxd_immed_common:
 00007690  E8 00000F46	      C     call    determine_standard_operand_size
 00007695  E8 00000EAE	      C     call    start_offsets
 0000769A  E8 00000F7D	      C     call    extract_mod_reg_rm
 0000769F  E8 000021EB	      C     call    store_comma
 000076A4  E8 00001F11	      C     call    store_8_bit_value
 000076A9  E8 00000EB0	      C     call    end_offsets
 000076AE  64: C7 05	      C     mov     fs:operand_size,0
	   00000127 R
	   00000000
 000076B9  E9 00000CC1	      C     jmp     store_instruction
			      C 
 000076BE		      C   _shrd_cl:
			      C     @instr_bytes    2
 000076BE  64: C7 05	     1C     mov     fs:instruction_bytes,2
	   000000EB R
	   00000002
			     1C     IF 2 EQ 1
			     1C         inc     esi
			     1C     ELSE
 000076C9  83 C6 02	     1C         add     esi,2
			     1C     ENDIF
			      C     @instr_text     shrd_text, 4
 000076CC  64: C7 05	     1C     mov     fs:instruction_text_offset,offset shrd_text
	   000000F3 R
	   000007E5 R
 000076D7  64: C7 05	     1C     mov     fs:instruction_text_length,4
	   000000EF R
	   00000004
 000076E2  E9 FFFFFF4A	      C     jmp     shxd_cl_common
			      C 
 000076E7		      C   _shrd_immed:
			      C     @instr_bytes    2
 000076E7  64: C7 05	     1C     mov     fs:instruction_bytes,2
	   000000EB R
	   00000002
			     1C     IF 2 EQ 1
			     1C         inc     esi
			     1C     ELSE
 000076F2  83 C6 02	     1C         add     esi,2
			     1C     ENDIF
			      C     @instr_text     shrd_text, 4
 000076F5  64: C7 05	     1C     mov     fs:instruction_text_offset,offset shrd_text
	   000000F3 R
	   000007E5 R
 00007700  64: C7 05	     1C     mov     fs:instruction_text_length,4
	   000000EF R
	   00000004
 0000770B  EB 83	      C     jmp     shxd_immed_common
			      C 
 0000770D		      C   _smsw:
			      C     @instr_bytes    2
 0000770D  64: C7 05	     1C     mov     fs:instruction_bytes,2
	   000000EB R
	   00000002
			     1C     IF 2 EQ 1
			     1C         inc     esi
			     1C     ELSE
 00007718  83 C6 02	     1C         add     esi,2
			     1C     ENDIF
			      C     @instr_text     smsw_text, 4
 0000771B  64: C7 05	     1C     mov     fs:instruction_text_offset,offset smsw_text
	   000000F3 R
	   000007DA R
 00007726  64: C7 05	     1C     mov     fs:instruction_text_length,4
	   000000EF R
	   00000004
 00007731  E8 00000EA5	      C     call    determine_standard_operand_size
 00007736  E8 00001160	      C     call    extract_mod_rm
 0000773B  E9 00000C3F	      C     jmp     store_instruction
			      C 
 00007740		      C   _stc:
			      C     @instr_bytes    1
 00007740  64: C7 05	     1C     mov     fs:instruction_bytes,1
	   000000EB R
	   00000001
			     1C     IF 1 EQ 1
 0000774B  46		     1C         inc     esi
			     1C     ELSE
			     1C         add     esi,1
			     1C     ENDIF
			      C     @instr_text     stc_text, 3
 0000774C  64: C7 05	     1C     mov     fs:instruction_text_offset,offset stc_text
	   000000F3 R
	   000005D0 R
 00007757  64: C7 05	     1C     mov     fs:instruction_text_length,3
	   000000EF R
	   00000003
 00007762  E9 00000C18	      C     jmp     store_instruction
			      C 
 00007767		      C   _std:
			      C     @instr_bytes    1
 00007767  64: C7 05	     1C     mov     fs:instruction_bytes,1
	   000000EB R
	   00000001
			     1C     IF 1 EQ 1
 00007772  46		     1C         inc     esi
			     1C     ELSE
			     1C         add     esi,1
			     1C     ENDIF
			      C     @instr_text     std_text, 3
 00007773  64: C7 05	     1C     mov     fs:instruction_text_offset,offset std_text
	   000000F3 R
	   000005D3 R
 0000777E  64: C7 05	     1C     mov     fs:instruction_text_length,3
	   000000EF R
	   00000003
 00007789  E9 00000BF1	      C     jmp     store_instruction
			      C 
 0000778E		      C   _sti:
			      C     @instr_bytes    1
 0000778E  64: C7 05	     1C     mov     fs:instruction_bytes,1
	   000000EB R
	   00000001
			     1C     IF 1 EQ 1
 00007799  46		     1C         inc     esi
			     1C     ELSE
			     1C         add     esi,1
			     1C     ENDIF
			      C     @instr_text     sti_text, 3
 0000779A  64: C7 05	     1C     mov     fs:instruction_text_offset,offset sti_text
	   000000F3 R
	   000005D6 R
 000077A5  64: C7 05	     1C     mov     fs:instruction_text_length,3
	   000000EF R
	   00000003
 000077B0  E9 00000BCA	      C     jmp     store_instruction
			      C 
 000077B5		      C   _str:
			      C     @instr_bytes    2
 000077B5  64: C7 05	     1C     mov     fs:instruction_bytes,2
	   000000EB R
	   00000002
			     1C     IF 2 EQ 1
			     1C         inc     esi
			     1C     ELSE
 000077C0  83 C6 02	     1C         add     esi,2
			     1C     ENDIF
			      C     @instr_text     str_text, 3
 000077C3  64: C7 05	     1C     mov     fs:instruction_text_offset,offset str_text
	   000000F3 R
	   000007C7 R
 000077CE  64: C7 05	     1C     mov     fs:instruction_text_length,3
	   000000EF R
	   00000003
 000077D9  64: C7 05	      C     mov     fs:operand_size,16
	   00000127 R
	   00000010
 000077E4  E8 000010B2	      C     call    extract_mod_rm
 000077E9  E9 00000B91	      C     jmp     store_instruction
			      C 
 000077EE		      C   _stosb:
			      C     @instr_bytes    1
 000077EE  64: C7 05	     1C     mov     fs:instruction_bytes,1
	   000000EB R
	   00000001
			     1C     IF 1 EQ 1
 000077F9  46		     1C         inc     esi
			     1C     ELSE
			     1C         add     esi,1
			     1C     ENDIF
			      C     @instr_text     stosb_text, 5
 000077FA  64: C7 05	     1C     mov     fs:instruction_text_offset,offset stosb_text
	   000000F3 R
	   0000072F R
 00007805  64: C7 05	     1C     mov     fs:instruction_text_length,5
	   000000EF R
	   00000005
 00007810  E9 00000B6A	      C     jmp     store_instruction
			      C 
 00007815		      C   _stosw:
			      C     @instr_bytes    1
 00007815  64: C7 05	     1C     mov     fs:instruction_bytes,1
	   000000EB R
	   00000001
			     1C     IF 1 EQ 1
 00007820  46		     1C         inc     esi
			     1C     ELSE
			     1C         add     esi,1
			     1C     ENDIF
			      C     .IF ((fs:cpu_mode == 0 && fs:op_size_override != 0) || (fs:cpu_mode != 0 && fs:op_size_override == 0))
 00007821  64: 83 3D
	   0000009B R 00   *	    cmp    fs : cpu_mode, 000h
 00007829  75 0A	   *	    jne    @C0272
 0000782B  64: 83 3D
	   000000BF R 00   *	    cmp    fs : op_size_override, 000h
 00007833  75 14	   *	    jne    @C0271
 00007835		   *@C0272:
 00007835  64: 83 3D
	   0000009B R 00   *	    cmp    fs : cpu_mode, 000h
 0000783D  74 22	   *	    je     @C0270
 0000783F  64: 83 3D
	   000000BF R 00   *	    cmp    fs : op_size_override, 000h
 00007847  75 18	   *	    jne    @C0270
 00007849		   *@C0271:
			      C         @instr_text     stosw_text, 5
 00007849  64: C7 05	     1C     mov     fs:instruction_text_offset,offset stosw_text
	   000000F3 R
	   00000734 R
 00007854  64: C7 05	     1C     mov     fs:instruction_text_length,5
	   000000EF R
	   00000005
			      C     .ELSE
 0000785F  EB 16	   *	    jmp    @C0275
 00007861		   *@C0270:
			      C         @instr_text     stosd_text, 5
 00007861  64: C7 05	     1C     mov     fs:instruction_text_offset,offset stosd_text
	   000000F3 R
	   00000739 R
 0000786C  64: C7 05	     1C     mov     fs:instruction_text_length,5
	   000000EF R
	   00000005
			      C     .ENDIF
 00007877		   *@C0275:
 00007877  E9 00000B03	      C     jmp     store_instruction
			      C 
 0000787C		      C   _test_rm_reg_8:
			      C     @instr_bytes    1
 0000787C  64: C7 05	     1C     mov     fs:instruction_bytes,1
	   000000EB R
	   00000001
			     1C     IF 1 EQ 1
 00007887  46		     1C         inc     esi
			     1C     ELSE
			     1C         add     esi,1
			     1C     ENDIF
			      C     @instr_text     test_text, 4
 00007888  64: C7 05	     1C     mov     fs:instruction_text_offset,offset test_text
	   000000F3 R
	   000007F0 R
 00007893  64: C7 05	     1C     mov     fs:instruction_text_length,4
	   000000EF R
	   00000004
 0000789E  64: C7 05	      C     mov     fs:operand_size,8
	   00000127 R
	   00000008
 000078A9  E8 00000D6E	      C     call    extract_mod_reg_rm
 000078AE  E9 00000ACC	      C     jmp     store_instruction
			      C 
 000078B3		      C   _test_rm_reg16_32:
			      C     @instr_bytes    1
 000078B3  64: C7 05	     1C     mov     fs:instruction_bytes,1
	   000000EB R
	   00000001
			     1C     IF 1 EQ 1
 000078BE  46		     1C         inc     esi
			     1C     ELSE
			     1C         add     esi,1
			     1C     ENDIF
			      C     @instr_text     test_text, 4
 000078BF  64: C7 05	     1C     mov     fs:instruction_text_offset,offset test_text
	   000000F3 R
	   000007F0 R
 000078CA  64: C7 05	     1C     mov     fs:instruction_text_length,4
	   000000EF R
	   00000004
 000078D5  E8 00000D01	      C     call    determine_standard_operand_size
 000078DA  E8 00000D3D	      C     call    extract_mod_reg_rm
 000078DF  E9 00000A9B	      C     jmp     store_instruction
			      C 
 000078E4		      C   _test_accum_imm8:
			      C     @instr_bytes    1
 000078E4  64: C7 05	     1C     mov     fs:instruction_bytes,1
	   000000EB R
	   00000001
			     1C     IF 1 EQ 1
 000078EF  46		     1C         inc     esi
			     1C     ELSE
			     1C         add     esi,1
			     1C     ENDIF
			      C     @instr_text     test_text, 4
 000078F0  64: C7 05	     1C     mov     fs:instruction_text_offset,offset test_text
	   000000F3 R
	   000007F0 R
 000078FB  64: C7 05	     1C     mov     fs:instruction_text_length,4
	   000000EF R
	   00000004
 00007906  64: C7 05	      C     mov     fs:operand_size,8
	   00000127 R
	   00000008
 00007911  E8 00000C32	      C     call    start_offsets
 00007916  32 DB	      C     xor     bl,bl
 00007918  E8 00001025	      C     call    store_gp_register
 0000791D  E8 00001F6D	      C     call    store_comma
 00007922  E8 00001ED6	      C     call    store_8_bit_signed_value
 00007927  E8 00000C32	      C     call    end_offsets
 0000792C  E9 00000A4E	      C     jmp     store_instruction
			      C 
 00007931		      C   _test_accum_imm16_32:
			      C     @instr_bytes    1
 00007931  64: C7 05	     1C     mov     fs:instruction_bytes,1
	   000000EB R
	   00000001
			     1C     IF 1 EQ 1
 0000793C  46		     1C         inc     esi
			     1C     ELSE
			     1C         add     esi,1
			     1C     ENDIF
			      C     @instr_text     test_text, 4
 0000793D  64: C7 05	     1C     mov     fs:instruction_text_offset,offset test_text
	   000000F3 R
	   000007F0 R
 00007948  64: C7 05	     1C     mov     fs:instruction_text_length,4
	   000000EF R
	   00000004
 00007953  E8 00000C83	      C     call    determine_standard_operand_size
 00007958  E8 00000BEB	      C     call    start_offsets
 0000795D  32 DB	      C     xor     bl,bl
 0000795F  E8 00000FDE	      C     call    store_gp_register
 00007964  E8 00001F26	      C     call    store_comma
 00007969  E8 00001ECF	      C     call    store_signed_value
 0000796E  E8 00000BEB	      C     call    end_offsets
 00007973  E9 00000A07	      C     jmp     store_instruction
			      C 
 00007978		      C   _test_rm_imm8:
			      C     @instr_bytes    1
 00007978  64: C7 05	     1C     mov     fs:instruction_bytes,1
	   000000EB R
	   00000001
			     1C     IF 1 EQ 1
 00007983  46		     1C         inc     esi
			     1C     ELSE
			     1C         add     esi,1
			     1C     ENDIF
			      C     @instr_text     test_text, 4
 00007984  64: C7 05	     1C     mov     fs:instruction_text_offset,offset test_text
	   000000F3 R
	   000007F0 R
 0000798F  64: C7 05	     1C     mov     fs:instruction_text_length,4
	   000000EF R
	   00000004
 0000799A  64: C7 05	      C     mov     fs:operand_size,8
	   00000127 R
	   00000008
 000079A5  E8 00000B9E	      C     call    start_offsets
 000079AA  E8 00000EEC	      C     call    extract_mod_rm
 000079AF  E8 00001EDB	      C     call    store_comma
 000079B4  E8 00001E44	      C     call    store_8_bit_signed_value
 000079B9  E8 00000BA0	      C     call    end_offsets
 000079BE  E9 000009BC	      C     jmp     store_instruction
			      C 
 000079C3		      C   _test_rm_imm16_32:
			      C     @instr_bytes    1
 000079C3  64: C7 05	     1C     mov     fs:instruction_bytes,1
	   000000EB R
	   00000001
			     1C     IF 1 EQ 1
 000079CE  46		     1C         inc     esi
			     1C     ELSE
			     1C         add     esi,1
			     1C     ENDIF
			      C     @instr_text     test_text, 4
 000079CF  64: C7 05	     1C     mov     fs:instruction_text_offset,offset test_text
	   000000F3 R
	   000007F0 R
 000079DA  64: C7 05	     1C     mov     fs:instruction_text_length,4
	   000000EF R
	   00000004
 000079E5  E8 00000BF1	      C     call    determine_standard_operand_size
 000079EA  E8 00000B59	      C     call    start_offsets
 000079EF  E8 00000EA7	      C     call    extract_mod_rm
 000079F4  E8 00001E96	      C     call    store_comma
 000079F9  E8 00001E3F	      C     call    store_signed_value
 000079FE  E8 00000B5B	      C     call    end_offsets
 00007A03  E9 00000977	      C     jmp     store_instruction
			      C 
 00007A08		      C   _ud2_f0b:
			      C     @instr_bytes    2
 00007A08  64: C7 05	     1C     mov     fs:instruction_bytes,2
	   000000EB R
	   00000002
			     1C     IF 2 EQ 1
			     1C         inc     esi
			     1C     ELSE
 00007A13  83 C6 02	     1C         add     esi,2
			     1C     ENDIF
			      C     @instr_text     ud2_0f0b_text, 8
 00007A16  64: C7 05	     1C     mov     fs:instruction_text_offset,offset ud2_0f0b_text
	   000000F3 R
	   0000083D R
 00007A21  64: C7 05	     1C     mov     fs:instruction_text_length,8
	   000000EF R
	   00000008
 00007A2C  E9 0000094E	      C     jmp     store_instruction
			      C 
 00007A31		      C   _ud2_fb9:
			      C     @instr_bytes    2
 00007A31  64: C7 05	     1C     mov     fs:instruction_bytes,2
	   000000EB R
	   00000002
			     1C     IF 2 EQ 1
			     1C         inc     esi
			     1C     ELSE
 00007A3C  83 C6 02	     1C         add     esi,2
			     1C     ENDIF
			      C     @instr_text     ud2_0fb9_text, 8
 00007A3F  64: C7 05	     1C     mov     fs:instruction_text_offset,offset ud2_0fb9_text
	   000000F3 R
	   00000845 R
 00007A4A  64: C7 05	     1C     mov     fs:instruction_text_length,8
	   000000EF R
	   00000008
 00007A55  E9 00000925	      C     jmp     store_instruction
			      C 
 00007A5A		      C   _verr:
			      C     @instr_bytes    2
 00007A5A  64: C7 05	     1C     mov     fs:instruction_bytes,2
	   000000EB R
	   00000002
			     1C     IF 2 EQ 1
			     1C         inc     esi
			     1C     ELSE
 00007A65  83 C6 02	     1C         add     esi,2
			     1C     ENDIF
			      C     @instr_text     verr_text, 4
 00007A68  64: C7 05	     1C     mov     fs:instruction_text_offset,offset verr_text
	   000000F3 R
	   000007CA R
 00007A73  64: C7 05	     1C     mov     fs:instruction_text_length,4
	   000000EF R
	   00000004
 00007A7E  64: C7 05	      C     mov     fs:operand_size,16
	   00000127 R
	   00000010
 00007A89  E8 00000E0D	      C     call    extract_mod_rm
 00007A8E  E9 000008EC	      C     jmp     store_instruction
			      C 
 00007A93		      C   _verw:
			      C     @instr_bytes    2
 00007A93  64: C7 05	     1C     mov     fs:instruction_bytes,2
	   000000EB R
	   00000002
			     1C     IF 2 EQ 1
			     1C         inc     esi
			     1C     ELSE
 00007A9E  83 C6 02	     1C         add     esi,2
			     1C     ENDIF
			      C     @instr_text     verw_text, 4
 00007AA1  64: C7 05	     1C     mov     fs:instruction_text_offset,offset verw_text
	   000000F3 R
	   000007CE R
 00007AAC  64: C7 05	     1C     mov     fs:instruction_text_length,4
	   000000EF R
	   00000004
 00007AB7  64: C7 05	      C     mov     fs:operand_size,16
	   00000127 R
	   00000010
 00007AC2  E8 00000DD4	      C     call    extract_mod_rm
 00007AC7  E9 000008B3	      C     jmp     store_instruction
			      C 
 00007ACC		      C   _wait:
			      C     @instr_bytes    1
 00007ACC  64: C7 05	     1C     mov     fs:instruction_bytes,1
	   000000EB R
	   00000001
			     1C     IF 1 EQ 1
 00007AD7  46		     1C         inc     esi
			     1C     ELSE
			     1C         add     esi,1
			     1C     ENDIF
			      C     @instr_text     wait_text, 4
 00007AD8  64: C7 05	     1C     mov     fs:instruction_text_offset,offset wait_text
	   000000F3 R
	   000005D9 R
 00007AE3  64: C7 05	     1C     mov     fs:instruction_text_length,4
	   000000EF R
	   00000004
 00007AEE  E9 0000088C	      C     jmp     store_instruction
			      C 
 00007AF3		      C   _wbinvd:
			      C     @instr_bytes    1
 00007AF3  64: C7 05	     1C     mov     fs:instruction_bytes,1
	   000000EB R
	   00000001
			     1C     IF 1 EQ 1
 00007AFE  46		     1C         inc     esi
			     1C     ELSE
			     1C         add     esi,1
			     1C     ENDIF
			      C     @instr_text     wbinvd_text, 6
 00007AFF  64: C7 05	     1C     mov     fs:instruction_text_offset,offset wbinvd_text
	   000000F3 R
	   000005EB R
 00007B0A  64: C7 05	     1C     mov     fs:instruction_text_length,6
	   000000EF R
	   00000006
 00007B15  E9 00000865	      C     jmp     store_instruction
			      C 
 00007B1A		      C   _wrmsr:
			      C     @instr_bytes    2
 00007B1A  64: C7 05	     1C     mov     fs:instruction_bytes,2
	   000000EB R
	   00000002
			     1C     IF 2 EQ 1
			     1C         inc     esi
			     1C     ELSE
 00007B25  83 C6 02	     1C         add     esi,2
			     1C     ENDIF
			      C     @instr_text     wrmsr_text, 5
 00007B28  64: C7 05	     1C     mov     fs:instruction_text_offset,offset wrmsr_text
	   000000F3 R
	   0000084D R
 00007B33  64: C7 05	     1C     mov     fs:instruction_text_length,5
	   000000EF R
	   00000005
 00007B3E  E9 0000083C	      C     jmp     store_instruction
			      C 
 00007B43		      C   _xadd_byte:
			      C     @instr_bytes    2
 00007B43  64: C7 05	     1C     mov     fs:instruction_bytes,2
	   000000EB R
	   00000002
			     1C     IF 2 EQ 1
			     1C         inc     esi
			     1C     ELSE
 00007B4E  83 C6 02	     1C         add     esi,2
			     1C     ENDIF
			      C     @instr_text     xadd_text, 4
 00007B51  64: C7 05	     1C     mov     fs:instruction_text_offset,offset xadd_text
	   000000F3 R
	   00000570 R
 00007B5C  64: C7 05	     1C     mov     fs:instruction_text_length,4
	   000000EF R
	   00000004
 00007B67  64: C7 05	      C     mov     fs:operand_size,8
	   00000127 R
	   00000008
 00007B72  E8 00000AA5	      C     call    extract_mod_reg_rm
 00007B77  E9 00000803	      C     jmp     store_instruction
			      C 
 00007B7C		      C   _xadd:
			      C     @instr_bytes    2
 00007B7C  64: C7 05	     1C     mov     fs:instruction_bytes,2
	   000000EB R
	   00000002
			     1C     IF 2 EQ 1
			     1C         inc     esi
			     1C     ELSE
 00007B87  83 C6 02	     1C         add     esi,2
			     1C     ENDIF
			      C     @instr_text     xadd_text, 4
 00007B8A  64: C7 05	     1C     mov     fs:instruction_text_offset,offset xadd_text
	   000000F3 R
	   00000570 R
 00007B95  64: C7 05	     1C     mov     fs:instruction_text_length,4
	   000000EF R
	   00000004
 00007BA0  E8 00000A36	      C     call    determine_standard_operand_size
 00007BA5  E8 00000A72	      C     call    extract_mod_reg_rm
 00007BAA  E9 000007D0	      C     jmp     store_instruction
			      C 
 00007BAF		      C   _xchg_byte:
			      C     @instr_bytes    1
 00007BAF  64: C7 05	     1C     mov     fs:instruction_bytes,1
	   000000EB R
	   00000001
			     1C     IF 1 EQ 1
 00007BBA  46		     1C         inc     esi
			     1C     ELSE
			     1C         add     esi,1
			     1C     ENDIF
			      C     @instr_text     xchg_text, 4
 00007BBB  64: C7 05	     1C     mov     fs:instruction_text_offset,offset xchg_text
	   000000F3 R
	   00000810 R
 00007BC6  64: C7 05	     1C     mov     fs:instruction_text_length,4
	   000000EF R
	   00000004
 00007BD1  64: C7 05	      C     mov     fs:operand_size,8
	   00000127 R
	   00000008
 00007BDC  E8 00000A3B	      C     call    extract_mod_reg_rm
 00007BE1  E9 00000799	      C     jmp     store_instruction
			      C 
 00007BE6		      C   _xchg:
			      C     @instr_bytes    1
 00007BE6  64: C7 05	     1C     mov     fs:instruction_bytes,1
	   000000EB R
	   00000001
			     1C     IF 1 EQ 1
 00007BF1  46		     1C         inc     esi
			     1C     ELSE
			     1C         add     esi,1
			     1C     ENDIF
			      C     @instr_text     xchg_text, 4
 00007BF2  64: C7 05	     1C     mov     fs:instruction_text_offset,offset xchg_text
	   000000F3 R
	   00000810 R
 00007BFD  64: C7 05	     1C     mov     fs:instruction_text_length,4
	   000000EF R
	   00000004
 00007C08  E8 000009CE	      C     call    determine_standard_operand_size
 00007C0D  E8 00000A0A	      C     call    extract_mod_reg_rm
 00007C12  E9 00000768	      C     jmp     store_instruction
			      C 
 00007C17		      C   _xchg_xbp:
 00007C17		      C   _xchg_xbx:
 00007C17		      C   _xchg_xcx:
 00007C17		      C   _xchg_xdi:
 00007C17		      C   _xchg_xdx:
 00007C17		      C   _xchg_xsi:
 00007C17		      C   _xchg_xsp:
			      C     @instr_bytes    1
 00007C17  64: C7 05	     1C     mov     fs:instruction_bytes,1
	   000000EB R
	   00000001
			     1C     IF 1 EQ 1
 00007C22  46		     1C         inc     esi
			     1C     ELSE
			     1C         add     esi,1
			     1C     ENDIF
			      C     @instr_text     xchg_text, 4
 00007C23  64: C7 05	     1C     mov     fs:instruction_text_offset,offset xchg_text
	   000000F3 R
	   00000810 R
 00007C2E  64: C7 05	     1C     mov     fs:instruction_text_length,4
	   000000EF R
	   00000004
 00007C39  E8 0000099D	      C     call    determine_standard_operand_size
 00007C3E  E8 00000905	      C     call    start_offsets
 00007C43  24 07	      C     and     al,111b
 00007C45  8A D8	      C     mov     bl,al
 00007C47  E8 00000CF6	      C     call    store_gp_register
 00007C4C  E8 00001C3E	      C     call    store_comma
 00007C51  32 DB	      C     xor     bl,bl
 00007C53  E8 00000CEA	      C     call    store_gp_register
 00007C58  E9 00000722	      C     jmp     store_instruction
			      C 
 00007C5D		      C   _xlat:
			      C     @instr_bytes    1
 00007C5D  64: C7 05	     1C     mov     fs:instruction_bytes,1
	   000000EB R
	   00000001
			     1C     IF 1 EQ 1
 00007C68  46		     1C         inc     esi
			     1C     ELSE
			     1C         add     esi,1
			     1C     ENDIF
			      C     @instr_text     xlat_text, 4
 00007C69  64: C7 05	     1C     mov     fs:instruction_text_offset,offset xlat_text
	   000000F3 R
	   000005DD R
 00007C74  64: C7 05	     1C     mov     fs:instruction_text_length,4
	   000000EF R
	   00000004
 00007C7F  E9 000006FB	      C     jmp     store_instruction
			      C 
 00007C84		      C   _check_reg_80:
			      C   ; Check the REG portion of the Mod/Reg/RM byte
 00007C84  0F B6 46 01	      C     movzx   eax,byte ptr ds:[esi+1]
 00007C88  C1 E8 03	      C     shr     eax,3
 00007C8B  83 E0 07	      C     and     eax,111b
			      C     .IF (al == 000b)
 00007C8E  0A C0	   *	    or	al, al
 00007C90  75 07	   *	    jne    @C0276
			      C       ; It's ADD r/m8,imm8
 00007C92  E9 FFFF9429	      C         jmp     _add_rm_immed8
			      C     .ELSEIF (al == 001b)
 00007C97  EB 6C	   *	    jmp    @C0278
 00007C99		   *@C0276:
 00007C99  3C 01	   *	    cmp    al, 001h
 00007C9B  75 07	   *	    jne    @C0279
			      C       ; It's OR r/m8,immed8
 00007C9D  E9 FFFFDB5A	      C         jmp     _or_rm_immed8
			      C     .ELSEIF (al == 010b)
 00007CA2  EB 61	   *	    jmp    @C027B
 00007CA4		   *@C0279:
 00007CA4  3C 02	   *	    cmp    al, 002h
 00007CA6  75 07	   *	    jne    @C027C
			      C       ; It's ADC r/m8,imm8
 00007CA8  E9 FFFF92C2	      C         jmp     _adc_rm_immed8
			      C     .ELSEIF (al == 011b)
 00007CAD  EB 56	   *	    jmp    @C027E
 00007CAF		   *@C027C:
 00007CAF  3C 03	   *	    cmp    al, 003h
 00007CB1  75 12	   *	    jne    @C027F
			      C       ; It's SBB r/m8,imm8
 00007CB3  64: C7 05	      C         mov     dword ptr fs:xxx_text,' bbs'
	   00000819 R
	   20626273
 00007CBE  E9 FFFFF1C2	      C         jmp     _xxx_rm8_immed8
			      C     .ELSEIF (al == 100b)
 00007CC3  EB 40	   *	    jmp    @C0281
 00007CC5		   *@C027F:
 00007CC5  3C 04	   *	    cmp    al, 004h
 00007CC7  75 07	   *	    jne    @C0282
			      C       ; It's AND r/m8,imm8
 00007CC9  E9 FFFF9503	      C         jmp     _and_rm_immed8
			      C     .ELSEIF (al == 101b)
 00007CCE  EB 35	   *	    jmp    @C0284
 00007CD0		   *@C0282:
 00007CD0  3C 05	   *	    cmp    al, 005h
 00007CD2  75 12	   *	    jne    @C0285
			      C       ; It's SUB r/m8,imm8
 00007CD4  64: C7 05	      C         mov     dword ptr fs:xxx_text,' bus'
	   00000819 R
	   20627573
 00007CDF  E9 FFFFF1A1	      C         jmp     _xxx_rm8_immed8
			      C     .ELSEIF (al == 110b)
 00007CE4  EB 1F	   *	    jmp    @C0287
 00007CE6		   *@C0285:
 00007CE6  3C 06	   *	    cmp    al, 006h
 00007CE8  75 12	   *	    jne    @C0288
			      C       ; It's XOR r/m8,imm8
 00007CEA  64: C7 05	      C         mov     dword ptr fs:xxx_text,' rox'
	   00000819 R
	   20726F78
 00007CF5  E9 FFFFF18B	      C         jmp     _xxx_rm8_immed8
			      C     .ELSEIF (al == 111b)
 00007CFA  EB 09	   *	    jmp    @C028A
 00007CFC		   *@C0288:
 00007CFC  3C 07	   *	    cmp    al, 007h
 00007CFE  75 05	   *	    jne    @C028B
			      C       ; It's CMP r/m8,imm8
 00007D00  E9 FFFF9D9B	      C         jmp     _cmp_rm_immed8
			      C     .ENDIF
 00007D05		   *@C028B:
 00007D05		   *@C028A:
 00007D05		   *@C0287:
 00007D05		   *@C0284:
 00007D05		   *@C0281:
 00007D05		   *@C027E:
 00007D05		   *@C027B:
 00007D05		   *@C0278:
 00007D05  E9 000005EE	      C     jmp    _unused
			      C 
 00007D0A		      C   _check_reg_81:
			      C   ; Check the REG portion of the Mod/Reg/RM byte
 00007D0A  0F B6 46 01	      C     movzx   eax,byte ptr ds:[esi+1]
 00007D0E  C1 E8 03	      C     shr     eax,3
 00007D11  83 E0 07	      C     and     eax,111b
			      C     .IF (al == 000b)
 00007D14  0A C0	   *	    or	al, al
 00007D16  75 07	   *	    jne    @C028D
			      C       ; It's ADD r/m16,imm16
			      C       ; or   ADD r/m32,imm32
 00007D18  E9 FFFF93CA	      C         jmp     _add_rm_immed16_32
			      C     .ELSEIF (al == 001b)
 00007D1D  EB 6C	   *	    jmp    @C028F
 00007D1F		   *@C028D:
 00007D1F  3C 01	   *	    cmp    al, 001h
 00007D21  75 07	   *	    jne    @C0290
			      C       ; It's OR r/m16,immed16
			      C       ; or   OR r/m32,immed32
 00007D23  E9 FFFFDB1F	      C         jmp     _or_rm_immed16_32
			      C     .ELSEIF (al == 010b)
 00007D28  EB 61	   *	    jmp    @C0292
 00007D2A		   *@C0290:
 00007D2A  3C 02	   *	    cmp    al, 002h
 00007D2C  75 07	   *	    jne    @C0293
			      C       ; It's ADC r/m16,imm16
			      C       ; or   ADC r/m32,imm32
 00007D2E  E9 FFFF927D	      C         jmp     _adc_rm_immed16_32
			      C     .ELSEIF (al == 011b)
 00007D33  EB 56	   *	    jmp    @C0295
 00007D35		   *@C0293:
 00007D35  3C 03	   *	    cmp    al, 003h
 00007D37  75 12	   *	    jne    @C0296
			      C       ; It's SBB r/m16,imm16
			      C       ; or   SBB r/m32,imm32
 00007D39  64: C7 05	      C         mov     dword ptr fs:xxx_text,' bbs'
	   00000819 R
	   20626273
 00007D44  E9 FFFFF187	      C         jmp     _xxx_rm_immed
			      C     .ELSEIF (al == 100b)
 00007D49  EB 40	   *	    jmp    @C0298
 00007D4B		   *@C0296:
 00007D4B  3C 04	   *	    cmp    al, 004h
 00007D4D  75 07	   *	    jne    @C0299
			      C       ; It's AND r/m16,imm16
			      C       ; or   AND r/m32,imm32
 00007D4F  E9 FFFF94A4	      C         jmp     _and_rm_immed16_32
			      C     .ELSEIF (al == 101b)
 00007D54  EB 35	   *	    jmp    @C029B
 00007D56		   *@C0299:
 00007D56  3C 05	   *	    cmp    al, 005h
 00007D58  75 12	   *	    jne    @C029C
			      C       ; It's SUB r/m16,imm16
			      C       ; or   SUB r/m32,imm32
 00007D5A  64: C7 05	      C         mov     dword ptr fs:xxx_text,' bus'
	   00000819 R
	   20627573
 00007D65  E9 FFFFF166	      C         jmp     _xxx_rm_immed
			      C     .ELSEIF (al == 110b)
 00007D6A  EB 1F	   *	    jmp    @C029E
 00007D6C		   *@C029C:
 00007D6C  3C 06	   *	    cmp    al, 006h
 00007D6E  75 12	   *	    jne    @C029F
			      C       ; It's XOR r/m16,imm16
			      C       ; or   XOR r/m32,imm32
 00007D70  64: C7 05	      C         mov     dword ptr fs:xxx_text,' rox'
	   00000819 R
	   20726F78
 00007D7B  E9 FFFFF150	      C         jmp     _xxx_rm_immed
			      C     .ELSEIF (al == 111b)
 00007D80  EB 09	   *	    jmp    @C02A1
 00007D82		   *@C029F:
 00007D82  3C 07	   *	    cmp    al, 007h
 00007D84  75 05	   *	    jne    @C02A2
			      C       ; It's CMP r/m16,imm16
			      C       ; or   CMP r/m32,imm32
 00007D86  E9 FFFF9D3C	      C         jmp     _cmp_rm_immed16_32
			      C     .ENDIF
 00007D8B		   *@C02A2:
 00007D8B		   *@C02A1:
 00007D8B		   *@C029E:
 00007D8B		   *@C029B:
 00007D8B		   *@C0298:
 00007D8B		   *@C0295:
 00007D8B		   *@C0292:
 00007D8B		   *@C028F:
 00007D8B  E9 00000568	      C     jmp    _unused
			      C 
 00007D90		      C   _check_reg_82:
			      C   ; Check the REG portion of the Mod/Reg/RM byte
 00007D90  0F B6 46 01	      C     movzx   eax,byte ptr ds:[esi+1]
 00007D94  C1 E8 03	      C     shr     eax,3
 00007D97  83 E0 07	      C     and     eax,111b
			      C ;    .IF (eax == 010b)
 00007D9A  E9 00000559	      C         jmp    _unused
			      C ;    .ENDIF
			      C 
 00007D9F		      C   _check_reg_83:
			      C   ; Check the REG portion of the Mod/Reg/RM byte
 00007D9F  0F B6 46 01	      C     movzx   eax,byte ptr ds:[esi+1]
 00007DA3  C1 E8 03	      C     shr     eax,3
 00007DA6  83 E0 07	      C     and     eax,111b
			      C     .IF (al == 000b)
 00007DA9  0A C0	   *	    or	al, al
 00007DAB  75 07	   *	    jne    @C02A4
			      C       ; It's ADD r/m16,imm8
			      C       ; or   ADD r/m32,imm8
 00007DAD  E9 FFFF935C	      C         jmp     _add_rm_16_32_with_immed8
			      C     .ELSEIF (al == 001b)
 00007DB2  EB 68	   *	    jmp    @C02A6
 00007DB4		   *@C02A4:
 00007DB4  3C 01	   *	    cmp    al, 001h
 00007DB6  75 07	   *	    jne    @C02A7
			      C       ; It's OR r/m16,immed8
			      C       ; or   OR r/m32,immed8
 00007DB8  E9 FFFFDA38	      C         jmp     _or_rm_16_32_with_immed8
			      C     .ELSEIF (al == 010b)
 00007DBD  EB 5D	   *	    jmp    @C02A9
 00007DBF		   *@C02A7:
 00007DBF  3C 02	   *	    cmp    al, 002h
 00007DC1  75 07	   *	    jne    @C02AA
			      C       ; It's ADC r/m16,immed8
			      C       ; or   ADC r/m32,immed8
 00007DC3  E9 FFFF9223	      C         jmp     _adc_rm_16_32_with_immed8
			      C     .ELSEIF (al == 011b)
 00007DC8  EB 52	   *	    jmp    @C02AC
 00007DCA		   *@C02AA:
 00007DCA  3C 03	   *	    cmp    al, 003h
 00007DCC  75 12	   *	    jne    @C02AD
			      C       ; It's SBB r/m16,immed8
			      C       ; or   SBB r/m32,immed8
 00007DCE  64: C7 05	      C         mov     dword ptr fs:xxx_text,' bbs'
	   00000819 R
	   20626273
 00007DD9  E9 FFFFF137	      C         jmp     _xxx_rm16_32_immed8
			      C     .ELSEIF (al == 100b)
 00007DDE  EB 3C	   *	    jmp    @C02AF
 00007DE0		   *@C02AD:
 00007DE0  3C 04	   *	    cmp    al, 004h
 00007DE2  75 07	   *	    jne    @C02B0
			      C       ; It's AND r/m16,immed8
			      C       ; or   AND r/m32,immed8
 00007DE4  E9 FFFF9436	      C         jmp     _and_rm_16_32_with_immed8
			      C     .ELSEIF (al == 101b)
 00007DE9  EB 31	   *	    jmp    @C02B2
 00007DEB		   *@C02B0:
 00007DEB  3C 05	   *	    cmp    al, 005h
 00007DED  75 12	   *	    jne    @C02B3
			      C       ; It's SUB r/m16,immed8
			      C       ; or   SUB r/m32,immed8
 00007DEF  64: C7 05	      C         mov     dword ptr fs:xxx_text,' bus'
	   00000819 R
	   20627573
 00007DFA  E9 FFFFF116	      C         jmp     _xxx_rm16_32_immed8
			      C     .ELSEIF (al == 110b)
 00007DFF  EB 1B	   *	    jmp    @C02B5
 00007E01		   *@C02B3:
 00007E01  3C 06	   *	    cmp    al, 006h
 00007E03  75 12	   *	    jne    @C02B6
			      C       ; It's XOR r/m16,immed8
			      C       ; or   XOR r/m32,immed8
 00007E05  64: C7 05	      C         mov     dword ptr fs:xxx_text,' rox'
	   00000819 R
	   20726F78
 00007E10  E9 FFFFF100	      C         jmp     _xxx_rm16_32_immed8
			      C     .ELSE
 00007E15  EB 05	   *	    jmp    @C02B8
 00007E17		   *@C02B6:
			      C       ; It's CMP r/m16,immed8
			      C       ; or   CMP r/m32,immed8
 00007E17  E9 FFFF9CD2	      C         jmp     _cmp_rm_16_32_with_immed8
			      C     .ENDIF
 00007E1C		   *@C02B8:
 00007E1C		   *@C02B5:
 00007E1C		   *@C02B2:
 00007E1C		   *@C02AF:
 00007E1C		   *@C02AC:
 00007E1C		   *@C02A9:
 00007E1C		   *@C02A6:
			      C 
 00007E1C		      C   _check_reg_8f:
			      C   ; Check the REG portion of the Mod/Reg/RM byte
 00007E1C  0F B6 46 01	      C     movzx   eax,byte ptr ds:[esi+1]
 00007E20  C1 E8 03	      C     shr     eax,3
 00007E23  83 E0 07	      C     and     eax,111b
			      C     .IF (al == 000b)
 00007E26  0A C0	   *	    or	al, al
 00007E28  75 05	   *	    jne    @C02B9
			      C       ; It's pop m16/32
 00007E2A  E9 FFFFDF0B	      C         jmp     _pop_mem
			      C     .ENDIF
 00007E2F		   *@C02B9:
 00007E2F  E9 000004C4	      C     jmp     _unused
			      C 
 00007E34		      C   _check_reg_c0:
			      C   ; Check the REG portion of the Mod/Reg/RM byte
 00007E34  0F B6 46 01	      C     movzx   eax,byte ptr ds:[esi+1]
 00007E38  C1 E8 03	      C     shr     eax,3
 00007E3B  83 E0 07	      C     and     eax,111b
			      C     .IF (al == 000b)
 00007E3E  0A C0	   *	    or	al, al
 00007E40  75 07	   *	    jne    @C02BB
			      C       ; It's ROL rm8,immed8
 00007E42  E9 FFFFE76F	      C         jmp     _rol_rm8_immed8
			      C     .ELSEIF (al == 001b)
 00007E47  EB 40	   *	    jmp    @C02BD
 00007E49		   *@C02BB:
 00007E49  3C 01	   *	    cmp    al, 001h
 00007E4B  75 07	   *	    jne    @C02BE
			      C       ; It's ROR rm8,immed8
 00007E4D  E9 FFFFE7A5	      C         jmp     _ror_rm8_immed8
			      C     .ELSEIF (al == 010b)
 00007E52  EB 35	   *	    jmp    @C02C0
 00007E54		   *@C02BE:
 00007E54  3C 02	   *	    cmp    al, 002h
 00007E56  75 07	   *	    jne    @C02C1
			      C       ; It's RCL rm8,immed8
 00007E58  E9 FFFFE7BE	      C         jmp     _rcl_rm8_immed8
			      C     .ELSEIF (al == 011b)
 00007E5D  EB 2A	   *	    jmp    @C02C3
 00007E5F		   *@C02C1:
 00007E5F  3C 03	   *	    cmp    al, 003h
 00007E61  75 07	   *	    jne    @C02C4
			      C       ; It's RCR rm8,immed8
 00007E63  E9 FFFFE7D7	      C         jmp     _rcr_rm8_immed8
			      C     .ELSEIF (al == 100b)
 00007E68  EB 1F	   *	    jmp    @C02C6
 00007E6A		   *@C02C4:
 00007E6A  3C 04	   *	    cmp    al, 004h
 00007E6C  75 07	   *	    jne    @C02C7
			      C       ; It's SHL rm8,immed8
 00007E6E  E9 FFFFF48A	      C         jmp     _shl_rm8_immed8
			      C     .ELSEIF (al == 101b)
 00007E73  EB 14	   *	    jmp    @C02C9
 00007E75		   *@C02C7:
 00007E75  3C 05	   *	    cmp    al, 005h
 00007E77  75 07	   *	    jne    @C02CA
			      C       ; It's SHR rm8,immed8
 00007E79  E9 FFFFF4C0	      C         jmp     _shr_rm8_immed8
			      C     .ELSEIF (al == 111b)
 00007E7E  EB 09	   *	    jmp    @C02CC
 00007E80		   *@C02CA:
 00007E80  3C 07	   *	    cmp    al, 007h
 00007E82  75 05	   *	    jne    @C02CD
			      C       ; It's SAR rm8,immed8
 00007E84  E9 FFFFF4D9	      C         jmp     _sar_rm8_immed8
			      C     .ENDIF
 00007E89		   *@C02CD:
 00007E89		   *@C02CC:
 00007E89		   *@C02C9:
 00007E89		   *@C02C6:
 00007E89		   *@C02C3:
 00007E89		   *@C02C0:
 00007E89		   *@C02BD:
 00007E89  E9 0000046A	      C     jmp     _unused
			      C 
 00007E8E		      C   _check_reg_c1:
			      C   ; Check the REG portion of the Mod/Reg/RM byte
 00007E8E  0F B6 46 01	      C     movzx   eax,byte ptr ds:[esi+1]
 00007E92  C1 E8 03	      C     shr     eax,3
 00007E95  83 E0 07	      C     and     eax,111b
			      C     .IF (al == 000b)
 00007E98  0A C0	   *	    or	al, al
 00007E9A  75 07	   *	    jne    @C02CF
			      C       ; It's ROL rm16,immed8
			      C       ; or   ROL rm32,immed8
 00007E9C  E9 FFFFE7C5	      C         jmp     _rol_immed8
			      C     .ELSEIF (al == 001b)
 00007EA1  EB 40	   *	    jmp    @C02D1
 00007EA3		   *@C02CF:
 00007EA3  3C 01	   *	    cmp    al, 001h
 00007EA5  75 07	   *	    jne    @C02D2
			      C       ; It's ROR rm16,immed8
			      C       ; or   ROR rm32,immed8
 00007EA7  E9 FFFFE7F5	      C         jmp     _ror_immed8
			      C     .ELSEIF (al == 010b)
 00007EAC  EB 35	   *	    jmp    @C02D4
 00007EAE		   *@C02D2:
 00007EAE  3C 02	   *	    cmp    al, 002h
 00007EB0  75 07	   *	    jne    @C02D5
			      C       ; It's RCL rm16,immed8
			      C       ; or   RCL rm32,immed8
 00007EB2  E9 FFFFE80E	      C         jmp     _rcl_immed8
			      C     .ELSEIF (al == 011b)
 00007EB7  EB 2A	   *	    jmp    @C02D7
 00007EB9		   *@C02D5:
 00007EB9  3C 03	   *	    cmp    al, 003h
 00007EBB  75 07	   *	    jne    @C02D8
			      C       ; It's RCR rm16,immed8
			      C       ; or   RCR rm32,immed8
 00007EBD  E9 FFFFE827	      C         jmp     _rcr_immed8
			      C     .ELSEIF (al == 100b)
 00007EC2  EB 1F	   *	    jmp    @C02DA
 00007EC4		   *@C02D8:
 00007EC4  3C 04	   *	    cmp    al, 004h
 00007EC6  75 07	   *	    jne    @C02DB
			      C       ; It's SHL rm16,immed8
			      C       ; or   SHL rm32,immed8
 00007EC8  E9 FFFFF4B9	      C         jmp     _shl_immed8
			      C     .ELSEIF (al == 101b)
 00007ECD  EB 14	   *	    jmp    @C02DD
 00007ECF		   *@C02DB:
 00007ECF  3C 05	   *	    cmp    al, 005h
 00007ED1  75 07	   *	    jne    @C02DE
			      C       ; It's SHR rm16,immed8
			      C       ; or   SHR rm32,immed8
 00007ED3  E9 FFFFF4E9	      C         jmp     _shr_immed8
			      C     .ELSEIF (al == 111b)
 00007ED8  EB 09	   *	    jmp    @C02E0
 00007EDA		   *@C02DE:
 00007EDA  3C 07	   *	    cmp    al, 007h
 00007EDC  75 05	   *	    jne    @C02E1
			      C       ; It's SAR rm16,immed8
			      C       ; or   SAR rm32,immed8
 00007EDE  E9 FFFFF502	      C         jmp     _sar_immed8
			      C     .ENDIF
 00007EE3		   *@C02E1:
 00007EE3		   *@C02E0:
 00007EE3		   *@C02DD:
 00007EE3		   *@C02DA:
 00007EE3		   *@C02D7:
 00007EE3		   *@C02D4:
 00007EE3		   *@C02D1:
 00007EE3  E9 00000410	      C     jmp     _unused
			      C 
 00007EE8		      C   _check_reg_c6:
			      C   ; Check the REG portion of the Mod/Reg/RM byte
 00007EE8  0F B6 46 01	      C     movzx   eax,byte ptr ds:[esi+1]
 00007EEC  C1 E8 03	      C     shr     eax,3
 00007EEF  83 E0 07	      C     and     eax,111b
			      C     .IF (al == 000b)
 00007EF2  0A C0	   *	    or	al, al
 00007EF4  75 05	   *	    jne    @C02E3
			      C       ; It's MOV rm8,immed8
 00007EF6  E9 FFFFD2EB	      C         jmp     _mov_rm_immed8
			      C     .ENDIF
 00007EFB		   *@C02E3:
 00007EFB  E9 000003F8	      C     jmp     _unused
			      C 
 00007F00		      C   _check_reg_c7:
			      C   ; Check the REG portion of the Mod/Reg/RM byte
 00007F00  0F B6 46 01	      C     movzx   eax,byte ptr ds:[esi+1]
 00007F04  C1 E8 03	      C     shr     eax,3
 00007F07  83 E0 07	      C     and     eax,111b
			      C     .IF (al == 000b)
 00007F0A  0A C0	   *	    or	al, al
 00007F0C  75 05	   *	    jne    @C02E5
			      C       ; It's MOV rm16/32,immed16/32
 00007F0E  E9 FFFFD31E	      C         jmp     _mov_rm_immed16_32
			      C     .ENDIF
 00007F13		   *@C02E5:
 00007F13  E9 000003E0	      C     jmp     _unused
			      C 
 00007F18		      C   _check_reg_d0:
			      C   ; Check the REG portion of the Mod/Reg/RM byte
 00007F18  0F B6 46 01	      C     movzx   eax,byte ptr ds:[esi+1]
 00007F1C  C1 E8 03	      C     shr     eax,3
 00007F1F  83 E0 07	      C     and     eax,111b
			      C     .IF (al == 000b)
 00007F22  0A C0	   *	    or	al, al
 00007F24  75 07	   *	    jne    @C02E7
			      C       ; It's ROL rm8,1
 00007F26  E9 FFFFE7E5	      C         jmp     _rol_rm8_1
			      C     .ELSEIF (al == 001b)
 00007F2B  EB 40	   *	    jmp    @C02E9
 00007F2D		   *@C02E7:
 00007F2D  3C 01	   *	    cmp    al, 001h
 00007F2F  75 07	   *	    jne    @C02EA
			      C       ; It's ROR rm8,1
 00007F31  E9 FFFFE816	      C         jmp     _ror_rm8_1
			      C     .ELSEIF (al == 010b)
 00007F36  EB 35	   *	    jmp    @C02EC
 00007F38		   *@C02EA:
 00007F38  3C 02	   *	    cmp    al, 002h
 00007F3A  75 07	   *	    jne    @C02ED
			      C       ; It's RCL rm8,1
 00007F3C  E9 FFFFE82F	      C         jmp     _rcl_rm8_1
			      C     .ELSEIF (al == 011b)
 00007F41  EB 2A	   *	    jmp    @C02EF
 00007F43		   *@C02ED:
 00007F43  3C 03	   *	    cmp    al, 003h
 00007F45  75 07	   *	    jne    @C02F0
			      C       ; It's RCR rm8,1
 00007F47  E9 FFFFE848	      C         jmp     _rcr_rm8_1
			      C     .ELSEIF (al == 100b)
 00007F4C  EB 1F	   *	    jmp    @C02F2
 00007F4E		   *@C02F0:
 00007F4E  3C 04	   *	    cmp    al, 004h
 00007F50  75 07	   *	    jne    @C02F3
			      C       ; It's SHL rm8,1
 00007F52  E9 FFFFF4B2	      C         jmp     _shl_rm8_1
			      C     .ELSEIF (al == 101b)
 00007F57  EB 14	   *	    jmp    @C02F5
 00007F59		   *@C02F3:
 00007F59  3C 05	   *	    cmp    al, 005h
 00007F5B  75 07	   *	    jne    @C02F6
			      C       ; It's SHR rm8,1
 00007F5D  E9 FFFFF4E3	      C         jmp     _shr_rm8_1
			      C     .ELSEIF (al == 111b)
 00007F62  EB 09	   *	    jmp    @C02F8
 00007F64		   *@C02F6:
 00007F64  3C 07	   *	    cmp    al, 007h
 00007F66  75 05	   *	    jne    @C02F9
			      C       ; It's SAR rm8,1
 00007F68  E9 FFFFF4FC	      C         jmp     _sar_rm8_1
			      C     .ENDIF
 00007F6D		   *@C02F9:
 00007F6D		   *@C02F8:
 00007F6D		   *@C02F5:
 00007F6D		   *@C02F2:
 00007F6D		   *@C02EF:
 00007F6D		   *@C02EC:
 00007F6D		   *@C02E9:
 00007F6D  E9 00000386	      C     jmp     _unused
			      C 
 00007F72		      C   _check_reg_d1:
			      C   ; Check the REG portion of the Mod/Reg/RM byte
 00007F72  0F B6 46 01	      C     movzx   eax,byte ptr ds:[esi+1]
 00007F76  C1 E8 03	      C     shr     eax,3
 00007F79  83 E0 07	      C     and     eax,111b
			      C     .IF (al == 000b)
 00007F7C  0A C0	   *	    or	al, al
 00007F7E  75 07	   *	    jne    @C02FB
			      C       ; It's ROL rm16,1
			      C       ; or   ROL rm32,1
 00007F80  E9 FFFFE836	      C         jmp     _rol_rm_1
			      C     .ELSEIF (al == 001b)
 00007F85  EB 40	   *	    jmp    @C02FD
 00007F87		   *@C02FB:
 00007F87  3C 01	   *	    cmp    al, 001h
 00007F89  75 07	   *	    jne    @C02FE
			      C       ; It's ROR rm16,1
			      C       ; or   ROR rm32,1
 00007F8B  E9 FFFFE861	      C         jmp     _ror_rm_1
			      C     .ELSEIF (al == 010b)
 00007F90  EB 35	   *	    jmp    @C0300
 00007F92		   *@C02FE:
 00007F92  3C 02	   *	    cmp    al, 002h
 00007F94  75 07	   *	    jne    @C0301
			      C       ; It's RCL rm16,1
			      C       ; or   RCL rm32,1
 00007F96  E9 FFFFE87A	      C         jmp     _rcl_rm_1
			      C     .ELSEIF (al == 011b)
 00007F9B  EB 2A	   *	    jmp    @C0303
 00007F9D		   *@C0301:
 00007F9D  3C 03	   *	    cmp    al, 003h
 00007F9F  75 07	   *	    jne    @C0304
			      C       ; It's RCR rm16,1
			      C       ; or   RCR rm32,1
 00007FA1  E9 FFFFE893	      C         jmp     _rcr_rm_1
			      C     .ELSEIF (al == 100b)
 00007FA6  EB 1F	   *	    jmp    @C0306
 00007FA8		   *@C0304:
 00007FA8  3C 04	   *	    cmp    al, 004h
 00007FAA  75 07	   *	    jne    @C0307
			      C       ; It's SHL rm16,1
			      C       ; or   SHL rm32,1
 00007FAC  E9 FFFFF4DC	      C         jmp     _shl_rm_1
			      C     .ELSEIF (al == 101b)
 00007FB1  EB 14	   *	    jmp    @C0309
 00007FB3		   *@C0307:
 00007FB3  3C 05	   *	    cmp    al, 005h
 00007FB5  75 07	   *	    jne    @C030A
			      C       ; It's SHR rm16,1
			      C       ; or   SHR rm32,1
 00007FB7  E9 FFFFF507	      C         jmp     _shr_rm_1
			      C     .ELSEIF (al == 111b)
 00007FBC  EB 09	   *	    jmp    @C030C
 00007FBE		   *@C030A:
 00007FBE  3C 07	   *	    cmp    al, 007h
 00007FC0  75 05	   *	    jne    @C030D
			      C       ; It's SAR rm16,1
			      C       ; or   SAR rm32,1
 00007FC2  E9 FFFFF520	      C         jmp     _sar_rm_1
			      C     .ENDIF
 00007FC7		   *@C030D:
 00007FC7		   *@C030C:
 00007FC7		   *@C0309:
 00007FC7		   *@C0306:
 00007FC7		   *@C0303:
 00007FC7		   *@C0300:
 00007FC7		   *@C02FD:
 00007FC7  E9 0000032C	      C     jmp     _unused
			      C 
 00007FCC		      C   _check_reg_d2:
			      C   ; Check the REG portion of the Mod/Reg/RM byte
 00007FCC  0F B6 46 01	      C     movzx   eax,byte ptr ds:[esi+1]
 00007FD0  C1 E8 03	      C     shr     eax,3
 00007FD3  83 E0 07	      C     and     eax,111b
			      C     .IF (al == 000b)
 00007FD6  0A C0	   *	    or	al, al
 00007FD8  75 07	   *	    jne    @C030F
			      C       ; It's ROL rm8,cl
 00007FDA  E9 FFFFE87E	      C         jmp     _rol_rm8_cl
			      C     .ELSEIF (al == 001b)
 00007FDF  EB 40	   *	    jmp    @C0311
 00007FE1		   *@C030F:
 00007FE1  3C 01	   *	    cmp    al, 001h
 00007FE3  75 07	   *	    jne    @C0312
			      C       ; It's ROR rm8,cl
 00007FE5  E9 FFFFE8AF	      C         jmp     _ror_rm8_cl
			      C     .ELSEIF (al == 010b)
 00007FEA  EB 35	   *	    jmp    @C0314
 00007FEC		   *@C0312:
 00007FEC  3C 02	   *	    cmp    al, 002h
 00007FEE  75 07	   *	    jne    @C0315
			      C       ; It's RCL rm8,cl
 00007FF0  E9 FFFFE8C8	      C         jmp     _rcl_rm8_cl
			      C     .ELSEIF (al == 011b)
 00007FF5  EB 2A	   *	    jmp    @C0317
 00007FF7		   *@C0315:
 00007FF7  3C 03	   *	    cmp    al, 003h
 00007FF9  75 07	   *	    jne    @C0318
			      C       ; It's RCR rm8,cl
 00007FFB  E9 FFFFE8E1	      C         jmp     _rcr_rm8_cl
			      C     .ELSEIF (al == 100b)
 00008000  EB 1F	   *	    jmp    @C031A
 00008002		   *@C0318:
 00008002  3C 04	   *	    cmp    al, 004h
 00008004  75 07	   *	    jne    @C031B
			      C       ; It's SHL rm8,cl
 00008006  E9 FFFFF500	      C         jmp     _shl_rm8_cl
			      C     .ELSEIF (al == 101b)
 0000800B  EB 14	   *	    jmp    @C031D
 0000800D		   *@C031B:
 0000800D  3C 05	   *	    cmp    al, 005h
 0000800F  75 07	   *	    jne    @C031E
			      C       ; It's SHR rm8,cl
 00008011  E9 FFFFF531	      C         jmp     _shr_rm8_cl
			      C     .ELSEIF (al == 111b)
 00008016  EB 09	   *	    jmp    @C0320
 00008018		   *@C031E:
 00008018  3C 07	   *	    cmp    al, 007h
 0000801A  75 05	   *	    jne    @C0321
			      C       ; It's SAR rm8,cl
 0000801C  E9 FFFFF54A	      C         jmp     _sar_rm8_cl
			      C     .ENDIF
 00008021		   *@C0321:
 00008021		   *@C0320:
 00008021		   *@C031D:
 00008021		   *@C031A:
 00008021		   *@C0317:
 00008021		   *@C0314:
 00008021		   *@C0311:
 00008021  E9 000002D2	      C     jmp     _unused
			      C 
 00008026		      C   _check_reg_d3:
			      C   ; Check the REG portion of the Mod/Reg/RM byte
 00008026  0F B6 46 01	      C     movzx   eax,byte ptr ds:[esi+1]
 0000802A  C1 E8 03	      C     shr     eax,3
 0000802D  83 E0 07	      C     and     eax,111b
			      C     .IF (al == 000b)
 00008030  0A C0	   *	    or	al, al
 00008032  75 07	   *	    jne    @C0323
			      C       ; It's ROL rm16,cl
			      C       ; or   ROL rm32,cl
 00008034  E9 FFFFE8CF	      C         jmp     _rol_rm_cl
			      C     .ELSEIF (al == 001b)
 00008039  EB 40	   *	    jmp    @C0325
 0000803B		   *@C0323:
 0000803B  3C 01	   *	    cmp    al, 001h
 0000803D  75 07	   *	    jne    @C0326
			      C       ; It's ROR rm16,cl
			      C       ; or   ROR rm32,cl
 0000803F  E9 FFFFE8FA	      C         jmp     _ror_rm_cl
			      C     .ELSEIF (al == 010b)
 00008044  EB 35	   *	    jmp    @C0328
 00008046		   *@C0326:
 00008046  3C 02	   *	    cmp    al, 002h
 00008048  75 07	   *	    jne    @C0329
			      C       ; It's RCL rm16,cl
			      C       ; or   RCL rm32,cl
 0000804A  E9 FFFFE913	      C         jmp     _rcl_rm_cl
			      C     .ELSEIF (al == 011b)
 0000804F  EB 2A	   *	    jmp    @C032B
 00008051		   *@C0329:
 00008051  3C 03	   *	    cmp    al, 003h
 00008053  75 07	   *	    jne    @C032C
			      C       ; It's RCR rm16,cl
			      C       ; or   RCR rm32,cl
 00008055  E9 FFFFE92C	      C         jmp     _rcr_rm_cl
			      C     .ELSEIF (al == 100b)
 0000805A  EB 1F	   *	    jmp    @C032E
 0000805C		   *@C032C:
 0000805C  3C 04	   *	    cmp    al, 004h
 0000805E  75 07	   *	    jne    @C032F
			      C       ; It's SHL rm16,cl
			      C       ; or   SHL rm32,cl
 00008060  E9 FFFFF52A	      C         jmp     _shl_rm_cl
			      C     .ELSEIF (al == 101b)
 00008065  EB 14	   *	    jmp    @C0331
 00008067		   *@C032F:
 00008067  3C 05	   *	    cmp    al, 005h
 00008069  75 07	   *	    jne    @C0332
			      C       ; It's SHR rm16,cl
			      C       ; or   SHR rm32,cl
 0000806B  E9 FFFFF555	      C         jmp     _shr_rm_cl
			      C     .ELSEIF (al == 111b)
 00008070  EB 09	   *	    jmp    @C0334
 00008072		   *@C0332:
 00008072  3C 07	   *	    cmp    al, 007h
 00008074  75 05	   *	    jne    @C0335
			      C       ; It's SAR rm16,cl
			      C       ; or   SAR rm32,cl
 00008076  E9 FFFFF56E	      C         jmp     _sar_rm_cl
			      C     .ENDIF
 0000807B		   *@C0335:
 0000807B		   *@C0334:
 0000807B		   *@C0331:
 0000807B		   *@C032E:
 0000807B		   *@C032B:
 0000807B		   *@C0328:
 0000807B		   *@C0325:
 0000807B  E9 00000278	      C     jmp     _unused
			      C 
 00008080		      C   _check_reg_f6:
			      C   ; Check the REG portion of the Mod/Reg/RM byte
 00008080  0F B6 46 01	      C     movzx   eax,byte ptr ds:[esi+1]
 00008084  C1 E8 03	      C     shr     eax,3
 00008087  83 E0 07	      C     and     eax,111b
			      C     .IF (al == 000b)
 0000808A  0A C0	   *	    or	al, al
 0000808C  75 07	   *	    jne    @C0337
			      C       ; It's TEST r/m8,immed8
 0000808E  E9 FFFFF8E5	      C         jmp     _test_rm_imm8
			      C     .ELSEIF (al == 010b)
 00008093  EB 40	   *	    jmp    @C0339
 00008095		   *@C0337:
 00008095  3C 02	   *	    cmp    al, 002h
 00008097  75 07	   *	    jne    @C033A
			      C       ; It's NOT r/m8
 00008099  E9 FFFFD64F	      C         jmp     _not_byte
			      C     .ELSEIF (al == 011b)
 0000809E  EB 35	   *	    jmp    @C033C
 000080A0		   *@C033A:
 000080A0  3C 03	   *	    cmp    al, 003h
 000080A2  75 07	   *	    jne    @C033D
			      C       ; It's NEG r/m8
 000080A4  E9 FFFFD5F6	      C         jmp     _neg_byte
			      C     .ELSEIF (al == 100b)
 000080A9  EB 2A	   *	    jmp    @C033F
 000080AB		   *@C033D:
 000080AB  3C 04	   *	    cmp    al, 004h
 000080AD  75 07	   *	    jne    @C0340
			      C       ; It's MUL r/m8
 000080AF  E9 FFFFD59D	      C         jmp     _mul_byte
			      C     .ELSEIF (al == 101b)
 000080B4  EB 1F	   *	    jmp    @C0342
 000080B6		   *@C0340:
 000080B6  3C 05	   *	    cmp    al, 005h
 000080B8  75 07	   *	    jne    @C0343
			      C       ; It's IMUL r/m8
 000080BA  E9 FFFFBC8C	      C         jmp     _imul_byte
			      C     .ELSEIF (al == 110b)
 000080BF  EB 14	   *	    jmp    @C0345
 000080C1		   *@C0343:
 000080C1  3C 06	   *	    cmp    al, 006h
 000080C3  75 07	   *	    jne    @C0346
			      C       ; It's DIV r/m8
 000080C5  E9 FFFF9D04	      C         jmp     _div_byte
			      C     .ELSEIF (al == 111b)
 000080CA  EB 09	   *	    jmp    @C0348
 000080CC		   *@C0346:
 000080CC  3C 07	   *	    cmp    al, 007h
 000080CE  75 05	   *	    jne    @C0349
			      C       ; It's IDIV r/m8
 000080D0  E9 FFFFBC0E	      C         jmp     _idiv_byte
			      C     .ENDIF
 000080D5		   *@C0349:
 000080D5		   *@C0348:
 000080D5		   *@C0345:
 000080D5		   *@C0342:
 000080D5		   *@C033F:
 000080D5		   *@C033C:
 000080D5		   *@C0339:
 000080D5  E9 0000021E	      C     jmp    _unused
			      C 
 000080DA		      C   _check_reg_f7:
			      C   ; Check the REG portion of the Mod/Reg/RM byte
 000080DA  0F B6 46 01	      C     movzx   eax,byte ptr ds:[esi+1]
 000080DE  C1 E8 03	      C     shr     eax,3
 000080E1  83 E0 07	      C     and     eax,111b
			      C     .IF (al == 000b)
 000080E4  0A C0	   *	    or	al, al
 000080E6  75 07	   *	    jne    @C034B
			      C       ; It's TEST r/m16,immed16
			      C       ; or   TEST r/m32,immed32
 000080E8  E9 FFFFF8D6	      C         jmp     _test_rm_imm16_32
			      C     .ELSEIF (al == 011b)
 000080ED  EB 40	   *	    jmp    @C034D
 000080EF		   *@C034B:
 000080EF  3C 03	   *	    cmp    al, 003h
 000080F1  75 07	   *	    jne    @C034E
			      C       ; It's NEG r/m16
			      C       ; or   NEG r/m32
 000080F3  E9 FFFFD5CE	      C         jmp     _neg
			      C     .ELSEIF (al == 010b)
 000080F8  EB 35	   *	    jmp    @C0350
 000080FA		   *@C034E:
 000080FA  3C 02	   *	    cmp    al, 002h
 000080FC  75 07	   *	    jne    @C0351
			      C       ; It's NOT r/m16
			      C       ; or   NOT r/m32
 000080FE  E9 FFFFD611	      C         jmp     _not
			      C     .ELSEIF (al == 100b)
 00008103  EB 2A	   *	    jmp    @C0353
 00008105		   *@C0351:
 00008105  3C 04	   *	    cmp    al, 004h
 00008107  75 07	   *	    jne    @C0354
			      C       ; It's MUL r/m16
			      C       ; or   MUL r/m32
 00008109  E9 FFFFD56A	      C         jmp     _mul
			      C     .ELSEIF (al == 101b)
 0000810E  EB 1F	   *	    jmp    @C0356
 00008110		   *@C0354:
 00008110  3C 05	   *	    cmp    al, 005h
 00008112  75 07	   *	    jne    @C0357
			      C       ; It's IMUL  r/m16
			      C       ; or   IMUL  r/m32
 00008114  E9 FFFFBC56	      C         jmp     _imul
			      C     .ELSEIF (al== 110b)
 00008119  EB 14	   *	    jmp    @C0359
 0000811B		   *@C0357:
 0000811B  3C 06	   *	    cmp    al, 006h
 0000811D  75 07	   *	    jne    @C035A
			      C       ; It's DIV r/m16
			      C       ; or   DIV r/m32
 0000811F  E9 FFFF9CE1	      C         jmp     _div
			      C     .ELSEIF (al == 111b)
 00008124  EB 09	   *	    jmp    @C035C
 00008126		   *@C035A:
 00008126  3C 07	   *	    cmp    al, 007h
 00008128  75 05	   *	    jne    @C035D
			      C       ; It's IDIV r/m16
			      C       ; or   IDIV r/m32
 0000812A  E9 FFFFBBEB	      C         jmp     _idiv
			      C     .ENDIF
 0000812F		   *@C035D:
 0000812F		   *@C035C:
 0000812F		   *@C0359:
 0000812F		   *@C0356:
 0000812F		   *@C0353:
 0000812F		   *@C0350:
 0000812F		   *@C034D:
 0000812F  E9 000001C4	      C     jmp    _unused
			      C 
 00008134		      C   _check_reg_fe:
			      C   ; Check the REG portion of the Mod/Reg/RM byte
 00008134  0F B6 46 01	      C     movzx   eax,byte ptr ds:[esi+1]
 00008138  C1 E8 03	      C     shr     eax,3
 0000813B  83 E0 07	      C     and     eax,111b
			      C     .IF (al== 000b)
 0000813E  0A C0	   *	    or	al, al
 00008140  75 07	   *	    jne    @C035F
			      C       ; It's INC r/m8
 00008142  E9 FFFFBEB6	      C         jmp     _inc_rm8
			      C     .ELSEIF (al== 001b)
 00008147  EB 09	   *	    jmp    @C0361
 00008149		   *@C035F:
 00008149  3C 01	   *	    cmp    al, 001h
 0000814B  75 05	   *	    jne    @C0362
			      C       ; It's DEC r/m8
 0000814D  E9 FFFF9C14	      C         jmp     _dec_rm8
			      C     .ENDIF
 00008152		   *@C0362:
 00008152		   *@C0361:
 00008152  E9 000001A1	      C     jmp    _unused
			      C 
 00008157		      C   _check_reg_ff:
			      C   ; Check the REG portion of the Mod/Reg/RM byte
 00008157  0F B6 46 01	      C     movzx   eax,byte ptr ds:[esi+1]
 0000815B  C1 E8 03	      C     shr     eax,3
 0000815E  83 E0 07	      C     and     eax,111b
			      C     .IF (al == 000b)
 00008161  0A C0	   *	    or	al, al
 00008163  75 07	   *	    jne    @C0364
			      C       ; It's INC r/m16
			      C       ; or   INC r/m32
 00008165  E9 FFFFBEBA	      C         jmp     _inc_rm16_32
			      C     .ELSEIF (al == 001b)
 0000816A  EB 40	   *	    jmp    @C0366
 0000816C		   *@C0364:
 0000816C  3C 01	   *	    cmp    al, 001h
 0000816E  75 07	   *	    jne    @C0367
			      C       ; It's DEC r/m16
			      C       ; or   DEC r/m32
 00008170  E9 FFFF9C28	      C         jmp     _dec_rm16_32
			      C     .ELSEIF (al == 010b)
 00008175  EB 35	   *	    jmp    @C0369
 00008177		   *@C0367:
 00008177  3C 02	   *	    cmp    al, 002h
 00008179  75 07	   *	    jne    @C036A
			      C       ; It's CALL r/m16 absolute
			      C       ; or   CALL r/m32 absolute
 0000817B  E9 FFFF9389	      C         jmp     _call_rm
			      C     .ELSEIF (al == 011b)
 00008180  EB 2A	   *	    jmp    @C036C
 00008182		   *@C036A:
 00008182  3C 03	   *	    cmp    al, 003h
 00008184  75 07	   *	    jne    @C036D
			      C       ; It's CALL m16&16
			      C       ; or   CALL m16&32
 00008186  E9 FFFF93AA	      C         jmp     _call_far_rm
			      C     .ELSEIF (al == 100b)
 0000818B  EB 1F	   *	    jmp    @C036F
 0000818D		   *@C036D:
 0000818D  3C 04	   *	    cmp    al, 004h
 0000818F  75 07	   *	    jne    @C0370
			      C       ; It's JMP m16&16
			      C       ; or   JMP m16&32
 00008191  E9 FFFFC18F	      C         jmp     _jmp_near_rm
			      C     .ELSEIF (al == 101b)
 00008196  EB 14	   *	    jmp    @C0372
 00008198		   *@C0370:
 00008198  3C 05	   *	    cmp    al, 005h
 0000819A  75 07	   *	    jne    @C0373
			      C       ; It's JMP FAR m16&16
			      C       ; or   JMP FAR m16&32
 0000819C  E9 FFFFC1F0	      C         jmp     _jmp_far_rm
			      C     .ELSEIF ( al == 110b)
 000081A1  EB 09	   *	    jmp    @C0375
 000081A3		   *@C0373:
 000081A3  3C 06	   *	    cmp    al, 006h
 000081A5  75 05	   *	    jne    @C0376
			      C       ; It's PUSH r/m16
			      C       ; or   PUSH r/m32
 000081A7  E9 FFFFE208	      C         jmp     _push_rm
			      C     .ENDIF
 000081AC		   *@C0376:
 000081AC		   *@C0375:
 000081AC		   *@C0372:
 000081AC		   *@C036F:
 000081AC		   *@C036C:
 000081AC		   *@C0369:
 000081AC		   *@C0366:
 000081AC  E9 00000147	      C     jmp    _unused
			      C 
 000081B1		      C   _check_reg_0f00:
 000081B1  0F B6 46 02	      C     movzx   eax,byte ptr ds:[esi+2]
 000081B5  C1 E8 03	      C     shr     eax,3
 000081B8  83 E0 07	      C     and     eax,111b
			      C     .IF (al == 000b)
 000081BB  0A C0	   *	    or	al, al
 000081BD  75 07	   *	    jne    @C0378
			      C       ; It's SLDT
 000081BF  E9 FFFFF110	      C         jmp     _sldt
			      C     .ELSEIF (al == 001b)
 000081C4  EB 35	   *	    jmp    @C037A
 000081C6		   *@C0378:
 000081C6  3C 01	   *	    cmp    al, 001h
 000081C8  75 07	   *	    jne    @C037B
			      C       ; It's STR r/m16
 000081CA  E9 FFFFF5E6	      C         jmp _str
			      C     .ELSEIF (al == 010b)
 000081CF  EB 2A	   *	    jmp    @C037D
 000081D1		   *@C037B:
 000081D1  3C 02	   *	    cmp    al, 002h
 000081D3  75 07	   *	    jne    @C037E
			      C       ; It's LLDT
 000081D5  E9 FFFFC9CA	      C         jmp     _lldt
			      C     .ELSEIF (al == 011b)
 000081DA  EB 1F	   *	    jmp    @C0380
 000081DC		   *@C037E:
 000081DC  3C 03	   *	    cmp    al, 003h
 000081DE  75 07	   *	    jne    @C0381
			      C       ; It's LTR
 000081E0  E9 FFFFC9F2	      C         jmp     _ltr
			      C     .ELSEIF (al == 100b)
 000081E5  EB 14	   *	    jmp    @C0383
 000081E7		   *@C0381:
 000081E7  3C 04	   *	    cmp    al, 004h
 000081E9  75 07	   *	    jne    @C0384
			      C       ; It's VERR r/m16
 000081EB  E9 FFFFF86A	      C         jmp     _verr
			      C     .ELSEIF (al == 101b)
 000081F0  EB 09	   *	    jmp    @C0386
 000081F2		   *@C0384:
 000081F2  3C 05	   *	    cmp    al, 005h
 000081F4  75 05	   *	    jne    @C0387
			      C       ; It's VERW r/m16
 000081F6  E9 FFFFF898	      C         jmp     _verw
			      C     .ENDIF
 000081FB		   *@C0387:
 000081FB		   *@C0386:
 000081FB		   *@C0383:
 000081FB		   *@C0380:
 000081FB		   *@C037D:
 000081FB		   *@C037A:
 000081FB  E9 000000F8	      C     jmp     _unused
			      C 
 00008200		      C   _check_reg_0f01:
 00008200  0F B6 46 02	      C     movzx   eax,byte ptr ds:[esi+2]
 00008204  C1 E8 03	      C     shr     eax,3
 00008207  83 E0 07	      C     and     eax,111b
			      C     .IF (al == 000b)
 0000820A  0A C0	   *	    or	al, al
 0000820C  75 07	   *	    jne    @C0389
			      C       ; It's SGDT
 0000820E  E9 FFFFF06F	      C         jmp     _sgdt_label
			      C     .ELSEIF (al == 001b)
 00008213  EB 40	   *	    jmp    @C038B
 00008215		   *@C0389:
 00008215  3C 01	   *	    cmp    al, 001h
 00008217  75 07	   *	    jne    @C038C
			      C       ; It's SIDT
 00008219  E9 FFFFF08D	      C         jmp     _sidt_label
			      C     .ELSEIF (al == 010b)
 0000821E  EB 35	   *	    jmp    @C038E
 00008220		   *@C038C:
 00008220  3C 02	   *	    cmp    al, 002h
 00008222  75 07	   *	    jne    @C038F
			      C       ; It's LGDT
 00008224  E9 FFFFC91C	      C         jmp     _lgdt
			      C     .ELSEIF (al == 011b)
 00008229  EB 2A	   *	    jmp    @C0391
 0000822B		   *@C038F:
 0000822B  3C 03	   *	    cmp    al, 003h
 0000822D  75 07	   *	    jne    @C0392
			      C       ; It's LIDT
 0000822F  E9 FFFFC94A	      C         jmp     _lidt
			      C     .ELSEIF (al == 100b)
 00008234  EB 1F	   *	    jmp    @C0394
 00008236		   *@C0392:
 00008236  3C 04	   *	    cmp    al, 004h
 00008238  75 07	   *	    jne    @C0395
			      C       ; It's SMSW r/m16
			      C       ; or   SMSR r32/m16
 0000823A  E9 FFFFF4CE	      C         jmp     _smsw
			      C     .ELSEIF (al == 110b)
 0000823F  EB 14	   *	    jmp    @C0397
 00008241		   *@C0395:
 00008241  3C 06	   *	    cmp    al, 006h
 00008243  75 07	   *	    jne    @C0398
			      C       ; It's LMSW mem
 00008245  E9 FFFFC9C6	      C         jmp     _lmsw
			      C     .ELSEIF (al == 111b)
 0000824A  EB 09	   *	    jmp    @C039A
 0000824C		   *@C0398:
 0000824C  3C 07	   *	    cmp    al, 007h
 0000824E  75 05	   *	    jne    @C039B
			      C       ; It's INVLPG mem
 00008250  E9 FFFFBF31	      C         jmp     _invlpg
			      C     .ENDIF
 00008255		   *@C039B:
 00008255		   *@C039A:
 00008255		   *@C0397:
 00008255		   *@C0394:
 00008255		   *@C0391:
 00008255		   *@C038E:
 00008255		   *@C038B:
 00008255  E9 0000009E	      C     jmp     _unused
			      C 
 0000825A		      C   _check_reg_0fba:
			      C   ; Check the REG portion of the Mod/Reg/RM byte
 0000825A  0F B6 46 02	      C     movzx   eax,byte ptr ds:[esi+2]
 0000825E  C1 E8 03	      C     shr     eax,3
 00008261  83 E0 07	      C     and     eax,111b
			      C     .IF (al == 100b)
 00008264  3C 04	   *	    cmp    al, 004h
 00008266  75 07	   *	    jne    @C039D
			      C       ; It's BT r/m16,imm8
			      C       ; or   BT r/m32,imm8
 00008268  E9 FFFF9135	      C         jmp     _bt_immed8
			      C     .ELSEIF (al == 101b)
 0000826D  EB 1F	   *	    jmp    @C039F
 0000826F		   *@C039D:
 0000826F  3C 05	   *	    cmp    al, 005h
 00008271  75 07	   *	    jne    @C03A0
			      C       ; It's BTS r/m16,imm8
			      C       ; or   BTS r/m32,imm8
 00008273  E9 FFFF922D	      C         jmp     _bts_immed8
			      C     .ELSEIF (al == 110b)
 00008278  EB 14	   *	    jmp    @C03A2
 0000827A		   *@C03A0:
 0000827A  3C 06	   *	    cmp    al, 006h
 0000827C  75 07	   *	    jne    @C03A3
			      C       ; It's BTR r/m16,imm8
			      C       ; or   BTR r/m32,imm8
 0000827E  E9 FFFF91CD	      C         jmp     _btr_immed8
			      C     .ELSEIF (al == 111b)
 00008283  EB 09	   *	    jmp    @C03A5
 00008285		   *@C03A3:
 00008285  3C 07	   *	    cmp    al, 007h
 00008287  75 05	   *	    jne    @C03A6
			      C       ; It's BTC r/m16,imm8
			      C       ; or   BTC r/m32,imm8
 00008289  E9 FFFF916B	      C         jmp     _btc_immed8
			      C     .ENDIF
 0000828E		   *@C03A6:
 0000828E		   *@C03A5:
 0000828E		   *@C03A2:
 0000828E		   *@C039F:
 0000828E  EB 68	      C     jmp    _unused
			      C 
 00008290		      C   _check_reg_0f71:
			      C   ; Check the REG portion of the Mod/Reg/RM byte
 00008290  0F B6 46 02	      C     movzx   eax,byte ptr ds:[esi+2]
 00008294  C1 E8 03	      C     shr     eax,3
 00008297  83 E0 07	      C     and     eax,111b
			      C     .IF (al == 100b)
 0000829A  3C 04	   *	    cmp    al, 004h
 0000829C  75 05	   *	    jne    @C03A8
			      C       ; It's PSRAW mm,immed8
 0000829E  E9 FFFFDDA0	      C         jmp     _psraw_immed8
			      C     .ENDIF
 000082A3		   *@C03A8:
 000082A3  EB 53	      C     jmp     _unused
			      C 
 000082A5		      C   _check_reg_0f72:
			      C   ; Check the REG portion of the Mod/Reg/RM byte
 000082A5  0F B6 46 02	      C     movzx   eax,byte ptr ds:[esi+2]
 000082A9  C1 E8 03	      C     shr     eax,3
 000082AC  83 E0 07	      C     and     eax,111b
			      C     .IF (al == 100b)
 000082AF  3C 04	   *	    cmp    al, 004h
 000082B1  75 05	   *	    jne    @C03AA
			      C       ; It's PSRAD mm,immed8
 000082B3  E9 FFFFDD15	      C         jmp     _psrad_immed8
			      C     .ENDIF
 000082B8		   *@C03AA:
 000082B8  EB 3E	      C     jmp     _unused
			      C 
 000082BA		      C   _check_reg_0fc7:
			      C   ; Check the REG portion of the Mod/Reg/RM byte
 000082BA  0F B6 46 02	      C     movzx   eax,byte ptr ds:[esi+2]
 000082BE  C1 E8 03	      C     shr     eax,3
 000082C1  83 E0 07	      C     and     eax,111b
			      C     .IF (al == 001b)
 000082C4  3C 01	   *	    cmp    al, 001h
 000082C6  75 05	   *	    jne    @C03AC
			      C       ; It's CMPXCHG8B m64
 000082C8  E9 FFFF9942	      C         jmp     _cmpxchg8b
			      C     .ENDIF
 000082CD		   *@C03AC:
 000082CD  EB 29	      C     jmp     _unused
			      C 
 000082CF		      C   _two_byte_unused:
			      C     @instr_bytes    2
 000082CF  64: C7 05	     1C     mov     fs:instruction_bytes,2
	   000000EB R
	   00000002
			     1C     IF 2 EQ 1
			     1C         inc     esi
			     1C     ELSE
 000082DA  83 C6 02	     1C         add     esi,2
			     1C     ENDIF
			      C     @instr_text     unknown_opcode,9
 000082DD  64: C7 05	     1C     mov     fs:instruction_text_offset,offset unknown_opcode
	   000000F3 R
	   00000B38 R
 000082E8  64: C7 05	     1C     mov     fs:instruction_text_length,9
	   000000EF R
	   00000009
 000082F3  E9 00000087	      C     jmp     store_instruction
			      C 
 000082F8		      C   _unused:
			      C     @instr_bytes    1
 000082F8  64: C7 05	     1C     mov     fs:instruction_bytes,1
	   000000EB R
	   00000001
			     1C     IF 1 EQ 1
 00008303  46		     1C         inc     esi
			     1C     ELSE
			     1C         add     esi,1
			     1C     ENDIF
 00008304  8A 06	      C     mov     al,byte ptr ds:[esi]
 00008306  E8 000001EA	      C     call    convert_al_to_hex
 0000830B  BB 00000007	      C     mov     ebx,sizeof unknown_opcode - 2
 00008310  66| 64: 89 83      C     mov     word ptr fs:unknown_opcode[ebx],ax
	   00000B38 R
			      C     @instr_text     unknown_opcode, sizeof unknown_opcode
 00008318  64: C7 05	     1C     mov     fs:instruction_text_offset,offset unknown_opcode
	   000000F3 R
	   00000B38 R
 00008323  64: C7 05	     1C     mov     fs:instruction_text_length,sizeof unknown_opcode
	   000000EF R
	   00000009
 0000832E  EB 4F	      C     jmp     store_instruction
			      C 
 00008330		      C   _fpu_unused:
			      C     @instr_bytes    2
 00008330  64: C7 05	     1C     mov     fs:instruction_bytes,2
	   000000EB R
	   00000002
			     1C     IF 2 EQ 1
			     1C         inc     esi
			     1C     ELSE
 0000833B  83 C6 02	     1C         add     esi,2
			     1C     ENDIF
 0000833E  8A 06	      C     mov     al,byte ptr ds:[esi]
 00008340  E8 000001B0	      C     call    convert_al_to_hex
 00008345  BB 0000000B	      C     mov     ebx,sizeof fpu_unknown_opcode -5
 0000834A  66| 64: 89 83      C     mov     word ptr fs:fpu_unknown_opcode[ebx],ax
	   00000B28 R
 00008352  8A 46 01	      C     mov     al,byte ptr ds:[esi+1]
 00008355  E8 0000019B	      C     call    convert_al_to_hex
 0000835A  BB 0000000E	      C     mov     ebx,sizeof fpu_unknown_opcode -2
 0000835F  66| 64: 89 83      C     mov     word ptr fs:fpu_unknown_opcode[ebx],ax
	   00000B28 R
			      C     @instr_text     fpu_unknown_opcode, sizeof fpu_unknown_opcode
 00008367  64: C7 05	     1C     mov     fs:instruction_text_offset,offset fpu_unknown_opcode
	   000000F3 R
	   00000B28 R
 00008372  64: C7 05	     1C     mov     fs:instruction_text_length,sizeof fpu_unknown_opcode
	   000000EF R
	   00000010
 0000837D  EB 00	      C     jmp     store_instruction
			      C 
			      C 
			      C ;; STORE_THE_INSTRUCTION
 0000837F		      C   store_instruction:
 0000837F  8B 7D 0C	      C     mov     edi,dword ptr ss:[ebp+12]
			      C ;; Opening parenthesis
 00008382  B0 28	      C     mov     al,'('
 00008384  AA		      C     stosb
			      C 
			      C ;; Mode
 00008385  64: A1	      C     mov     eax,fs:cpu_mode
	   0000009B R
			      C     .IF (al == 0)
 0000838B  0A C0	   *	    or	al, al
 0000838D  75 08	   *	    jne    @C03AE
			      C       ; 32-bit pmode
 0000838F  66| B8 3233	      C         mov     ax,'23'
 00008393  66| AB	      C         stosw
			      C     .ELSEIF (al == 1)
 00008395  EB 1F	   *	    jmp    @C03B0
 00008397		   *@C03AE:
 00008397  3C 01	   *	    cmp    al, 001h
 00008399  75 08	   *	    jne    @C03B1
			      C       ; 16-bit pmode
 0000839B  66| B8 3631	      C         mov     ax,'61'
 0000839F  66| AB	      C         stosw
			      C     .ELSEIF (al == 2)
 000083A1  EB 13	   *	    jmp    @C03B3
 000083A3		   *@C03B1:
 000083A3  3C 02	   *	    cmp    al, 002h
 000083A5  75 08	   *	    jne    @C03B4
			      C       ; REAL
 000083A7  B8 6C616572	      C         mov     eax,'laer'
 000083AC  AB		      C         stosd
			      C     .ELSE
 000083AD  EB 07	   *	    jmp    @C03B6
 000083AF		   *@C03B4:
			      C       ; V86 mode
 000083AF  B8 20363876	      C         mov     eax,' 68v'
 000083B4  AB		      C         stosd
 000083B5  4F		      C         dec     edi
			      C     .ENDIF
 000083B6		   *@C03B6:
 000083B6		   *@C03B3:
 000083B6		   *@C03B0:
 000083B6  B0 7C	      C     mov     al,'|'
 000083B8  AA		      C     stosb
			      C 
			      C ;; Prefix bytes
			      C     .IF (fs:prefix_bytes != 0)
 000083B9  64: 83 3D
	   0000009F R 00   *	    cmp    fs : prefix_bytes, 000h
 000083C1  74 19	   *	    je     @C03B7
 000083C3  64: 8B 0D	      C         mov     ecx,fs:prefix_bytes
	   0000009F R
 000083CA  8B 5D 10	      C         mov     ebx,dword ptr ss:[ebp+16]                           ; Get esi from the stack
			      C       ; Right now, ds:[ebx] - far ptr to start of code instruction
			      C       ;                 ecx - number of bytes
 000083CD  01 4D 24	      C         add     dword ptr ss:[ebp+36],ecx
 000083D0		      C       @@:
 000083D0  8A 03	      C         mov     al,byte ptr ds:[ebx]
 000083D2  E8 0000011E	      C         call    convert_al_to_hex
 000083D7  66| AB	      C         stosw
 000083D9  43		      C         inc     ebx
 000083DA  E2 F4	      C         loop    @B
			      C     .ENDIF
 000083DC		   *@C03B7:
 000083DC  B0 7C	      C     mov     al,'|'
 000083DE  AA		      C     stosb
			      C 
			      C ;; Instruction bytes
 000083DF  64: 8B 0D	      C     mov     ecx,fs:instruction_bytes
	   000000EB R
 000083E6  64: 8B 1D	      C     mov     ebx,fs:instruction_offset
	   000000E7 R
			      C   ; Right now, ds:[ebx] - far ptr to start of actual instruction (after prefix bytes)
 000083ED  01 4D 24	      C     add     dword ptr ss:[ebp+36],ecx
 000083F0		      C   @@:
 000083F0  8A 03	      C     mov     al,byte ptr ds:[ebx]
 000083F2  E8 000000FE	      C     call    convert_al_to_hex
 000083F7  66| AB	      C     stosw
 000083F9  43		      C     inc     ebx
 000083FA  E2 F4	      C     loop    @B
 000083FC  B0 7C	      C     mov     al,'|'
 000083FE  AA		      C     stosb
			      C 
			      C ;; Mod/R/RM
			      C     .IF (fs:mod_reg_rm_bytes != 0)
 000083FF  64: 83 3D
	   0000010F R 00   *	    cmp    fs : mod_reg_rm_bytes, 000h
 00008407  74 1A	   *	    je     @C03B9
 00008409  64: 8B 0D	      C         mov     ecx,fs:mod_reg_rm_bytes
	   0000010F R
 00008410  64: 8B 1D	      C         mov     ebx,fs:mod_reg_rm_offset
	   0000010B R
			      C       ; Right now, ds:[ebx] - far ptr to start of code instruction
			      C       ;                 ecx - number of bytes
 00008417		      C       @@:
 00008417  8A 03	      C         mov     al,byte ptr ds:[ebx]
 00008419  E8 000000D7	      C         call    convert_al_to_hex
 0000841E  66| AB	      C         stosw
 00008420  43		      C         inc     ebx
 00008421  E2 F4	      C         loop    @B
			      C     .ENDIF
 00008423		   *@C03B9:
 00008423  B0 7C	      C     mov     al,'|'
 00008425  AA		      C     stosb
			      C 
			      C ;; SIB
			      C     .IF (fs:sib_bytes != 0)
 00008426  64: 83 3D
	   00000117 R 00   *	    cmp    fs : sib_bytes, 000h
 0000842E  74 1A	   *	    je     @C03BB
 00008430  64: 8B 0D	      C         mov     ecx,fs:sib_bytes
	   00000117 R
 00008437  64: 8B 1D	      C         mov     ebx,fs:sib_offset
	   00000113 R
			      C       ; Right now, ds:[ebx] - far ptr to start of code instruction
			      C       ;                 ecx - number of bytes
 0000843E		      C       @@:
 0000843E  8A 03	      C         mov     al,byte ptr ds:[ebx]
 00008440  E8 000000B0	      C         call    convert_al_to_hex
 00008445  66| AB	      C         stosw
 00008447  43		      C         inc     ebx
 00008448  E2 F4	      C         loop    @B
			      C     .ENDIF
 0000844A		   *@C03BB:
 0000844A  B0 7C	      C     mov     al,'|'
 0000844C  AA		      C     stosb
			      C 
			      C ;; Displacement in instruction
			      C     .IF (fs:displacement_bytes != 0)
 0000844D  64: 83 3D
	   00000103 R 00   *	    cmp    fs : displacement_bytes, 000h
 00008455  74 15	   *	    je     @C03BD
 00008457  64: 8B 0D	      C         mov     ecx,fs:displacement_bytes
	   00000103 R
 0000845E  64: 8B 1D	      C         mov     ebx,fs:displacement_offset
	   000000FF R
			      C       ; Right now, fs:[ebx] - far ptr to start of displacement text in expression
			      C       ;                 ecx - number of bytes
 00008465		      C       @@:
 00008465  64: 8A 03	      C         mov     al,byte ptr fs:[ebx]
 00008468  AA		      C         stosb
 00008469  43		      C         inc     ebx
 0000846A  E2 F9	      C         loop    @B
			      C     .ENDIF
 0000846C		   *@C03BD:
 0000846C  B0 7C	      C     mov     al,'|'
 0000846E  AA		      C     stosb
			      C 
			      C ;; Immediate in instruction
			      C     .IF (fs:immediate_bytes != 0)
 0000846F  64: 83 3D
	   0000011F R 00   *	    cmp    fs : immediate_bytes, 000h
 00008477  74 0B	   *	    je     @C03BF
 00008479  64: A1	      C         mov     eax,dword ptr fs:immediate_data
	   00000123 R
 0000847F  E8 000000AA	      C         call    convert_and_store_eax_to_hex
			      C     .ENDIF
 00008484		   *@C03BF:
 00008484  B0 7C	      C     mov     al,'|'
 00008486  AA		      C     stosb
			      C 
			      C ;; Operand size of instruction
 00008487  64: A1	      C     mov     eax,fs:operand_size
	   00000127 R
 0000848D  E8 00000063	      C     call    convert_al_to_hex
 00008492  66| AB	      C     stosw
 00008494  B0 7C	      C     mov     al,'|'
 00008496  AA		      C     stosb
			      C 
			      C ;; Instruction text
 00008497  64: 8B 0D	      C     mov     ecx,fs:instruction_text_length
	   000000EF R
 0000849E  64: 8B 1D	      C     mov     ebx,fs:instruction_text_offset
	   000000F3 R
			      C   ; Right now, fs:[ebx] - far ptr to the instruction text
			      C   ;                 ecx - number of characters in
 000084A5		      C   @@:
 000084A5  64: 8A 03	      C     mov     al,byte ptr fs:[ebx]
 000084A8  AA		      C     stosb
 000084A9  43		      C     inc     ebx
 000084AA  E2 F9	      C     loop    @B
 000084AC  B0 7C	      C     mov     al,'|'
 000084AE  AA		      C     stosb
			      C 
			      C ;; Parameters text
			      C     .IF (fs:parameters_text_length != 0)
 000084AF  64: 83 3D
	   000000F7 R 00   *	    cmp    fs : parameters_text_length, 000h
 000084B7  74 15	   *	    je     @C03C1
 000084B9  64: 8B 0D	      C         mov     ecx,fs:parameters_text_length
	   000000F7 R
 000084C0  64: 8B 1D	      C         mov     ebx,fs:parameters_text_offset
	   000000FB R
			      C       ; Right now, fs:[ebx] - far ptr to the instruction parameters text
			      C       ;                 ecx - number of characters in
 000084C7		      C       @@:
 000084C7  64: 8A 03	      C         mov     al,byte ptr fs:[ebx]
 000084CA  AA		      C         stosb
 000084CB  43		      C         inc     ebx
 000084CC  E2 F9	      C         loop    @B
			      C     .ENDIF
 000084CE		   *@C03C1:
 000084CE  B0 7C	      C     mov     al,'|'
 000084D0  AA		      C     stosb
			      C 
			      C ;; Data text
 000084D1  B0 7C	      C     mov     al,'|'
 000084D3  AA		      C     stosb
			      C 
			      C ;; Immediate text
 000084D4  B0 7C	      C     mov     al,'|'
 000084D6  AA		      C     stosb
			      C 
			      C ;; Timing
 000084D7  B0 7C	      C     mov     al,'|'
 000084D9  AA		      C     stosb
			      C 
			      C ;; Pipe
 000084DA  B0 7C	      C     mov     al,'|'
 000084DC  AA		      C     stosb
			      C 
			      C ;; Pairable
 000084DD  B0 7C	      C     mov     al,'|'
 000084DF  AA		      C     stosb
			      C 
			      C ;; CPU
 000084E0  B0 7C	      C     mov     al,'|'
 000084E2  AA		      C     stosb
			      C 
			      C ;; More casqs?
 000084E3  66| B8 6F6E	      C     mov     ax,'on'
 000084E7  66| AB	      C     stosw
			      C 
			      C ;; Closing parenthesis
 000084E9  B0 29	      C     mov     al,')'
 000084EB  AA		      C     stosb
			      C 
			      C ;; NULL terminate
 000084EC  32 C0	      C     xor     al,al
 000084EE  AA		      C     stosb
			      C 
 000084EF		      C   done_disasm:
 000084EF  C9		      C     leave
 000084F0  0F A1	      C     pop     fs
 000084F2  9D		      C     popfd
 000084F3  61		      C     popad
 000084F4  CB		      C     retf
			      C 
			      C 
			      C 
			      C 
 000084F5		      C convert_al_to_hex       PROC    NEAR
			      C ; This routine is used to convert the value in al to
			      C ;
			      C ; Upon entry:   al - value to convert
			      C ;
			      C ; Upon exit:    ax - converted value in hexidecimal
			      C ;               others - preserved
			      C ;
 000084F5  8A E0	      C     mov     ah,al
 000084F7  80 E4 0F	      C     and     ah,0fh
 000084FA  C0 E8 04	      C     shr     al,4
			      C 
 000084FD		      C   do_al:
 000084FD  3C 09	      C     cmp     al,9
 000084FF  77 04	      C     ja      @F
 00008501  04 30	      C     add     al,'0'
 00008503  EB 02	      C     jmp     do_ah
 00008505		      C   @@:
 00008505  04 57	      C     add     al,'a'-10
			      C 
 00008507		      C   do_ah:
 00008507  80 FC 09	      C     cmp     ah,9
 0000850A  77 04	      C     ja      @F
 0000850C  80 C4 30	      C     add     ah,'0'
 0000850F  C3		      C     ret
			      C 
 00008510		      C   @@:
 00008510  80 C4 57	      C     add     ah,'a'-10
 00008513  C3		      C     ret
 00008514		      C convert_al_to_hex       ENDP
			      C 
			      C 
			      C 
			      C 
 00008514		      C convert_and_store_ax_to_hex     PROC    NEAR
			      C ; This routine is used to convert a word of data to a text string
			      C ;
			      C ; Upon entry:   ax - dword to convert
			      C ;          es:[edi] - where to store string
			      C ;
			      C ; Upon exit:    es:[edi] - updated with string
			      C ;
 00008514  53		      C     push    ebx
 00008515  51		      C     push    ecx
			      C 
 00008516  8B D8	      C     mov     ebx,eax
 00008518  B9 00000002	      C     mov     ecx,2
 0000851D		      C   @@:
 0000851D  C1 C3 08	      C     rol     ebx,8
 00008520  8A C3	      C     mov     al,bl
 00008522  E8 FFFFFFCE	      C     call    convert_al_to_hex
 00008527  66| AB	      C     stosw
 00008529  E2 F2	      C     loop    @B
			      C 
 0000852B  59		      C     pop     ecx
 0000852C  5B		      C     pop     ebx
 0000852D  C3		      C     ret
 0000852E		      C convert_and_store_ax_to_hex     ENDP
			      C 
			      C 
			      C 
			      C 
 0000852E		      C convert_and_store_eax_to_hex    PROC    NEAR
			      C ; This routine is used to convert a dword of data to a text string
			      C ;
			      C ; Upon entry:   eax - dword to convert
			      C ;          es:[edi] - where to store string
			      C ;
			      C ; Upon exit:    es:[edi] - updated with string
			      C ;
 0000852E  53		      C     push    ebx
 0000852F  51		      C     push    ecx
			      C 
 00008530  8B D8	      C     mov     ebx,eax
 00008532  B9 00000004	      C     mov     ecx,4
 00008537		      C   @@:
 00008537  C1 C3 08	      C     rol     ebx,8
 0000853A  8A C3	      C     mov     al,bl
 0000853C  E8 FFFFFFB4	      C     call    convert_al_to_hex
 00008541  66| AB	      C     stosw
 00008543  E2 F2	      C     loop    @B
			      C 
 00008545  59		      C     pop     ecx
 00008546  5B		      C     pop     ebx
 00008547  C3		      C     ret
 00008548		      C convert_and_store_eax_to_hex    ENDP
			      C 
			      C 
			      C 
			      C 
 00008548		      C start_offsets       PROC    NEAR
			      C ; This routine is called repeatedly.  It marks the starting location for generated output
			      C ;
			      C ; Upon entry:   parameters_text_offset + parameters_text_length = where to store
			      C ;
			      C ; Upon exit:    edi - updated to current value
			      C ;
 00008548  64: 8B 3D	      C     mov     edi,fs:parameters_text_offset
	   000000FB R
 0000854F  64: 03 3D	      C     add     edi,fs:parameters_text_length
	   000000F7 R
 00008556  64: 89 3D	      C     mov     fs:displacement_offset,edi
	   000000FF R
 0000855D  C3		      C     ret
 0000855E		      C start_offsets       ENDP
			      C 
			      C 
			      C 
			      C 
 0000855E		      C end_offsets     PROC    NEAR
			      C ; This routine is called repeatedly.  It makrs the ending location for generated output
			      C ;
			      C ; Upon entry:   displacement_offset - starting location
			      C ;               edi - ending location
			      C ;
			      C ; Upon exit:    eax - number of bytes between start_offsets and end_offsets
			      C 
 0000855E  8B C7	      C     mov     eax,edi
 00008560  64: 2B 05	      C     sub     eax,fs:displacement_offset
	   000000FF R
 00008567  64: A3	      C     mov     fs:displacement_bytes,eax
	   00000103 R
 0000856D  64: A3	      C     mov     fs:parameters_text_length,eax
	   000000F7 R
 00008573  C3		      C     ret
 00008574		      C end_offsets     ENDP
			      C 
			      C 
			      C 
			      C 
 00008574		      C determine_operand_size      PROC    NEAR
			      C ; This routine is used to determine the operand size
			      C ;
			      C ; Upon entry:   The stack is arranged as below
			      C ;               0 is assumed byte, !0 is assumed to be either 16 or 32 depending on current CPU mode and value on the stack
			      C ;
			      C ; Upon exit:    fs:operand_size is updated to either 8, 16, 32
			      C ;
			      C   ; [esp+04] - parameter they're specifying
			      C   ; [esp+00] - ip of calling procedure
			      C     .IF (dword ptr ss:[esp+4] == 0)
 00008574  83 7C 24 04 00  *	    cmp    dword ptr ss : [esp + 004h], 000h
 00008579  75 0D	   *	    jne    @C03C3
			      C       ; Byte
 0000857B  64: C7 05	      C         mov     fs:operand_size,8
	   00000127 R
	   00000008
			      C     .ELSE
 00008586  EB 50	   *	    jmp    @C03C5
 00008588		   *@C03C3:
			      C       ; It's either a word or dword
			      C         .IF (fs:cpu_mode == 0)
 00008588  64: 83 3D
	   0000009B R 00   *	    cmp    fs : cpu_mode, 000h
 00008590  75 24	   *	    jne    @C03C6
			      C           ; It will be a 32-bit register unless there's an operand override
			      C             .IF (fs:op_size_override != 0)
 00008592  64: 83 3D
	   000000BF R 00   *	    cmp    fs : op_size_override, 000h
 0000859A  74 0D	   *	    je     @C03C8
			      C               ; It's 16-bit
 0000859C  64: C7 05	      C                 mov     fs:operand_size,16
	   00000127 R
	   00000010
			      C             .ELSE
 000085A7  EB 2F	   *	    jmp    @C03CA
 000085A9		   *@C03C8:
			      C               ; It's 32-bit
 000085A9  64: C7 05	      C                 mov     fs:operand_size,32
	   00000127 R
	   00000020
			      C             .ENDIF
			      C         .ELSE
 000085B4  EB 22	   *	    jmp    @C03CB
 000085B6		   *@C03C6:
			      C           ; It will be a 16-bit register unless there's an operand override
			      C             .IF (fs:op_size_override != 0)
 000085B6  64: 83 3D
	   000000BF R 00   *	    cmp    fs : op_size_override, 000h
 000085BE  74 0D	   *	    je     @C03CC
			      C               ; It's 32-bit
 000085C0  64: C7 05	      C                 mov     fs:operand_size,32
	   00000127 R
	   00000020
			      C             .ELSE
 000085CB  EB 0B	   *	    jmp    @C03CE
 000085CD		   *@C03CC:
			      C               ; It's 16-bit
 000085CD  64: C7 05	      C                 mov     fs:operand_size,16
	   00000127 R
	   00000010
			      C             .ENDIF
			      C         .ENDIF
 000085D8		   *@C03CE:
			      C     .ENDIF
 000085D8		   *@C03CB:
 000085D8		   *@C03CA:
 000085D8		   *@C03C5:
 000085D8  C2 0004	      C     ret 4
 000085DB		      C determine_operand_size      ENDP
			      C 
			      C 
			      C 
			      C 
 000085DB		      C determine_standard_operand_size     PROC
			      C ; This routien is used to determine the standard operand size based on the current CPU mode and any prefix bytes
			      C ;
			      C ; Upon entry:   cpu_mode and op_size_override are setup
			      C ;
			      C ; Upon exit:    operand_size is assigned to 16 or 32
			      C ;
			      C     .IF ((fs:cpu_mode == 0 && fs:op_size_override != 0) || (fs:cpu_mode != 0 && fs:op_size_override == 0))
 000085DB  64: 83 3D
	   0000009B R 00   *	    cmp    fs : cpu_mode, 000h
 000085E3  75 0A	   *	    jne    @C03D1
 000085E5  64: 83 3D
	   000000BF R 00   *	    cmp    fs : op_size_override, 000h
 000085ED  75 14	   *	    jne    @C03D0
 000085EF		   *@C03D1:
 000085EF  64: 83 3D
	   0000009B R 00   *	    cmp    fs : cpu_mode, 000h
 000085F7  74 17	   *	    je     @C03CF
 000085F9  64: 83 3D
	   000000BF R 00   *	    cmp    fs : op_size_override, 000h
 00008601  75 0D	   *	    jne    @C03CF
 00008603		   *@C03D0:
 00008603  64: C7 05	      C         mov     fs:operand_size,16
	   00000127 R
	   00000010
			      C     .ELSE
 0000860E  EB 0B	   *	    jmp    @C03D4
 00008610		   *@C03CF:
 00008610  64: C7 05	      C         mov     fs:operand_size,32
	   00000127 R
	   00000020
			      C     .ENDIF
 0000861B		   *@C03D4:
 0000861B  C3		      C     ret
 0000861C		      C determine_standard_operand_size     ENDP
			      C 
			      C 
			      C 
			      C 
 0000861C		      C extract_mod_reg_rm      PROC    NEAR
			      C ; This routine is used to
			      C ;
			      C ; Upon entry:   ds:[esi] - far ptr to the execution code
			      C ;               fs:[edi] - where to store to
			      C ;
			      C ; Upon exit:    The mod/reg/rm byte is extracted, and possibly a SIB byte, etc.
			      C ;
 0000861C  50		      C     push    eax
 0000861D  53		      C     push    ebx
 0000861E  52		      C     push    edx
			      C 
 0000861F  64: 8B 3D	      C     mov     edi,fs:parameters_text_offset
	   000000FB R
 00008626  64: 03 3D	      C     add     edi,fs:parameters_text_length
	   000000F7 R
			      C 
 0000862D  8A 06	      C     mov     al,byte ptr ds:[esi]
 0000862F  46		      C     inc     esi
 00008630  64: FF 05	      C     inc     fs:instruction_bytes
	   000000EB R
			      C 
 00008637  8A D8	      C     mov     bl,al
 00008639  C0 EB 06	      C     shr     bl,6
			      C   ; Right now, bl is the Mod byte
 0000863C  8A D0	      C     mov     dl,al
 0000863E  8A F0	      C     mov     dh,al
 00008640  C0 EA 03	      C     shr     dl,3
 00008643  80 E2 07	      C     and     dl,111b
 00008646  80 E6 07	      C     and     dh,111b
			      C   ; Right now, bl - mod
			      C   ;            dl - reg
			      C   ;            dh - r/m
			      C     .IF (bl == 00b)
 00008649  0A DB	   *	    or	bl, bl
 0000864B  0F 85 00000131  *	    jne    @C03D5
			      C         .IF ((fs:cpu_mode == 0 && fs:adr_size_override != 0) || (fs:cpu_mode != 0 && fs:adr_size_override == 0))
 00008651  64: 83 3D
	   0000009B R 00   *	    cmp    fs : cpu_mode, 000h
 00008659  75 0A	   *	    jne    @C03D9
 0000865B  64: 83 3D
	   000000C3 R 00   *	    cmp    fs : adr_size_override, 000h
 00008663  75 1C	   *	    jne    @C03D8
 00008665		   *@C03D9:
 00008665  64: 83 3D
	   0000009B R 00   *	    cmp    fs : cpu_mode, 000h
 0000866D  0F 84 000000BC  *	    je     @C03D7
 00008673  64: 83 3D
	   000000C3 R 00   *	    cmp    fs : adr_size_override, 000h
 0000867B  0F 85 000000AE  *	    jne    @C03D7
 00008681		   *@C03D8:
			      C           ; It's 16-bit code
			      C             .IF (dh == 110b)
 00008681  80 FE 06	   *	    cmp    dh, 006h
 00008684  75 56	   *	    jne    @C03DC
			      C               ; It's a direct memory operand at some displacement
			      C                 .IF (fs:reverse_mod_reg_rm != 0)
 00008686  64: 83 3D
	   000000C7 R 00   *	    cmp    fs : reverse_mod_reg_rm, 000h
 0000868E  74 26	   *	    je     @C03DE
			      C                   ; Memory to register
 00008690  8A DA	      C                     mov     bl,dl
 00008692  E8 000002AB	      C                     call    store_gp_register
 00008697  64: FF 05	      C                     inc     fs:gp_reg_count
	   000000DF R
 0000869E  E8 000011EC	      C                     call    store_comma
 000086A3  8A DE	      C                     mov     bl,dh
 000086A5  E8 00000D21	      C                     call    store_direct
 000086AA  64: FF 05	      C                     inc     fs:gp_reg_count
	   000000DF R
			      C                 .ELSE
 000086B1  E9 000001E1	   *	    jmp    @C03E0
 000086B6		   *@C03DE:
			      C                   ; Register to memory
 000086B6  8A DE	      C                     mov     bl,dh
 000086B8  E8 00000D0E	      C                     call    store_direct
 000086BD  64: FF 05	      C                     inc     fs:gp_reg_count
	   000000DF R
 000086C4  E8 000011C6	      C                     call    store_comma
 000086C9  8A DA	      C                     mov     bl,dl
 000086CB  E8 00000272	      C                     call    store_gp_register
 000086D0  64: FF 05	      C                     inc     fs:gp_reg_count
	   000000DF R
			      C                 .ENDIF
			      C             .ELSE
 000086D7  E9 000001BB	   *	    jmp    @C03E1
 000086DC		   *@C03DC:
			      C               ; It's an indirect memory operand without displacement
			      C                 .IF (fs:reverse_mod_reg_rm != 0)
 000086DC  64: 83 3D
	   000000C7 R 00   *	    cmp    fs : reverse_mod_reg_rm, 000h
 000086E4  74 23	   *	    je     @C03E2
			      C                   ; Memory to register
 000086E6  8A DA	      C                     mov     bl,dl
 000086E8  E8 00000255	      C                     call    store_gp_register
 000086ED  64: FF 05	      C                     inc     fs:gp_reg_count
	   000000DF R
 000086F4  E8 00001196	      C                     call    store_comma
 000086F9  8A DE	      C                     mov     bl,dh
 000086FB  E8 00000D27	      C                     call    store_indirect_no_displacement
 00008700  64: FF 05	      C                     inc     fs:gp_reg_count
	   000000DF R
			      C                 .ELSE
 00008707  EB 21	   *	    jmp    @C03E4
 00008709		   *@C03E2:
			      C                   ; Register to memory
 00008709  8A DE	      C                     mov     bl,dh
 0000870B  E8 00000D17	      C                     call    store_indirect_no_displacement
 00008710  64: FF 05	      C                     inc     fs:gp_reg_count
	   000000DF R
 00008717  E8 00001173	      C                     call    store_comma
 0000871C  8A DA	      C                     mov     bl,dl
 0000871E  E8 0000021F	      C                     call    store_gp_register
 00008723  64: FF 05	      C                     inc     fs:gp_reg_count
	   000000DF R
			      C                 .ENDIF
			      C             .ENDIF
 0000872A		   *@C03E4:
			      C         .ELSE
 0000872A  E9 00000168	   *	    jmp    @C03E5
 0000872F		   *@C03D7:
			      C           ; It's 32-bit code
			      C             .IF (fs:reverse_mod_reg_rm != 0)
 0000872F  64: 83 3D
	   000000C7 R 00   *	    cmp    fs : reverse_mod_reg_rm, 000h
 00008737  74 23	   *	    je     @C03E6
			      C               ; Memory to register
 00008739  8A DA	      C                 mov     bl,dl
 0000873B  E8 00000202	      C                 call    store_gp_register
 00008740  64: FF 05	      C                 inc     fs:gp_reg_count
	   000000DF R
 00008747  E8 00001143	      C                 call    store_comma
 0000874C  8A DE	      C                 mov     bl,dh
 0000874E  E8 00000CD4	      C                 call    store_indirect_no_displacement
 00008753  64: FF 05	      C                 inc     fs:gp_reg_count
	   000000DF R
			      C             .ELSE
 0000875A  EB 21	   *	    jmp    @C03E8
 0000875C		   *@C03E6:
			      C               ; Register to memory
 0000875C  8A DE	      C                 mov     bl,dh
 0000875E  E8 00000CC4	      C                 call    store_indirect_no_displacement
 00008763  64: FF 05	      C                 inc     fs:gp_reg_count
	   000000DF R
 0000876A  E8 00001120	      C                 call    store_comma
 0000876F  8A DA	      C                 mov     bl,dl
 00008771  E8 000001CC	      C                 call    store_gp_register
 00008776  64: FF 05	      C                 inc     fs:gp_reg_count
	   000000DF R
			      C             .ENDIF
			      C         .ENDIF
 0000877D		   *@C03E8:
			      C     .ELSEIF (bl == 01b)
 0000877D  E9 00000115	   *	    jmp    @C03E9
 00008782		   *@C03D5:
 00008782  80 FB 01	   *	    cmp    bl, 001h
 00008785  75 56	   *	    jne    @C03EA
			      C       ; It's an indirect memory operand with an 8-bit displacement
			      C         .IF (fs:reverse_mod_reg_rm != 0)
 00008787  64: 83 3D
	   000000C7 R 00   *	    cmp    fs : reverse_mod_reg_rm, 000h
 0000878F  74 26	   *	    je     @C03EC
			      C           ; Memory to register
 00008791  8A DA	      C             mov     bl,dl
 00008793  E8 000001AA	      C             call    store_gp_register
 00008798  64: FF 05	      C             inc     fs:gp_reg_count
	   000000DF R
 0000879F  E8 000010EB	      C             call    store_comma
 000087A4  8A DE	      C             mov     bl,dh
 000087A6  E8 00000CA9	      C             call    store_indirect_with_8bit_displacement
 000087AB  64: FF 05	      C             inc     fs:gp_reg_count
	   000000DF R
			      C         .ELSE
 000087B2  E9 000000E0	   *	    jmp    @C03EE
 000087B7		   *@C03EC:
			      C           ; Register to memory
 000087B7  8A DE	      C             mov     bl,dh
 000087B9  E8 00000C96	      C             call    store_indirect_with_8bit_displacement
 000087BE  64: FF 05	      C             inc     fs:gp_reg_count
	   000000DF R
 000087C5  E8 000010C5	      C             call    store_comma
 000087CA  8A DA	      C             mov     bl,dl
 000087CC  E8 00000171	      C             call    store_gp_register
 000087D1  64: FF 05	      C             inc     fs:gp_reg_count
	   000000DF R
			      C         .ENDIF
			      C     .ELSEIF (bl == 10b)
 000087D8  E9 000000BA	   *	    jmp    @C03EF
 000087DD		   *@C03EA:
 000087DD  80 FB 02	   *	    cmp    bl, 002h
 000087E0  75 53	   *	    jne    @C03F0
			      C       ; It's an indirect memory operand with a 16-bit or 32-bit displacement
			      C         .IF (fs:reverse_mod_reg_rm != 0)
 000087E2  64: 83 3D
	   000000C7 R 00   *	    cmp    fs : reverse_mod_reg_rm, 000h
 000087EA  74 26	   *	    je     @C03F2
			      C           ; Memory to register
 000087EC  8A DA	      C             mov     bl,dl
 000087EE  E8 0000014F	      C             call    store_gp_register
 000087F3  64: FF 05	      C             inc     fs:gp_reg_count
	   000000DF R
 000087FA  E8 00001090	      C             call    store_comma
 000087FF  8A DE	      C             mov     bl,dh
 00008801  E8 00000C80	      C             call    store_indirect_with_xbit_displacement
 00008806  64: FF 05	      C             inc     fs:gp_reg_count
	   000000DF R
			      C         .ELSE
 0000880D  E9 00000085	   *	    jmp    @C03F4
 00008812		   *@C03F2:
			      C           ; Register to memory
 00008812  8A DE	      C             mov     bl,dh
 00008814  E8 00000C6D	      C             call    store_indirect_with_xbit_displacement
 00008819  64: FF 05	      C             inc     fs:gp_reg_count
	   000000DF R
 00008820  E8 0000106A	      C             call    store_comma
 00008825  8A DA	      C             mov     bl,dl
 00008827  E8 00000116	      C             call    store_gp_register
 0000882C  64: FF 05	      C             inc     fs:gp_reg_count
	   000000DF R
			      C         .ENDIF
			      C     .ELSE
 00008833  EB 62	   *	    jmp    @C03F5
 00008835		   *@C03F0:
			      C       ; It's a register to register
			      C         .IF (fs:reverse_mod_reg_rm != 0)
 00008835  64: 83 3D
	   000000C7 R 00   *	    cmp    fs : reverse_mod_reg_rm, 000h
 0000883D  74 2D	   *	    je     @C03F6
 0000883F  8A DA	      C             mov     bl,dl
 00008841  E8 000000FC	      C             call    store_gp_register
 00008846  64: FF 05	      C             inc     fs:gp_reg_count
	   000000DF R
			      C             .IF (fs:display_second_register != 0)
 0000884D  64: 83 3D
	   000000DB R 00   *	    cmp    fs : display_second_register, 000h
 00008855  74 40	   *	    je     @C03F8
 00008857  E8 00001033	      C                 call    store_comma
 0000885C  8A DE	      C                 mov     bl,dh
 0000885E  E8 000000DF	      C                 call    store_gp_register
 00008863  64: FF 05	      C                 inc     fs:gp_reg_count
	   000000DF R
			      C             .ENDIF
			      C         .ELSE
 0000886A  EB 2B	   *	    jmp    @C03FA
 0000886C		   *@C03F6:
 0000886C  8A DE	      C             mov     bl,dh
 0000886E  E8 000000CF	      C             call    store_gp_register
 00008873  64: FF 05	      C             inc     fs:gp_reg_count
	   000000DF R
			      C             .IF (fs:display_second_register != 0)
 0000887A  64: 83 3D
	   000000DB R 00   *	    cmp    fs : display_second_register, 000h
 00008882  74 13	   *	    je     @C03FB
 00008884  E8 00001006	      C                 call    store_comma
 00008889  8A DA	      C                 mov     bl,dl
 0000888B  E8 000000B2	      C                 call    store_gp_register
 00008890  64: FF 05	      C                 inc     fs:gp_reg_count
	   000000DF R
			      C             .ENDIF
			      C         .ENDIF
 00008897		   *@C03FB:
			      C     .ENDIF
 00008897		   *@C03FA:
 00008897		   *@C03F8:
 00008897		   *@C03F5:
 00008897		   *@C03EF:
 00008897		   *@C03E9:
 00008897		   *@C03E5:
 00008897		   *@C03E1:
 00008897		   *@C03E0:
 00008897		   *@C03EE:
 00008897		   *@C03F4:
			      C 
 00008897  5A		      C     pop     edx
 00008898  5B		      C     pop     ebx
 00008899  58		      C     pop     eax
 0000889A  C3		      C     ret
 0000889B		      C extract_mod_reg_rm      ENDP
			      C 
			      C 
			      C 
			      C 
 0000889B		      C extract_mod_rm      PROC    NEAR
			      C ; This routine is used to
			      C ;
			      C ; Upon entry:   ds:[esi] - far ptr to the execution code
			      C ;               fs:[edi] - where to store to
			      C ;
			      C ; Upon exit:    The mod/reg/rm byte is extracted, and possibly a SIB byte, etc.
			      C ;
 0000889B  50		      C     push    eax
 0000889C  53		      C     push    ebx
 0000889D  52		      C     push    edx
			      C 
 0000889E  64: 8B 3D	      C     mov     edi,fs:parameters_text_offset
	   000000FB R
 000088A5  64: 03 3D	      C     add     edi,fs:parameters_text_length
	   000000F7 R
			      C 
 000088AC  8A 06	      C     mov     al,byte ptr ds:[esi]
 000088AE  46		      C     inc     esi
 000088AF  64: FF 05	      C     inc     fs:instruction_bytes
	   000000EB R
			      C 
 000088B6  8A D8	      C     mov     bl,al
 000088B8  C0 EB 06	      C     shr     bl,6
			      C   ; Right now, bl is the Mod byte
 000088BB  8A D0	      C     mov     dl,al
 000088BD  8A F0	      C     mov     dh,al
 000088BF  C0 EA 03	      C     shr     dl,3
 000088C2  80 E2 07	      C     and     dl,111b
 000088C5  80 E6 07	      C     and     dh,111b
			      C   ; Right now, bl - mod
			      C   ;            dl - reg
			      C   ;            dh - r/m
			      C     .IF (bl == 00b)
 000088C8  0A DB	   *	    or	bl, bl
 000088CA  75 48	   *	    jne    @C03FD
			      C         .IF ((fs:cpu_mode == 0 && fs:adr_size_override != 0) || (fs:cpu_mode != 0 && fs:adr_size_override == 0))
 000088CC  64: 83 3D
	   0000009B R 00   *	    cmp    fs : cpu_mode, 000h
 000088D4  75 0A	   *	    jne    @C0401
 000088D6  64: 83 3D
	   000000C3 R 00   *	    cmp    fs : adr_size_override, 000h
 000088DE  75 14	   *	    jne    @C0400
 000088E0		   *@C0401:
 000088E0  64: 83 3D
	   0000009B R 00   *	    cmp    fs : cpu_mode, 000h
 000088E8  74 21	   *	    je     @C03FF
 000088EA  64: 83 3D
	   000000C3 R 00   *	    cmp    fs : adr_size_override, 000h
 000088F2  75 17	   *	    jne    @C03FF
 000088F4		   *@C0400:
			      C           ; It's 16-bit code
			      C             .IF (dh == 110b)
 000088F4  80 FE 06	   *	    cmp    dh, 006h
 000088F7  75 09	   *	    jne    @C0404
			      C               ; It's a direct memory operand at some displacement
 000088F9  8A DE	      C                 mov     bl,dh
 000088FB  E8 00000ACB	      C                 call    store_direct
			      C             .ELSE
 00008900  EB 35	   *	    jmp    @C0406
 00008902		   *@C0404:
			      C               ; It's an indirect memory operand without displacement
 00008902  8A DE	      C                 mov     bl,dh
 00008904  E8 00000B1E	      C                 call    store_indirect_no_displacement
			      C             .ENDIF
			      C         .ELSE
 00008909  EB 2C	   *	    jmp    @C0407
 0000890B		   *@C03FF:
			      C           ; It's 32-bit code
 0000890B  8A DE	      C             mov     bl,dh
 0000890D  E8 00000B15	      C             call    store_indirect_no_displacement
			      C         .ENDIF
			      C     .ELSEIF (bl == 01b)
 00008912  EB 23	   *	    jmp    @C0408
 00008914		   *@C03FD:
 00008914  80 FB 01	   *	    cmp    bl, 001h
 00008917  75 09	   *	    jne    @C0409
			      C       ; It's an indirect memory operand with an 8-bit displacement
 00008919  8A DE	      C         mov     bl,dh
 0000891B  E8 00000B34	      C         call    store_indirect_with_8bit_displacement
			      C     .ELSEIF (bl == 10b)
 00008920  EB 15	   *	    jmp    @C040B
 00008922		   *@C0409:
 00008922  80 FB 02	   *	    cmp    bl, 002h
 00008925  75 09	   *	    jne    @C040C
			      C       ; It's an indirect memory operand with a 16-bit or 32-bit displacement
 00008927  8A DE	      C         mov     bl,dh
 00008929  E8 00000B58	      C         call    store_indirect_with_xbit_displacement
			      C     .ELSE
 0000892E  EB 07	   *	    jmp    @C040E
 00008930		   *@C040C:
			      C       ; It's a register to register
 00008930  8A DE	      C         mov     bl,dh
 00008932  E8 0000000B	      C         call    store_gp_register
			      C     .ENDIF
 00008937		   *@C040E:
 00008937		   *@C040B:
 00008937		   *@C0408:
 00008937		   *@C0407:
 00008937		   *@C0406:
 00008937  64: FF 05	      C     inc     fs:gp_reg_count
	   000000DF R
			      C 
 0000893E  5A		      C     pop     edx
 0000893F  5B		      C     pop     ebx
 00008940  58		      C     pop     eax
 00008941  C3		      C     ret
 00008942		      C extract_mod_rm      ENDP
			      C 
			      C 
			      C 
			      C 
 00008942		      C store_gp_register       PROC    NEAR
			      C ; This routine is used to store a general purpose register.
			      C ;
			      C ; Upon entry:   fs:[edi] - where to store
			      C ;                     bl - register to store (only lower 3 bits should be populated)
			      C ;        fs:operand_size - indicates what size we're using
			      C ;
			      C ; Upon exit:    fs:[edi] - updated with the register
			      C ;               fs:parameters_text_length - updated with the length of the register
			      C ;
 00008942  50		      C     push    eax
			      C     .IF (fs:special_control != 0)
 00008943  64: 83 3D
	   000000E3 R 00   *	    cmp    fs : special_control, 000h
 0000894B  0F 84 0000020B  *	    je     @C040F
			      C       ; Some special control is required (such as different registers on each side)
			      C         .IF (fs:special_control == 1)
 00008951  64: 83 3D
	   000000E3 R 01   *	    cmp    fs : special_control, 001h
 00008959  75 2A	   *	    jne    @C0411
			      C           ; Special control #1 - sreg,gp
			      C             .IF (fs:gp_reg_count == 0)
 0000895B  64: 83 3D
	   000000DF R 00   *	    cmp    fs : gp_reg_count, 000h
 00008963  75 10	   *	    jne    @C0413
			      C               ; We're on the left side
 00008965  64: C7 05	      C                 mov     fs:special_reg,_SEG_REGS
	   000000AF R
	   00000004
			      C             .ELSE
 00008970  E9 000001E7	   *	    jmp    @C0415
 00008975		   *@C0413:
			      C               ; We're on the right side
 00008975  64: C7 05	      C                 mov     fs:special_reg,_NO_SPECIAL
	   000000AF R
	   00000000
			      C             .ENDIF
			      C         .ELSEIF (fs:special_control == 2)
 00008980  E9 000001D7	   *	    jmp    @C0416
 00008985		   *@C0411:
 00008985  64: 83 3D
	   000000E3 R 02   *	    cmp    fs : special_control, 002h
 0000898D  75 2A	   *	    jne    @C0417
			      C           ; Special control #2 - gp,sreg
			      C             .IF (fs:gp_reg_count == 0)
 0000898F  64: 83 3D
	   000000DF R 00   *	    cmp    fs : gp_reg_count, 000h
 00008997  75 10	   *	    jne    @C0419
			      C               ; We're on the left side
 00008999  64: C7 05	      C                 mov     fs:special_reg,_NO_SPECIAL
	   000000AF R
	   00000000
			      C             .ELSE
 000089A4  E9 000001B3	   *	    jmp    @C041B
 000089A9		   *@C0419:
			      C               ; We're on the right side
 000089A9  64: C7 05	      C                 mov     fs:special_reg,_SEG_REGS
	   000000AF R
	   00000004
			      C             .ENDIF
			      C         .ELSEIF (fs:special_control == 3)
 000089B4  E9 000001A3	   *	    jmp    @C041C
 000089B9		   *@C0417:
 000089B9  64: 83 3D
	   000000E3 R 03   *	    cmp    fs : special_control, 003h
 000089C1  75 2A	   *	    jne    @C041D
			      C           ; Special control #3 - crx,reg32
			      C             .IF (fs:gp_reg_count == 0)
 000089C3  64: 83 3D
	   000000DF R 00   *	    cmp    fs : gp_reg_count, 000h
 000089CB  75 10	   *	    jne    @C041F
			      C               ; We're on the left side
 000089CD  64: C7 05	      C                 mov     fs:special_reg,_CONTROL_REGS
	   000000AF R
	   00000001
			      C             .ELSE
 000089D8  E9 0000017F	   *	    jmp    @C0421
 000089DD		   *@C041F:
			      C               ; We're on the right side
 000089DD  64: C7 05	      C                 mov     fs:special_reg,_NO_SPECIAL
	   000000AF R
	   00000000
			      C             .ENDIF
			      C         .ELSEIF (fs:special_control == 4)
 000089E8  E9 0000016F	   *	    jmp    @C0422
 000089ED		   *@C041D:
 000089ED  64: 83 3D
	   000000E3 R 04   *	    cmp    fs : special_control, 004h
 000089F5  75 2A	   *	    jne    @C0423
			      C           ; Special control #4 - reg32,crx
			      C             .IF (fs:gp_reg_count == 0)
 000089F7  64: 83 3D
	   000000DF R 00   *	    cmp    fs : gp_reg_count, 000h
 000089FF  75 10	   *	    jne    @C0425
			      C               ; We're on the left side
 00008A01  64: C7 05	      C                 mov     fs:special_reg,_NO_SPECIAL
	   000000AF R
	   00000000
			      C             .ELSE
 00008A0C  E9 0000014B	   *	    jmp    @C0427
 00008A11		   *@C0425:
			      C               ; We're on the right side
 00008A11  64: C7 05	      C                 mov     fs:special_reg,_CONTROL_REGS
	   000000AF R
	   00000001
			      C             .ENDIF
			      C         .ELSEIF (fs:special_control == 5)
 00008A1C  E9 0000013B	   *	    jmp    @C0428
 00008A21		   *@C0423:
 00008A21  64: 83 3D
	   000000E3 R 05   *	    cmp    fs : special_control, 005h
 00008A29  75 2A	   *	    jne    @C0429
			      C           ; Special control #5 - drx,reg32
			      C             .IF (fs:gp_reg_count == 0)
 00008A2B  64: 83 3D
	   000000DF R 00   *	    cmp    fs : gp_reg_count, 000h
 00008A33  75 10	   *	    jne    @C042B
			      C               ; We're on the left side
 00008A35  64: C7 05	      C                 mov     fs:special_reg,_DEBUG_REGS
	   000000AF R
	   00000002
			      C             .ELSE
 00008A40  E9 00000117	   *	    jmp    @C042D
 00008A45		   *@C042B:
			      C               ; We're on the right side
 00008A45  64: C7 05	      C                 mov     fs:special_reg,_NO_SPECIAL
	   000000AF R
	   00000000
			      C             .ENDIF
			      C         .ELSEIF (fs:special_control == 6)
 00008A50  E9 00000107	   *	    jmp    @C042E
 00008A55		   *@C0429:
 00008A55  64: 83 3D
	   000000E3 R 06   *	    cmp    fs : special_control, 006h
 00008A5D  75 2A	   *	    jne    @C042F
			      C           ; Special control #6 - reg32,drx
			      C             .IF (fs:gp_reg_count == 0)
 00008A5F  64: 83 3D
	   000000DF R 00   *	    cmp    fs : gp_reg_count, 000h
 00008A67  75 10	   *	    jne    @C0431
			      C               ; We're on the left side
 00008A69  64: C7 05	      C                 mov     fs:special_reg,_NO_SPECIAL
	   000000AF R
	   00000000
			      C             .ELSE
 00008A74  E9 000000E3	   *	    jmp    @C0433
 00008A79		   *@C0431:
			      C               ; We're on the right side
 00008A79  64: C7 05	      C                 mov     fs:special_reg,_DEBUG_REGS
	   000000AF R
	   00000002
			      C             .ENDIF
			      C         .ELSEIF (fs:special_control == 7)
 00008A84  E9 000000D3	   *	    jmp    @C0434
 00008A89		   *@C042F:
 00008A89  64: 83 3D
	   000000E3 R 07   *	    cmp    fs : special_control, 007h
 00008A91  75 2A	   *	    jne    @C0435
			      C           ; Special control #7 - trx,reg32
			      C             .IF (fs:gp_reg_count == 0)
 00008A93  64: 83 3D
	   000000DF R 00   *	    cmp    fs : gp_reg_count, 000h
 00008A9B  75 10	   *	    jne    @C0437
			      C               ; We're on the left side
 00008A9D  64: C7 05	      C                 mov     fs:special_reg,_TEST_REGS
	   000000AF R
	   00000003
			      C             .ELSE
 00008AA8  E9 000000AF	   *	    jmp    @C0439
 00008AAD		   *@C0437:
			      C               ; We're on the right side
 00008AAD  64: C7 05	      C                 mov     fs:special_reg,_NO_SPECIAL
	   000000AF R
	   00000000
			      C             .ENDIF
			      C         .ELSEIF (fs:special_control == 8)
 00008AB8  E9 0000009F	   *	    jmp    @C043A
 00008ABD		   *@C0435:
 00008ABD  64: 83 3D
	   000000E3 R 08   *	    cmp    fs : special_control, 008h
 00008AC5  75 24	   *	    jne    @C043B
			      C           ; Special control #8 - reg32,trx
			      C             .IF (fs:gp_reg_count == 0)
 00008AC7  64: 83 3D
	   000000DF R 00   *	    cmp    fs : gp_reg_count, 000h
 00008ACF  75 0D	   *	    jne    @C043D
			      C               ; We're on the left side
 00008AD1  64: C7 05	      C                 mov     fs:special_reg,_NO_SPECIAL
	   000000AF R
	   00000000
			      C             .ELSE
 00008ADC  EB 7E	   *	    jmp    @C043F
 00008ADE		   *@C043D:
			      C               ; We're on the right side
 00008ADE  64: C7 05	      C                 mov     fs:special_reg,_TEST_REGS
	   000000AF R
	   00000003
			      C             .ENDIF
			      C         .ELSEIF (fs:special_control == 9)
 00008AE9  EB 71	   *	    jmp    @C0440
 00008AEB		   *@C043B:
 00008AEB  64: 83 3D
	   000000E3 R 09   *	    cmp    fs : special_control, 009h
 00008AF3  75 0D	   *	    jne    @C0441
			      C           ; Special control #9 - mmx,mmx
 00008AF5  64: C7 05	      C             mov     fs:special_reg,_MMX_REGS
	   000000AF R
	   00000006
			      C         .ELSEIF (fs:special_control == 10)
 00008B00  EB 5A	   *	    jmp    @C0443
 00008B02		   *@C0441:
 00008B02  64: 83 3D
	   000000E3 R 0A   *	    cmp    fs : special_control, 00Ah
 00008B0A  75 24	   *	    jne    @C0444
			      C           ; Special control #10 - mmx,reg32
			      C             .IF (fs:gp_reg_count == 0)
 00008B0C  64: 83 3D
	   000000DF R 00   *	    cmp    fs : gp_reg_count, 000h
 00008B14  75 0D	   *	    jne    @C0446
			      C               ; We're on the left side
 00008B16  64: C7 05	      C                 mov     fs:special_reg,_MMX_REGS
	   000000AF R
	   00000006
			      C             .ELSE
 00008B21  EB 39	   *	    jmp    @C0448
 00008B23		   *@C0446:
			      C               ; We're on the right side
 00008B23  64: C7 05	      C                 mov     fs:special_reg,_NO_SPECIAL
	   000000AF R
	   00000000
			      C             .ENDIF
			      C         .ELSEIF (fs:special_control == 11)
 00008B2E  EB 2C	   *	    jmp    @C0449
 00008B30		   *@C0444:
 00008B30  64: 83 3D
	   000000E3 R 0B   *	    cmp    fs : special_control, 00Bh
 00008B38  75 22	   *	    jne    @C044A
			      C           ; Special control #11 - reg32,mmx
			      C             .IF (fs:gp_reg_count == 0)
 00008B3A  64: 83 3D
	   000000DF R 00   *	    cmp    fs : gp_reg_count, 000h
 00008B42  75 0D	   *	    jne    @C044C
			      C               ; We're on the left side
 00008B44  64: C7 05	      C                 mov     fs:special_reg,_NO_SPECIAL
	   000000AF R
	   00000000
			      C             .ELSE
 00008B4F  EB 0B	   *	    jmp    @C044E
 00008B51		   *@C044C:
			      C               ; We're on the right side
 00008B51  64: C7 05	      C                 mov     fs:special_reg,_MMX_REGS
	   000000AF R
	   00000006
			      C             .ENDIF
			      C         .ENDIF
 00008B5C		   *@C044E:
			      C     .ENDIF
 00008B5C		   *@C044A:
 00008B5C		   *@C0449:
 00008B5C		   *@C0443:
 00008B5C		   *@C0440:
 00008B5C		   *@C043A:
 00008B5C		   *@C0434:
 00008B5C		   *@C042E:
 00008B5C		   *@C0428:
 00008B5C		   *@C0422:
 00008B5C		   *@C041C:
 00008B5C		   *@C0416:
 00008B5C		   *@C0415:
 00008B5C		   *@C041B:
 00008B5C		   *@C0421:
 00008B5C		   *@C0427:
 00008B5C		   *@C042D:
 00008B5C		   *@C0433:
 00008B5C		   *@C0439:
 00008B5C		   *@C043F:
 00008B5C		   *@C0448:
 00008B5C		   *@C040F:
			      C     .IF (fs:special_reg == _NO_SPECIAL)
 00008B5C  64: 83 3D
	   000000AF R 00   *	    cmp    fs : special_reg, _NO_SPECIAL
 00008B64  0F 85 00000229  *	    jne    @C044F
			      C         .IF (fs:movxx_register != 0)
 00008B6A  64: 83 3D
	   000000CF R 00   *	    cmp    fs : movxx_register, 000h
 00008B72  74 53	   *	    je     @C0451
			      C             .IF (fs:first_gp_register != 0)
 00008B74  64: 83 3D
	   000000D3 R 00   *	    cmp    fs : first_gp_register, 000h
 00008B7C  74 13	   *	    je     @C0453
			      C               ; We're storing the first gp register
 00008B7E  64: A1	      C                 mov     eax,fs:first_gp_register
	   000000D3 R
 00008B84  64: C7 05	      C                 mov     fs:first_gp_register,0
	   000000D3 R
	   00000000
			      C             .ELSE
 00008B8F  EB 11	   *	    jmp    @C0455
 00008B91		   *@C0453:
			      C               ; We're storing the second gp register
 00008B91  64: A1	      C                 mov     eax,fs:second_gp_register
	   000000D7 R
 00008B97  64: C7 05	      C                 mov     fs:second_gp_register,0
	   000000D7 R
	   00000000
			      C             .ENDIF
 00008BA2		   *@C0455:
 00008BA2  64: A3	      C             mov     fs:operand_size,eax
	   00000127 R
			      C             .IF (fs:operand_size == 8)
 00008BA8  64: 83 3D
	   00000127 R 08   *	    cmp    fs : operand_size, 008h
 00008BB0  75 04	   *	    jne    @C0456
 00008BB2  EB 1D	      C                 jmp     force_8
			      C             .ELSEIF (fs:operand_size == 16)
 00008BB4  EB 0C	   *	    jmp    @C0458
 00008BB6		   *@C0456:
 00008BB6  64: 83 3D
	   00000127 R 10   *	    cmp    fs : operand_size, 010h
 00008BBE  75 02	   *	    jne    @C0459
 00008BC0  EB 7D	      C                 jmp     force_16
			      C             .ENDIF
 00008BC2		   *@C0459:
 00008BC2		   *@C0458:
 00008BC2  E9 00000159	      C             jmp     force_32
			      C         .ENDIF
			      C         .IF (fs:operand_size == 8)
 00008BC7		   *@C0451:
 00008BC7  64: 83 3D
	   00000127 R 08   *	    cmp    fs : operand_size, 008h
 00008BCF  75 64	   *	    jne    @C045B
			      C           ; It's a byte register
 00008BD1		      C           force_8:
			      C             .IF (bl == 000b)
 00008BD1  0A DB	   *	    or	bl, bl
 00008BD3  75 06	   *	    jne    @C045D
			      C               ; It's al
 00008BD5  66| B8 6C61	      C                 mov     ax,'la'
			      C             .ELSEIF (bl == 001b)
 00008BD9  EB 46	   *	    jmp    @C045F
 00008BDB		   *@C045D:
 00008BDB  80 FB 01	   *	    cmp    bl, 001h
 00008BDE  75 06	   *	    jne    @C0460
			      C               ; It's cl
 00008BE0  66| B8 6C63	      C                 mov     ax,'lc'
			      C             .ELSEIF (bl == 010b)
 00008BE4  EB 3B	   *	    jmp    @C0462
 00008BE6		   *@C0460:
 00008BE6  80 FB 02	   *	    cmp    bl, 002h
 00008BE9  75 06	   *	    jne    @C0463
			      C               ; It's dl
 00008BEB  66| B8 6C64	      C                 mov     ax,'ld'
			      C             .ELSEIF (bl == 011b)
 00008BEF  EB 30	   *	    jmp    @C0465
 00008BF1		   *@C0463:
 00008BF1  80 FB 03	   *	    cmp    bl, 003h
 00008BF4  75 06	   *	    jne    @C0466
			      C               ; It's bl
 00008BF6  66| B8 6C62	      C                 mov     ax,'lb'
			      C             .ELSEIF (bl == 100b)
 00008BFA  EB 25	   *	    jmp    @C0468
 00008BFC		   *@C0466:
 00008BFC  80 FB 04	   *	    cmp    bl, 004h
 00008BFF  75 06	   *	    jne    @C0469
			      C               ; It's ah
 00008C01  66| B8 6861	      C                 mov     ax,'ha'
			      C             .ELSEIF (bl == 101b)
 00008C05  EB 1A	   *	    jmp    @C046B
 00008C07		   *@C0469:
 00008C07  80 FB 05	   *	    cmp    bl, 005h
 00008C0A  75 06	   *	    jne    @C046C
			      C               ; It's ch
 00008C0C  66| B8 6863	      C                 mov     ax,'hc'
			      C             .ELSEIF (bl == 110b)
 00008C10  EB 0F	   *	    jmp    @C046E
 00008C12		   *@C046C:
 00008C12  80 FB 06	   *	    cmp    bl, 006h
 00008C15  75 06	   *	    jne    @C046F
			      C               ; It's dh
 00008C17  66| B8 6864	      C                 mov     ax,'hd'
			      C             .ELSE
 00008C1B  EB 04	   *	    jmp    @C0471
 00008C1D		   *@C046F:
			      C               ; It's bh
 00008C1D  66| B8 6862	      C                 mov     ax,'hb'
			      C             .ENDIF
 00008C21		   *@C0471:
 00008C21		   *@C046E:
 00008C21		   *@C046B:
 00008C21		   *@C0468:
 00008C21		   *@C0465:
 00008C21		   *@C0462:
 00008C21		   *@C045F:
 00008C21  66| 64: 89 07      C             mov     word ptr fs:[edi],ax
 00008C25  64: 83 05	      C             add     fs:parameters_text_length,2
	   000000F7 R 02
 00008C2D  83 C7 02	      C             add     edi,2
			      C         .ELSEIF (fs:operand_size == 16)
 00008C30  E9 0000022A	   *	    jmp    @C0472
 00008C35		   *@C045B:
 00008C35  64: 83 3D
	   00000127 R 10   *	    cmp    fs : operand_size, 010h
 00008C3D  75 64	   *	    jne    @C0473
			      C           ; It's a word register
			      C ;            .IF (fs:op_size_override != 0)
			      C ;              ; They've overriden the default
			      C ;                jmp     force_32
			      C ;            .ENDIF
 00008C3F		      C           force_16:
			      C             .IF (bl == 000b)
 00008C3F  0A DB	   *	    or	bl, bl
 00008C41  75 06	   *	    jne    @C0475
			      C               ; It's al
 00008C43  66| B8 7861	      C                 mov     ax,'xa'
			      C             .ELSEIF (bl == 001b)
 00008C47  EB 46	   *	    jmp    @C0477
 00008C49		   *@C0475:
 00008C49  80 FB 01	   *	    cmp    bl, 001h
 00008C4C  75 06	   *	    jne    @C0478
			      C               ; It's cl
 00008C4E  66| B8 7863	      C                 mov     ax,'xc'
			      C             .ELSEIF (bl == 010b)
 00008C52  EB 3B	   *	    jmp    @C047A
 00008C54		   *@C0478:
 00008C54  80 FB 02	   *	    cmp    bl, 002h
 00008C57  75 06	   *	    jne    @C047B
			      C               ; It's dl
 00008C59  66| B8 7864	      C                 mov     ax,'xd'
			      C             .ELSEIF (bl == 011b)
 00008C5D  EB 30	   *	    jmp    @C047D
 00008C5F		   *@C047B:
 00008C5F  80 FB 03	   *	    cmp    bl, 003h
 00008C62  75 06	   *	    jne    @C047E
			      C               ; It's bl
 00008C64  66| B8 7862	      C                 mov     ax,'xb'
			      C             .ELSEIF (bl == 100b)
 00008C68  EB 25	   *	    jmp    @C0480
 00008C6A		   *@C047E:
 00008C6A  80 FB 04	   *	    cmp    bl, 004h
 00008C6D  75 06	   *	    jne    @C0481
			      C               ; It's ah
 00008C6F  66| B8 7073	      C                 mov     ax,'ps'
			      C             .ELSEIF (bl == 101b)
 00008C73  EB 1A	   *	    jmp    @C0483
 00008C75		   *@C0481:
 00008C75  80 FB 05	   *	    cmp    bl, 005h
 00008C78  75 06	   *	    jne    @C0484
			      C               ; It's ch
 00008C7A  66| B8 7062	      C                 mov     ax,'pb'
			      C             .ELSEIF (bl == 110b)
 00008C7E  EB 0F	   *	    jmp    @C0486
 00008C80		   *@C0484:
 00008C80  80 FB 06	   *	    cmp    bl, 006h
 00008C83  75 06	   *	    jne    @C0487
			      C               ; It's dh
 00008C85  66| B8 6973	      C                 mov     ax,'is'
			      C             .ELSE
 00008C89  EB 04	   *	    jmp    @C0489
 00008C8B		   *@C0487:
			      C               ; It's bh
 00008C8B  66| B8 6964	      C                 mov     ax,'id'
			      C             .ENDIF
 00008C8F		   *@C0489:
 00008C8F		   *@C0486:
 00008C8F		   *@C0483:
 00008C8F		   *@C0480:
 00008C8F		   *@C047D:
 00008C8F		   *@C047A:
 00008C8F		   *@C0477:
 00008C8F  66| 64: 89 07      C             mov     word ptr fs:[edi],ax
 00008C93  64: 83 05	      C             add     fs:parameters_text_length,2
	   000000F7 R 02
 00008C9B  83 C7 02	      C             add     edi,2
			      C         .ELSEIF (fs:operand_size == 64)
 00008C9E  E9 000001BC	   *	    jmp    @C048A
 00008CA3		   *@C0473:
 00008CA3  64: 83 3D
	   00000127 R 40   *	    cmp    fs : operand_size, 040h
 00008CAB  75 73	   *	    jne    @C048B
			      C           ; 64-bit registers
			      C             .IF (bl == 000b)
 00008CAD  0A DB	   *	    or	bl, bl
 00008CAF  75 07	   *	    jne    @C048D
			      C               ; It's al
 00008CB1  B8 0078613F	      C                 mov     eax,'xa?'
			      C             .ELSEIF (bl == 001b)
 00008CB6  EB 4D	   *	    jmp    @C048F
 00008CB8		   *@C048D:
 00008CB8  80 FB 01	   *	    cmp    bl, 001h
 00008CBB  75 07	   *	    jne    @C0490
			      C               ; It's cl
 00008CBD  B8 0078633F	      C                 mov     eax,'xc?'
			      C             .ELSEIF (bl == 010b)
 00008CC2  EB 41	   *	    jmp    @C0492
 00008CC4		   *@C0490:
 00008CC4  80 FB 02	   *	    cmp    bl, 002h
 00008CC7  75 07	   *	    jne    @C0493
			      C               ; It's dl
 00008CC9  B8 0078643F	      C                 mov     eax,'xd?'
			      C             .ELSEIF (bl == 011b)
 00008CCE  EB 35	   *	    jmp    @C0495
 00008CD0		   *@C0493:
 00008CD0  80 FB 03	   *	    cmp    bl, 003h
 00008CD3  75 07	   *	    jne    @C0496
			      C               ; It's bl
 00008CD5  B8 0078623F	      C                 mov     eax,'xb?'
			      C             .ELSEIF (bl == 100b)
 00008CDA  EB 29	   *	    jmp    @C0498
 00008CDC		   *@C0496:
 00008CDC  80 FB 04	   *	    cmp    bl, 004h
 00008CDF  75 07	   *	    jne    @C0499
			      C               ; It's ah
 00008CE1  B8 0070733F	      C                 mov     eax,'ps?'
			      C             .ELSEIF (bl == 101b)
 00008CE6  EB 1D	   *	    jmp    @C049B
 00008CE8		   *@C0499:
 00008CE8  80 FB 05	   *	    cmp    bl, 005h
 00008CEB  75 07	   *	    jne    @C049C
			      C               ; It's ch
 00008CED  B8 0070623F	      C                 mov     eax,'pb?'
			      C             .ELSEIF (bl == 110b)
 00008CF2  EB 11	   *	    jmp    @C049E
 00008CF4		   *@C049C:
 00008CF4  80 FB 06	   *	    cmp    bl, 006h
 00008CF7  75 07	   *	    jne    @C049F
			      C               ; It's dh
 00008CF9  B8 0069733F	      C                 mov     eax,'is?'
			      C             .ELSE
 00008CFE  EB 05	   *	    jmp    @C04A1
 00008D00		   *@C049F:
			      C               ; It's bh
 00008D00  B8 0069643F	      C                 mov     eax,'id?'
			      C             .ENDIF
 00008D05		   *@C04A1:
 00008D05		   *@C049E:
 00008D05		   *@C049B:
 00008D05		   *@C0498:
 00008D05		   *@C0495:
 00008D05		   *@C0492:
 00008D05		   *@C048F:
 00008D05  66| 64: 89 07      C             mov     word ptr fs:[edi],ax
 00008D09  C1 E8 10	      C             shr     eax,16
 00008D0C  64: 88 47 02	      C             mov     byte ptr fs:[edi+2],al
 00008D10  64: 83 05	      C             add     fs:parameters_text_length,3
	   000000F7 R 03
 00008D18  83 C7 03	      C             add     edi,3
			      C         .ELSE
 00008D1B  E9 0000013F	   *	    jmp    @C04A2
 00008D20		   *@C048B:
			      C           ; It's a dword register
			      C ;            .IF (fs:op_size_override != 0)
			      C ;              ; They've overriden the default
			      C ;                jmp     force_16
			      C ;            .ENDIF
 00008D20		      C           force_32:
			      C             .IF (bl == 000b)
 00008D20  0A DB	   *	    or	bl, bl
 00008D22  75 07	   *	    jne    @C04A3
			      C               ; It's al
 00008D24  B8 00786165	      C                 mov     eax,'xae'
			      C             .ELSEIF (bl == 001b)
 00008D29  EB 4D	   *	    jmp    @C04A5
 00008D2B		   *@C04A3:
 00008D2B  80 FB 01	   *	    cmp    bl, 001h
 00008D2E  75 07	   *	    jne    @C04A6
			      C               ; It's cl
 00008D30  B8 00786365	      C                 mov     eax,'xce'
			      C             .ELSEIF (bl == 010b)
 00008D35  EB 41	   *	    jmp    @C04A8
 00008D37		   *@C04A6:
 00008D37  80 FB 02	   *	    cmp    bl, 002h
 00008D3A  75 07	   *	    jne    @C04A9
			      C               ; It's dl
 00008D3C  B8 00786465	      C                 mov     eax,'xde'
			      C             .ELSEIF (bl == 011b)
 00008D41  EB 35	   *	    jmp    @C04AB
 00008D43		   *@C04A9:
 00008D43  80 FB 03	   *	    cmp    bl, 003h
 00008D46  75 07	   *	    jne    @C04AC
			      C               ; It's bl
 00008D48  B8 00786265	      C                 mov     eax,'xbe'
			      C             .ELSEIF (bl == 100b)
 00008D4D  EB 29	   *	    jmp    @C04AE
 00008D4F		   *@C04AC:
 00008D4F  80 FB 04	   *	    cmp    bl, 004h
 00008D52  75 07	   *	    jne    @C04AF
			      C               ; It's ah
 00008D54  B8 00707365	      C                 mov     eax,'pse'
			      C             .ELSEIF (bl == 101b)
 00008D59  EB 1D	   *	    jmp    @C04B1
 00008D5B		   *@C04AF:
 00008D5B  80 FB 05	   *	    cmp    bl, 005h
 00008D5E  75 07	   *	    jne    @C04B2
			      C               ; It's ch
 00008D60  B8 00706265	      C                 mov     eax,'pbe'
			      C             .ELSEIF (bl == 110b)
 00008D65  EB 11	   *	    jmp    @C04B4
 00008D67		   *@C04B2:
 00008D67  80 FB 06	   *	    cmp    bl, 006h
 00008D6A  75 07	   *	    jne    @C04B5
			      C               ; It's dh
 00008D6C  B8 00697365	      C                 mov     eax,'ise'
			      C             .ELSE
 00008D71  EB 05	   *	    jmp    @C04B7
 00008D73		   *@C04B5:
			      C               ; It's bh
 00008D73  B8 00696465	      C                 mov     eax,'ide'
			      C             .ENDIF
 00008D78		   *@C04B7:
 00008D78		   *@C04B4:
 00008D78		   *@C04B1:
 00008D78		   *@C04AE:
 00008D78		   *@C04AB:
 00008D78		   *@C04A8:
 00008D78		   *@C04A5:
 00008D78  66| 64: 89 07      C             mov     word ptr fs:[edi],ax
 00008D7C  C1 E8 10	      C             shr     eax,16
 00008D7F  64: 88 47 02	      C             mov     byte ptr fs:[edi+2],al
 00008D83  64: 83 05	      C             add     fs:parameters_text_length,3
	   000000F7 R 03
 00008D8B  83 C7 03	      C             add     edi,3
			      C         .ENDIF
			      C     .ELSEIF (fs:special_reg == _SEG_REGS)
 00008D8E  E9 000000CC	   *	    jmp    @C04B8
 00008D93		   *@C044F:
 00008D93  64: 83 3D
	   000000AF R 04   *	    cmp    fs : special_reg, _SEG_REGS
 00008D9B  75 56	   *	    jne    @C04B9
			      C         .IF (bl == 000b)
 00008D9D  0A DB	   *	    or	bl, bl
 00008D9F  75 06	   *	    jne    @C04BB
			      C           ; es
 00008DA1  66| B8 7365	      C             mov     ax,'se'
			      C         .ELSEIF (bl == 001b)
 00008DA5  EB 3B	   *	    jmp    @C04BD
 00008DA7		   *@C04BB:
 00008DA7  80 FB 01	   *	    cmp    bl, 001h
 00008DAA  75 06	   *	    jne    @C04BE
			      C           ; cs
 00008DAC  66| B8 7363	      C             mov     ax,'sc'
			      C         .ELSEIF (bl == 010b)
 00008DB0  EB 30	   *	    jmp    @C04C0
 00008DB2		   *@C04BE:
 00008DB2  80 FB 02	   *	    cmp    bl, 002h
 00008DB5  75 06	   *	    jne    @C04C1
			      C           ; ss
 00008DB7  66| B8 7373	      C             mov     ax,'ss'
			      C         .ELSEIF (bl == 011b)
 00008DBB  EB 25	   *	    jmp    @C04C3
 00008DBD		   *@C04C1:
 00008DBD  80 FB 03	   *	    cmp    bl, 003h
 00008DC0  75 06	   *	    jne    @C04C4
			      C           ; ds
 00008DC2  66| B8 7364	      C             mov     ax,'sd'
			      C         .ELSEIF (bl == 100b)
 00008DC6  EB 1A	   *	    jmp    @C04C6
 00008DC8		   *@C04C4:
 00008DC8  80 FB 04	   *	    cmp    bl, 004h
 00008DCB  75 06	   *	    jne    @C04C7
			      C           ; fs
 00008DCD  66| B8 7366	      C             mov     ax,'sf'
			      C         .ELSEIF (bl == 101b)
 00008DD1  EB 0F	   *	    jmp    @C04C9
 00008DD3		   *@C04C7:
 00008DD3  80 FB 05	   *	    cmp    bl, 005h
 00008DD6  75 06	   *	    jne    @C04CA
			      C           ; gs
 00008DD8  66| B8 7367	      C             mov     ax,'sg'
			      C         .ELSE
 00008DDC  EB 04	   *	    jmp    @C04CC
 00008DDE		   *@C04CA:
			      C           ; ?s
 00008DDE  66| B8 733F	      C             mov     ax,'s?'
			      C         .ENDIF
 00008DE2		   *@C04CC:
 00008DE2		   *@C04C9:
 00008DE2		   *@C04C6:
 00008DE2		   *@C04C3:
 00008DE2		   *@C04C0:
 00008DE2		   *@C04BD:
 00008DE2  66| 64: 89 07      C         mov     word ptr fs:[edi],ax
 00008DE6  83 C7 02	      C         add     edi,2
 00008DE9  64: 83 05	      C         add     fs:parameters_text_length,2
	   000000F7 R 02
			      C     .ELSE
 00008DF1  EB 6C	   *	    jmp    @C04CD
 00008DF3		   *@C04B9:
 00008DF3  64: A1	      C         mov     eax,fs:special_reg
	   000000AF R
			      C         .IF (eax == _CONTROL_REGS)
 00008DF9  83 F8 01	   *	    cmp    eax, _CONTROL_REGS
 00008DFC  75 08	   *	    jne    @C04CE
			      C           ; CR0-7
 00008DFE  66| 64: C7 07      C             mov     word ptr fs:[edi],'rc'
	   7263
			      C         .ELSEIF (eax == _DEBUG_REGS)
 00008E04  EB 47	   *	    jmp    @C04D0
 00008E06		   *@C04CE:
 00008E06  83 F8 02	   *	    cmp    eax, _DEBUG_REGS
 00008E09  75 08	   *	    jne    @C04D1
			      C           ; DR0-7
 00008E0B  66| 64: C7 07      C             mov     word ptr fs:[edi],'rd'
	   7264
			      C         .ELSEIF (eax == _TEST_REGS)
 00008E11  EB 3A	   *	    jmp    @C04D3
 00008E13		   *@C04D1:
 00008E13  83 F8 03	   *	    cmp    eax, _TEST_REGS
 00008E16  75 08	   *	    jne    @C04D4
			      C           ; TR0-7
 00008E18  66| 64: C7 07      C             mov     word ptr fs:[edi],'rt'
	   7274
			      C         .ELSEIF (eax == _STx_REGS)
 00008E1E  EB 2D	   *	    jmp    @C04D6
 00008E20		   *@C04D4:
 00008E20  83 F8 05	   *	    cmp    eax, _STx_REGS
 00008E23  75 08	   *	    jne    @C04D7
 00008E25  66| 64: C7 07      C             mov     word ptr fs:[edi],'ts'
	   7473
			      C         .ELSEIF (eax == _MMX_REGS)
 00008E2B  EB 20	   *	    jmp    @C04D9
 00008E2D		   *@C04D7:
 00008E2D  83 F8 06	   *	    cmp    eax, _MMX_REGS
 00008E30  75 08	   *	    jne    @C04DA
 00008E32  66| 64: C7 07      C             mov     word ptr fs:[edi],'mm'
	   6D6D
			      C         .ELSEIF (eax == _XMM_REGS)
 00008E38  EB 13	   *	    jmp    @C04DC
 00008E3A		   *@C04DA:
 00008E3A  83 F8 07	   *	    cmp    eax, _XMM_REGS
 00008E3D  75 08	   *	    jne    @C04DD
 00008E3F  66| 64: C7 07      C             mov     word ptr fs:[edi],'mx'
	   6D78
			      C         .ELSE
 00008E45  EB 06	   *	    jmp    @C04DF
 00008E47		   *@C04DD:
			      C           ; Who knows ... something else
 00008E47  66| 64: C7 07      C             mov     word ptr fs:[edi],'??'
	   3F3F
			      C         .ENDIF
 00008E4D		   *@C04DF:
 00008E4D		   *@C04DC:
 00008E4D		   *@C04D9:
 00008E4D		   *@C04D6:
 00008E4D		   *@C04D3:
 00008E4D		   *@C04D0:
 00008E4D  80 C3 30	      C         add     bl,'0'
 00008E50  64: 88 5F 02	      C         mov     byte ptr fs:[edi+2],bl
 00008E54  64: 83 05	      C         add     fs:parameters_text_length,3
	   000000F7 R 03
 00008E5C  83 C7 03	      C         add     edi,3
			      C     .ENDIF
 00008E5F		   *@C04CD:
 00008E5F		   *@C04B8:
 00008E5F		   *@C04A2:
 00008E5F		   *@C048A:
 00008E5F		   *@C0472:
 00008E5F  58		      C     pop     eax
 00008E60  C3		      C     ret
 00008E61		      C store_gp_register       ENDP
			      C 
			      C 
			      C 
			      C 
 00008E61		      C store_displacement_registers        PROC    NEAR
			      C ; This routine is used to store a displacement register.
			      C ;
			      C ; Upon entry:   fs:[edi] - where to store
			      C ;                     bl - register to store (only lower 3 bits should be populated)
			      C ;        fs:operand_size - indicates what size we're using
			      C ;
			      C ; Upon exit:    fs:[edi] - updated with the register
			      C ;               fs:parameters_text_length - updated with the length of the register
			      C ;
			      C     .IF ((fs:cpu_mode == 0 && fs:adr_size_override != 0) || (fs:cpu_mode != 0 && fs:adr_size_override == 0))
 00008E61  64: 83 3D
	   0000009B R 00   *	    cmp    fs : cpu_mode, 000h
 00008E69  75 0A	   *	    jne    @C04E2
 00008E6B  64: 83 3D
	   000000C3 R 00   *	    cmp    fs : adr_size_override, 000h
 00008E73  75 14	   *	    jne    @C04E1
 00008E75		   *@C04E2:
 00008E75  64: 83 3D
	   0000009B R 00   *	    cmp    fs : cpu_mode, 000h
 00008E7D  74 14	   *	    je     @C04E0
 00008E7F  64: 83 3D
	   000000C3 R 00   *	    cmp    fs : adr_size_override, 000h
 00008E87  75 0A	   *	    jne    @C04E0
 00008E89		   *@C04E1:
			      C       ; It's a 16-bit displacement (small registers)
 00008E89  E8 000000D0	      C         call    store_16_bit_displacement_registers
			      C     .ELSE
 00008E8E  E9 000000CA	   *	    jmp    @C04E5
 00008E93		   *@C04E0:
			      C         .IF (bl == 000b)
 00008E93  0A DB	   *	    or	bl, bl
 00008E95  75 17	   *	    jne    @C04E6
			      C           ; It's eax
 00008E97  64: C7 07	      C             mov     dword ptr fs:[edi+0],'xae'
	   00786165
 00008E9E  64: 83 05	      C             add     fs:parameters_text_length,3
	   000000F7 R 03
 00008EA6  83 C7 03	      C             add     edi,3
			      C         .ELSEIF (bl == 001b)
 00008EA9  E9 000000AF	   *	    jmp    @C04E8
 00008EAE		   *@C04E6:
 00008EAE  80 FB 01	   *	    cmp    bl, 001h
 00008EB1  75 17	   *	    jne    @C04E9
			      C           ; It's ecx
 00008EB3  64: C7 07	      C             mov     dword ptr fs:[edi+0],'xce'
	   00786365
 00008EBA  64: 83 05	      C             add     fs:parameters_text_length,3
	   000000F7 R 03
 00008EC2  83 C7 03	      C             add     edi,3
			      C         .ELSEIF (bl == 010b)
 00008EC5  E9 00000093	   *	    jmp    @C04EB
 00008ECA		   *@C04E9:
 00008ECA  80 FB 02	   *	    cmp    bl, 002h
 00008ECD  75 14	   *	    jne    @C04EC
			      C           ; It's edx
 00008ECF  64: C7 07	      C             mov     dword ptr fs:[edi+0],'xde'
	   00786465
 00008ED6  64: 83 05	      C             add     fs:parameters_text_length,3
	   000000F7 R 03
 00008EDE  83 C7 03	      C             add     edi,3
			      C         .ELSEIF (bl == 011b)
 00008EE1  EB 7A	   *	    jmp    @C04EE
 00008EE3		   *@C04EC:
 00008EE3  80 FB 03	   *	    cmp    bl, 003h
 00008EE6  75 14	   *	    jne    @C04EF
			      C           ; It's ebx
 00008EE8  64: C7 07	      C             mov     dword ptr fs:[edi+0],'xbe'
	   00786265
 00008EEF  64: 83 05	      C             add     fs:parameters_text_length,3
	   000000F7 R 03
 00008EF7  83 C7 03	      C             add     edi,3
			      C         .ELSEIF (bl == 100b)
 00008EFA  EB 61	   *	    jmp    @C04F1
 00008EFC		   *@C04EF:
 00008EFC  80 FB 04	   *	    cmp    bl, 004h
 00008EFF  75 25	   *	    jne    @C04F2
			      C           ; It has a SIB byte
 00008F01  53		      C             push    ebx
 00008F02  64: 89 35	      C             mov     fs:sib_offset,esi
	   00000113 R
 00008F09  64: C7 05	      C             mov     fs:sib_bytes,1
	   00000117 R
	   00000001
 00008F14  8A 1E	      C             mov     bl,ds:[esi]
 00008F16  46		      C             inc     esi
 00008F17  64: FF 05	      C             inc     fs:instruction_bytes
	   000000EB R
 00008F1E  E8 0000021F	      C             call    store_displacement_registers_sib
 00008F23  5B		      C             pop     ebx
			      C         .ELSEIF (bl == 101b)
 00008F24  EB 37	   *	    jmp    @C04F4
 00008F26		   *@C04F2:
 00008F26  80 FB 05	   *	    cmp    bl, 005h
 00008F29  75 07	   *	    jne    @C04F5
			      C           ; It's disp32
 00008F2B  E8 000005FD	      C             call    store_32_bit_value
			      C         .ELSEIF (bl == 110b)
 00008F30  EB 2B	   *	    jmp    @C04F7
 00008F32		   *@C04F5:
 00008F32  80 FB 06	   *	    cmp    bl, 006h
 00008F35  75 14	   *	    jne    @C04F8
			      C           ; It's esi
 00008F37  64: C7 07	      C             mov     dword ptr fs:[edi],'ise'
	   00697365
 00008F3E  64: 83 05	      C             add     fs:parameters_text_length,3
	   000000F7 R 03
 00008F46  83 C7 03	      C             add     edi,3
			      C         .ELSE
 00008F49  EB 12	   *	    jmp    @C04FA
 00008F4B		   *@C04F8:
			      C           ; It's edi
 00008F4B  64: C7 07	      C             mov     dword ptr fs:[edi],'ide'
	   00696465
 00008F52  64: 83 05	      C             add     fs:parameters_text_length,3
	   000000F7 R 03
 00008F5A  83 C7 03	      C             add     edi,3
			      C         .ENDIF
			      C     .ENDIF
 00008F5D		   *@C04FA:
 00008F5D		   *@C04F7:
 00008F5D		   *@C04F4:
 00008F5D		   *@C04F1:
 00008F5D		   *@C04EE:
 00008F5D		   *@C04EB:
 00008F5D		   *@C04E8:
 00008F5D		   *@C04E5:
 00008F5D  C3		      C     ret
 00008F5E		      C store_displacement_registers        ENDP
			      C 
			      C 
			      C 
			      C 
 00008F5E		      C store_16_bit_displacement_registers     PROC    NEAR
			      C ; This routine is used to store the displacement registers for 16-bit coding modes
			      C ;
			      C ; Upon entry:   bl - r/m value
			      C ;               fs:[edi] - where to store
			      C ;
			      C ; Upon exit:    fs:[edi] - updated
			      C ;                    edi - updated
			      C ;
			      C     .IF (bl == 000b)
 00008F5E  0A DB	   *	    or	bl, bl
 00008F60  75 1C	   *	    jne    @C04FB
			      C       ; It's si+bx
 00008F62  64: C7 07	      C         mov     dword ptr fs:[edi],'b+is'
	   622B6973
 00008F69  64: C6 47 04	      C         mov     byte ptr fs:[edi+4],'x'
	   78
 00008F6E  64: 83 05	      C         add     fs:parameters_text_length,5
	   000000F7 R 05
 00008F76  83 C7 05	      C         add     edi,5
			      C     .ELSEIF (bl == 001b)
 00008F79  E9 000000B6	   *	    jmp    @C04FD
 00008F7E		   *@C04FB:
 00008F7E  80 FB 01	   *	    cmp    bl, 001h
 00008F81  75 1C	   *	    jne    @C04FE
			      C       ; It's di+bx
 00008F83  64: C7 07	      C         mov     dword ptr fs:[edi],'b+id'
	   622B6964
 00008F8A  64: C6 47 04	      C         mov     byte ptr fs:[edi+4],'x'
	   78
 00008F8F  64: 83 05	      C         add     fs:parameters_text_length,5
	   000000F7 R 05
 00008F97  83 C7 05	      C         add     edi,5
			      C     .ELSEIF (bl == 010b)
 00008F9A  E9 00000095	   *	    jmp    @C0500
 00008F9F		   *@C04FE:
 00008F9F  80 FB 02	   *	    cmp    bl, 002h
 00008FA2  75 19	   *	    jne    @C0501
			      C       ; It's si+bp
 00008FA4  64: C7 07	      C         mov     dword ptr fs:[edi],'b+is'
	   622B6973
 00008FAB  64: C6 47 04	      C         mov     byte ptr fs:[edi+4],'p'
	   70
 00008FB0  64: 83 05	      C         add     fs:parameters_text_length,5
	   000000F7 R 05
 00008FB8  83 C7 05	      C         add     edi,5
			      C     .ELSEIF (bl == 011b)
 00008FBB  EB 77	   *	    jmp    @C0503
 00008FBD		   *@C0501:
 00008FBD  80 FB 03	   *	    cmp    bl, 003h
 00008FC0  75 19	   *	    jne    @C0504
			      C       ; It's di+bp
 00008FC2  64: C7 07	      C         mov     dword ptr fs:[edi],'b+id'
	   622B6964
 00008FC9  64: C6 47 04	      C         mov     byte ptr fs:[edi+4],'p'
	   70
 00008FCE  64: 83 05	      C         add     fs:parameters_text_length,5
	   000000F7 R 05
 00008FD6  83 C7 05	      C         add     edi,5
			      C     .ELSEIF (bl == 100b)
 00008FD9  EB 59	   *	    jmp    @C0506
 00008FDB		   *@C0504:
 00008FDB  80 FB 04	   *	    cmp    bl, 004h
 00008FDE  75 13	   *	    jne    @C0507
			      C       ; It's si
 00008FE0  66| 64: C7 07      C         mov     word ptr fs:[edi],'is'
	   6973
 00008FE6  64: 83 05	      C         add     fs:parameters_text_length,2
	   000000F7 R 02
 00008FEE  83 C7 02	      C         add     edi,2
			      C     .ELSEIF (bl == 101b)
 00008FF1  EB 41	   *	    jmp    @C0509
 00008FF3		   *@C0507:
 00008FF3  80 FB 05	   *	    cmp    bl, 005h
 00008FF6  75 13	   *	    jne    @C050A
			      C       ; It's di
 00008FF8  66| 64: C7 07      C         mov     word ptr fs:[edi],'id'
	   6964
 00008FFE  64: 83 05	      C         add     fs:parameters_text_length,2
	   000000F7 R 02
 00009006  83 C7 02	      C         add     edi,2
			      C     .ELSEIF (bl == 110b)
 00009009  EB 29	   *	    jmp    @C050C
 0000900B		   *@C050A:
 0000900B  80 FB 06	   *	    cmp    bl, 006h
 0000900E  75 13	   *	    jne    @C050D
			      C       ; It's bp
 00009010  66| 64: C7 07      C         mov     word ptr fs:[edi],'pb'
	   7062
 00009016  64: 83 05	      C         add     fs:parameters_text_length,2
	   000000F7 R 02
 0000901E  83 C7 02	      C         add     edi,2
			      C     .ELSE
 00009021  EB 11	   *	    jmp    @C050F
 00009023		   *@C050D:
			      C       ; It's bx
 00009023  66| 64: C7 07      C         mov     word ptr fs:[edi],'xb'
	   7862
 00009029  64: 83 05	      C         add     fs:parameters_text_length,2
	   000000F7 R 02
 00009031  83 C7 02	      C         add     edi,2
			      C     .ENDIF
 00009034		   *@C050F:
 00009034		   *@C050C:
 00009034		   *@C0509:
 00009034		   *@C0506:
 00009034		   *@C0503:
 00009034		   *@C0500:
 00009034		   *@C04FD:
 00009034  C3		      C     ret
 00009035		      C store_16_bit_displacement_registers     ENDP
			      C 
			      C 
			      C 
			      C 
			      C 
 00009035		      C store_disp_displacement_registers       PROC    NEAR
			      C ; This routine is used to store the various registers used in 8-bit and 32-bit displacement encodings
			      C ;
			      C ; Upon entry:   bl - r/m value to use
			      C ;               fs:[edi] - where to store
			      C ;
			      C ; Upon exit:    fs:[edi] - updated
			      C ;                    edi - updated
			      C ;
			      C     .IF ((fs:cpu_mode == 0 && fs:adr_size_override != 0) || (fs:cpu_mode != 0 && fs:adr_size_override == 0))
 00009035  64: 83 3D
	   0000009B R 00   *	    cmp    fs : cpu_mode, 000h
 0000903D  75 0A	   *	    jne    @C0512
 0000903F  64: 83 3D
	   000000C3 R 00   *	    cmp    fs : adr_size_override, 000h
 00009047  75 14	   *	    jne    @C0511
 00009049		   *@C0512:
 00009049  64: 83 3D
	   0000009B R 00   *	    cmp    fs : cpu_mode, 000h
 00009051  74 14	   *	    je     @C0510
 00009053  64: 83 3D
	   000000C3 R 00   *	    cmp    fs : adr_size_override, 000h
 0000905B  75 0A	   *	    jne    @C0510
 0000905D		   *@C0511:
			      C       ; It's a 16-bit displacement (small registers)
 0000905D  E8 FFFFFEFC	      C         call    store_16_bit_displacement_registers
			      C     .ELSE
 00009062  E9 000000DA	   *	    jmp    @C0515
 00009067		   *@C0510:
			      C         .IF (bl == 000b)
 00009067  0A DB	   *	    or	bl, bl
 00009069  75 17	   *	    jne    @C0516
			      C           ; It's eax
 0000906B  64: C7 07	      C             mov     dword ptr fs:[edi+0],'xae'
	   00786165
 00009072  64: 83 05	      C             add     fs:parameters_text_length,3
	   000000F7 R 03
 0000907A  83 C7 03	      C             add     edi,3
			      C         .ELSEIF (bl == 001b)
 0000907D  E9 000000BF	   *	    jmp    @C0518
 00009082		   *@C0516:
 00009082  80 FB 01	   *	    cmp    bl, 001h
 00009085  75 17	   *	    jne    @C0519
			      C           ; It's ecx
 00009087  64: C7 07	      C             mov     dword ptr fs:[edi+0],'xce'
	   00786365
 0000908E  64: 83 05	      C             add     fs:parameters_text_length,3
	   000000F7 R 03
 00009096  83 C7 03	      C             add     edi,3
			      C         .ELSEIF (bl == 010b)
 00009099  E9 000000A3	   *	    jmp    @C051B
 0000909E		   *@C0519:
 0000909E  80 FB 02	   *	    cmp    bl, 002h
 000090A1  75 17	   *	    jne    @C051C
			      C           ; It's edx
 000090A3  64: C7 07	      C             mov     dword ptr fs:[edi+0],'xde'
	   00786465
 000090AA  64: 83 05	      C             add     fs:parameters_text_length,3
	   000000F7 R 03
 000090B2  83 C7 03	      C             add     edi,3
			      C         .ELSEIF (bl == 011b)
 000090B5  E9 00000087	   *	    jmp    @C051E
 000090BA		   *@C051C:
 000090BA  80 FB 03	   *	    cmp    bl, 003h
 000090BD  75 14	   *	    jne    @C051F
			      C           ; It's ebx
 000090BF  64: C7 07	      C             mov     dword ptr fs:[edi+0],'xbe'
	   00786265
 000090C6  64: 83 05	      C             add     fs:parameters_text_length,3
	   000000F7 R 03
 000090CE  83 C7 03	      C             add     edi,3
			      C         .ELSEIF (bl == 100b)
 000090D1  EB 6E	   *	    jmp    @C0521
 000090D3		   *@C051F:
 000090D3  80 FB 04	   *	    cmp    bl, 004h
 000090D6  75 25	   *	    jne    @C0522
			      C           ; It has a SIB byte
 000090D8  53		      C             push    ebx
 000090D9  64: 89 35	      C             mov     fs:sib_offset,esi
	   00000113 R
 000090E0  64: C7 05	      C             mov     fs:sib_bytes,1
	   00000117 R
	   00000001
 000090EB  8A 1E	      C             mov     bl,ds:[esi]
 000090ED  46		      C             inc     esi
 000090EE  64: FF 05	      C             inc     fs:instruction_bytes
	   000000EB R
 000090F5  E8 00000193	      C             call    store_disp_displacement_registers_sib
 000090FA  5B		      C             pop     ebx
			      C         .ELSEIF (bl == 101b)
 000090FB  EB 44	   *	    jmp    @C0524
 000090FD		   *@C0522:
 000090FD  80 FB 05	   *	    cmp    bl, 005h
 00009100  75 14	   *	    jne    @C0525
			      C           ; It's ebp
 00009102  64: C7 07	      C             mov     dword ptr fs:[edi],'pbe'
	   00706265
 00009109  64: 83 05	      C             add     fs:parameters_text_length,3
	   000000F7 R 03
 00009111  83 C7 03	      C             add     edi,3
			      C         .ELSEIF (bl == 110b)
 00009114  EB 2B	   *	    jmp    @C0527
 00009116		   *@C0525:
 00009116  80 FB 06	   *	    cmp    bl, 006h
 00009119  75 14	   *	    jne    @C0528
			      C           ; It's esi
 0000911B  64: C7 07	      C             mov     dword ptr fs:[edi],'ise'
	   00697365
 00009122  64: 83 05	      C             add     fs:parameters_text_length,3
	   000000F7 R 03
 0000912A  83 C7 03	      C             add     edi,3
			      C         .ELSE
 0000912D  EB 12	   *	    jmp    @C052A
 0000912F		   *@C0528:
			      C           ; It's edi
 0000912F  64: C7 07	      C             mov     dword ptr fs:[edi],'ide'
	   00696465
 00009136  64: 83 05	      C             add     fs:parameters_text_length,3
	   000000F7 R 03
 0000913E  83 C7 03	      C             add     edi,3
			      C         .ENDIF
			      C     .ENDIF
 00009141		   *@C052A:
 00009141		   *@C0527:
 00009141		   *@C0524:
 00009141		   *@C0521:
 00009141		   *@C051E:
 00009141		   *@C051B:
 00009141		   *@C0518:
 00009141		   *@C0515:
 00009141  C3		      C     ret
 00009142		      C store_disp_displacement_registers       ENDP
			      C 
			      C 
			      C 
			      C 
 00009142		      C store_displacement_registers_sib    PROC    NEAR
			      C ; This routine is used to process the SIB byte
			      C ;
			      C ; Upon entry:         bl - SIB byte
			      C ;               fs:[edi] - where to store output
			      C ;
			      C ; Upon exit:    fs:[edi] - updated
			      C ;
 00009142  52		      C     push    edx
 00009143  53		      C     push    ebx
			      C 
 00009144  0F B6 D3	      C     movzx   edx,bl
 00009147  C1 EA 06	      C     shr     edx,6
 0000914A  64: 89 15	      C     mov     fs:scale_factor,edx
	   000000CB R
			      C 
 00009151  8A D3	      C     mov     dl,bl
 00009153  8A F3	      C     mov     dh,bl
 00009155  C0 EE 03	      C     shr     dh,3
 00009158  80 E6 07	      C     and     dh,111b
 0000915B  80 E2 07	      C     and     dl,111b
			      C   ; Right now, dh - index
			      C   ;            dl - base
			      C   ;            fs:scale_factor - scale
			      C     .IF (dl == 000b)
 0000915E  0A D2	   *	    or	dl, dl
 00009160  75 09	   *	    jne    @C052B
			      C       ; It's eax+(scale*index)
 00009162  64: C7 07	      C         mov     dword ptr fs:[edi],'+xae'
	   2B786165
			      C     .ELSEIF (dl == 001b)
 00009169  EB 56	   *	    jmp    @C052D
 0000916B		   *@C052B:
 0000916B  80 FA 01	   *	    cmp    dl, 001h
 0000916E  75 09	   *	    jne    @C052E
			      C       ; It's ecx+(scale*index)
 00009170  64: C7 07	      C         mov     dword ptr fs:[edi],'+xce'
	   2B786365
			      C     .ELSEIF (dl == 010b)
 00009177  EB 48	   *	    jmp    @C0530
 00009179		   *@C052E:
 00009179  80 FA 02	   *	    cmp    dl, 002h
 0000917C  75 09	   *	    jne    @C0531
			      C       ; It's edx+(scale*index)
 0000917E  64: C7 07	      C         mov     dword ptr fs:[edi],'+xde'
	   2B786465
			      C     .ELSEIF (dl == 011b)
 00009185  EB 3A	   *	    jmp    @C0533
 00009187		   *@C0531:
 00009187  80 FA 03	   *	    cmp    dl, 003h
 0000918A  75 09	   *	    jne    @C0534
			      C       ; It's ebx+(scale*index)
 0000918C  64: C7 07	      C         mov     dword ptr fs:[edi],'+xbe'
	   2B786265
			      C     .ELSEIF (dl == 100b)
 00009193  EB 2C	   *	    jmp    @C0536
 00009195		   *@C0534:
 00009195  80 FA 04	   *	    cmp    dl, 004h
 00009198  75 09	   *	    jne    @C0537
			      C       ; It's esp+(scale*index)
 0000919A  64: C7 07	      C         mov     dword ptr fs:[edi],'+pse'
	   2B707365
			      C     .ELSEIF (dl == 101b)
 000091A1  EB 1E	   *	    jmp    @C0539
 000091A3		   *@C0537:
 000091A3  80 FA 05	   *	    cmp    dl, 005h
 000091A6  75 04	   *	    jne    @C053A
			      C       ; It's (scale*index)+disp32
 000091A8  EB 22	      C         jmp     @F
			      C     .ELSEIF (dl == 110b)
 000091AA  EB 15	   *	    jmp    @C053C
 000091AC		   *@C053A:
 000091AC  80 FA 06	   *	    cmp    dl, 006h
 000091AF  75 09	   *	    jne    @C053D
			      C       ; It's esi+(scale*index)
 000091B1  64: C7 07	      C         mov     dword ptr fs:[edi],'+ise'
	   2B697365
			      C     .ELSE
 000091B8  EB 07	   *	    jmp    @C053F
 000091BA		   *@C053D:
			      C       ; It's edi+(scale*index)
 000091BA  64: C7 07	      C         mov     dword ptr fs:[edi],'+ide'
	   2B696465
			      C     .ENDIF
 000091C1		   *@C053F:
 000091C1		   *@C053C:
 000091C1		   *@C0539:
 000091C1		   *@C0536:
 000091C1		   *@C0533:
 000091C1		   *@C0530:
 000091C1		   *@C052D:
 000091C1  83 C7 04	      C     add     edi,4
 000091C4  64: 83 05	      C     add     fs:parameters_text_length,4
	   000000F7 R 04
			      C 
 000091CC		      C   @@:
			      C   ; Now, process the index
			      C     .IF (dh == 000b)
 000091CC  0A F6	   *	    or	dh, dh
 000091CE  75 09	   *	    jne    @C0540
			      C       ; eax
 000091D0  64: C7 07	      C         mov     dword ptr fs:[edi],'xae'
	   00786165
			      C     .ELSEIF (dh == 001b)
 000091D7  EB 5E	   *	    jmp    @C0542
 000091D9		   *@C0540:
 000091D9  80 FE 01	   *	    cmp    dh, 001h
 000091DC  75 09	   *	    jne    @C0543
			      C       ; ecx
 000091DE  64: C7 07	      C         mov     dword ptr fs:[edi],'xce'
	   00786365
			      C     .ELSEIF (dh == 010b)
 000091E5  EB 50	   *	    jmp    @C0545
 000091E7		   *@C0543:
 000091E7  80 FE 02	   *	    cmp    dh, 002h
 000091EA  75 09	   *	    jne    @C0546
			      C       ; edx
 000091EC  64: C7 07	      C         mov     dword ptr fs:[edi],'xde'
	   00786465
			      C     .ELSEIF (dh == 011b)
 000091F3  EB 42	   *	    jmp    @C0548
 000091F5		   *@C0546:
 000091F5  80 FE 03	   *	    cmp    dh, 003h
 000091F8  75 09	   *	    jne    @C0549
			      C       ; ebx
 000091FA  64: C7 07	      C         mov     dword ptr fs:[edi],'xbe'
	   00786265
			      C     .ELSEIF (dh == 100b)
 00009201  EB 34	   *	    jmp    @C054B
 00009203		   *@C0549:
 00009203  80 FE 04	   *	    cmp    dh, 004h
 00009206  75 0C	   *	    jne    @C054C
			      C       ; no index
 00009208  64: FF 0D	      C         dec     fs:parameters_text_length
	   000000F7 R
 0000920F  4F		      C         dec     edi
 00009210  EB 66	      C         jmp     @F
			      C     .ELSEIF (dh == 101b)
 00009212  EB 23	   *	    jmp    @C054E
 00009214		   *@C054C:
 00009214  80 FE 05	   *	    cmp    dh, 005h
 00009217  75 09	   *	    jne    @C054F
			      C       ; ebp
 00009219  64: C7 07	      C         mov     dword ptr fs:[edi],'pbe'
	   00706265
			      C     .ELSEIF (dh == 110b)
 00009220  EB 15	   *	    jmp    @C0551
 00009222		   *@C054F:
 00009222  80 FE 06	   *	    cmp    dh, 006h
 00009225  75 09	   *	    jne    @C0552
			      C       ; esi
 00009227  64: C7 07	      C         mov     dword ptr fs:[edi],'ise'
	   00697365
			      C     .ELSE
 0000922E  EB 07	   *	    jmp    @C0554
 00009230		   *@C0552:
			      C       ; edi
 00009230  64: C7 07	      C         mov     dword ptr fs:[edi],'ide'
	   00696465
			      C     .ENDIF
 00009237		   *@C0554:
 00009237		   *@C0551:
 00009237		   *@C054E:
 00009237		   *@C054B:
 00009237		   *@C0548:
 00009237		   *@C0545:
 00009237		   *@C0542:
 00009237  64: 83 05	      C     add     fs:parameters_text_length,3
	   000000F7 R 03
 0000923F  83 C7 03	      C     add     edi,3
			      C 
 00009242  64: 8B 1D	      C     mov     ebx,fs:scale_factor
	   000000CB R
			      C     .IF (ebx != 00b)
 00009249  0B DB	   *	    or	ebx, ebx
 0000924B  74 2B	   *	    je     @C0555
			      C         .IF (bl == 01b)
 0000924D  80 FB 01	   *	    cmp    bl, 001h
 00009250  75 08	   *	    jne    @C0557
			      C           ; It's *2
 00009252  66| 64: C7 07      C             mov     word ptr fs:[edi],'2*'
	   322A
			      C         .ELSEIF (bl == 10b)
 00009258  EB 13	   *	    jmp    @C0559
 0000925A		   *@C0557:
 0000925A  80 FB 02	   *	    cmp    bl, 002h
 0000925D  75 08	   *	    jne    @C055A
			      C           ; It's *4
 0000925F  66| 64: C7 07      C             mov     word ptr fs:[edi],'4*'
	   342A
			      C         .ELSE
 00009265  EB 06	   *	    jmp    @C055C
 00009267		   *@C055A:
			      C           ; It's *8
 00009267  66| 64: C7 07      C             mov     word ptr fs:[edi],'8*'
	   382A
			      C         .ENDIF
 0000926D		   *@C055C:
 0000926D		   *@C0559:
 0000926D  64: 83 05	      C         add     fs:parameters_text_length,2
	   000000F7 R 02
 00009275  83 C7 02	      C         add     edi,2
			      C     .ENDIF
 00009278		   *@C0555:
			      C 
 00009278		      C   @@:
			      C     .IF (dl == 101b)
 00009278  80 FA 05	   *	    cmp    dl, 005h
 0000927B  75 0D	   *	    jne    @C055D
			      C       ; We now have to store the disp32
 0000927D  E8 00000397	      C         call    store_32_bit_signed_value
 00009282  64: 83 05	      C         add     fs:sib_bytes,4
	   00000117 R 04
			      C     .ENDIF
 0000928A		   *@C055D:
			      C 
 0000928A  5B		      C     pop     ebx
 0000928B  5A		      C     pop     edx
 0000928C  C3		      C     ret
 0000928D		      C store_displacement_registers_sib    ENDP
			      C 
			      C 
			      C 
			      C 
 0000928D		      C store_disp_displacement_registers_sib       PROC    NEAR
			      C ; This routine is used to process the SIB byte
			      C ;
			      C ; Upon entry:         bl - SIB byte
			      C ;               fs:[edi] - where to store output
			      C ;
			      C ; Upon exit:    fs:[edi] - updated
			      C ;
 0000928D  52		      C     push    edx
 0000928E  53		      C     push    ebx
			      C 
 0000928F  0F B6 D3	      C     movzx   edx,bl
 00009292  C1 EA 06	      C     shr     edx,6
 00009295  64: 89 15	      C     mov     fs:scale_factor,edx
	   000000CB R
			      C 
 0000929C  8A D3	      C     mov     dl,bl
 0000929E  8A F3	      C     mov     dh,bl
 000092A0  C0 EE 03	      C     shr     dh,3
 000092A3  80 E6 07	      C     and     dh,111b
 000092A6  80 E2 07	      C     and     dl,111b
			      C   ; Right now, dh - index
			      C   ;            dl - base
			      C   ;            fs:scale_factor - scale
			      C     .IF (dl == 000b)
 000092A9  0A D2	   *	    or	dl, dl
 000092AB  75 09	   *	    jne    @C055F
			      C       ; It's eax+(scale*index)
 000092AD  64: C7 07	      C         mov     dword ptr fs:[edi],'+xae'
	   2B786165
			      C     .ELSEIF (dl == 001b)
 000092B4  EB 5B	   *	    jmp    @C0561
 000092B6		   *@C055F:
 000092B6  80 FA 01	   *	    cmp    dl, 001h
 000092B9  75 09	   *	    jne    @C0562
			      C       ; It's ecx+(scale*index)
 000092BB  64: C7 07	      C         mov     dword ptr fs:[edi],'+xce'
	   2B786365
			      C     .ELSEIF (dl == 010b)
 000092C2  EB 4D	   *	    jmp    @C0564
 000092C4		   *@C0562:
 000092C4  80 FA 02	   *	    cmp    dl, 002h
 000092C7  75 09	   *	    jne    @C0565
			      C       ; It's edx+(scale*index)
 000092C9  64: C7 07	      C         mov     dword ptr fs:[edi],'+xde'
	   2B786465
			      C     .ELSEIF (dl == 011b)
 000092D0  EB 3F	   *	    jmp    @C0567
 000092D2		   *@C0565:
 000092D2  80 FA 03	   *	    cmp    dl, 003h
 000092D5  75 09	   *	    jne    @C0568
			      C       ; It's ebx+(scale*index)
 000092D7  64: C7 07	      C         mov     dword ptr fs:[edi],'+xbe'
	   2B786265
			      C     .ELSEIF (dl == 100b)
 000092DE  EB 31	   *	    jmp    @C056A
 000092E0		   *@C0568:
 000092E0  80 FA 04	   *	    cmp    dl, 004h
 000092E3  75 09	   *	    jne    @C056B
			      C       ; It's esp+(scale*index)
 000092E5  64: C7 07	      C         mov     dword ptr fs:[edi],'+pse'
	   2B707365
			      C     .ELSEIF (dl == 101b)
 000092EC  EB 23	   *	    jmp    @C056D
 000092EE		   *@C056B:
 000092EE  80 FA 05	   *	    cmp    dl, 005h
 000092F1  75 09	   *	    jne    @C056E
			      C       ; It's ebp+(scale*index)
 000092F3  64: C7 07	      C         mov     dword ptr fs:[edi],'+pbe'
	   2B706265
			      C     .ELSEIF (dl == 110b)
 000092FA  EB 15	   *	    jmp    @C0570
 000092FC		   *@C056E:
 000092FC  80 FA 06	   *	    cmp    dl, 006h
 000092FF  75 09	   *	    jne    @C0571
			      C       ; It's esi+(scale*index)
 00009301  64: C7 07	      C         mov     dword ptr fs:[edi],'+ise'
	   2B697365
			      C     .ELSE
 00009308  EB 07	   *	    jmp    @C0573
 0000930A		   *@C0571:
			      C       ; It's edi+(scale*index)
 0000930A  64: C7 07	      C         mov     dword ptr fs:[edi],'+ide'
	   2B696465
			      C     .ENDIF
 00009311		   *@C0573:
 00009311		   *@C0570:
 00009311		   *@C056D:
 00009311		   *@C056A:
 00009311		   *@C0567:
 00009311		   *@C0564:
 00009311		   *@C0561:
 00009311  83 C7 04	      C     add     edi,4
 00009314  64: 83 05	      C     add     fs:parameters_text_length,4
	   000000F7 R 04
			      C 
			      C   ; Now, process the index
			      C     .IF (dh == 000b)
 0000931C  0A F6	   *	    or	dh, dh
 0000931E  75 09	   *	    jne    @C0574
			      C       ; eax
 00009320  64: C7 07	      C         mov     dword ptr fs:[edi],'xae'
	   00786165
			      C     .ELSEIF (dh == 001b)
 00009327  EB 5E	   *	    jmp    @C0576
 00009329		   *@C0574:
 00009329  80 FE 01	   *	    cmp    dh, 001h
 0000932C  75 09	   *	    jne    @C0577
			      C       ; ecx
 0000932E  64: C7 07	      C         mov     dword ptr fs:[edi],'xce'
	   00786365
			      C     .ELSEIF (dh == 010b)
 00009335  EB 50	   *	    jmp    @C0579
 00009337		   *@C0577:
 00009337  80 FE 02	   *	    cmp    dh, 002h
 0000933A  75 09	   *	    jne    @C057A
			      C       ; edx
 0000933C  64: C7 07	      C         mov     dword ptr fs:[edi],'xde'
	   00786465
			      C     .ELSEIF (dh == 011b)
 00009343  EB 42	   *	    jmp    @C057C
 00009345		   *@C057A:
 00009345  80 FE 03	   *	    cmp    dh, 003h
 00009348  75 09	   *	    jne    @C057D
			      C       ; ebx
 0000934A  64: C7 07	      C         mov     dword ptr fs:[edi],'xbe'
	   00786265
			      C     .ELSEIF (dh == 100b)
 00009351  EB 34	   *	    jmp    @C057F
 00009353		   *@C057D:
 00009353  80 FE 04	   *	    cmp    dh, 004h
 00009356  75 0C	   *	    jne    @C0580
			      C       ; no index
 00009358  64: FF 0D	      C         dec     fs:parameters_text_length
	   000000F7 R
 0000935F  4F		      C         dec     edi
 00009360  EB 66	      C         jmp     @F
			      C     .ELSEIF (dh == 101b)
 00009362  EB 23	   *	    jmp    @C0582
 00009364		   *@C0580:
 00009364  80 FE 05	   *	    cmp    dh, 005h
 00009367  75 09	   *	    jne    @C0583
			      C       ; ebp
 00009369  64: C7 07	      C         mov     dword ptr fs:[edi],'pbe'
	   00706265
			      C     .ELSEIF (dh == 110b)
 00009370  EB 15	   *	    jmp    @C0585
 00009372		   *@C0583:
 00009372  80 FE 06	   *	    cmp    dh, 006h
 00009375  75 09	   *	    jne    @C0586
			      C       ; esi
 00009377  64: C7 07	      C         mov     dword ptr fs:[edi],'ise'
	   00697365
			      C     .ELSE
 0000937E  EB 07	   *	    jmp    @C0588
 00009380		   *@C0586:
			      C       ; edi
 00009380  64: C7 07	      C         mov     dword ptr fs:[edi],'ide'
	   00696465
			      C     .ENDIF
 00009387		   *@C0588:
 00009387		   *@C0585:
 00009387		   *@C0582:
 00009387		   *@C057F:
 00009387		   *@C057C:
 00009387		   *@C0579:
 00009387		   *@C0576:
 00009387  64: 83 05	      C     add     fs:parameters_text_length,3
	   000000F7 R 03
 0000938F  83 C7 03	      C     add     edi,3
			      C 
 00009392  64: 8B 1D	      C     mov     ebx,fs:scale_factor
	   000000CB R
			      C     .IF (ebx != 00b)
 00009399  0B DB	   *	    or	ebx, ebx
 0000939B  74 2B	   *	    je     @C0589
			      C         .IF (bl == 01b)
 0000939D  80 FB 01	   *	    cmp    bl, 001h
 000093A0  75 08	   *	    jne    @C058B
			      C           ; It's *2
 000093A2  66| 64: C7 07      C             mov     word ptr fs:[edi],'2*'
	   322A
			      C         .ELSEIF (bl == 10b)
 000093A8  EB 13	   *	    jmp    @C058D
 000093AA		   *@C058B:
 000093AA  80 FB 02	   *	    cmp    bl, 002h
 000093AD  75 08	   *	    jne    @C058E
			      C           ; It's *4
 000093AF  66| 64: C7 07      C             mov     word ptr fs:[edi],'4*'
	   342A
			      C         .ELSE
 000093B5  EB 06	   *	    jmp    @C0590
 000093B7		   *@C058E:
			      C           ; It's *8
 000093B7  66| 64: C7 07      C             mov     word ptr fs:[edi],'8*'
	   382A
			      C         .ENDIF
 000093BD		   *@C0590:
 000093BD		   *@C058D:
 000093BD  64: 83 05	      C         add     fs:parameters_text_length,2
	   000000F7 R 02
 000093C5  83 C7 02	      C         add     edi,2
			      C     .ENDIF
 000093C8		   *@C0589:
			      C 
 000093C8		      C   @@:
 000093C8  5B		      C     pop     ebx
 000093C9  5A		      C     pop     edx
 000093CA  C3		      C     ret
 000093CB		      C store_disp_displacement_registers_sib       ENDP
			      C 
			      C 
			      C 
			      C 
 000093CB		      C store_direct    PROC    NEAR
			      C ; This routine is used to store a direct memory operand in the [disp] format
			      C ;
			      C ; Upon entry:   ds:[esi] - far ptr to the execution code
			      C ;               fs:[edi] - far ptr to store data
			      C ;
			      C ; Upon exit:    fs:[edi] is updated
			      C ;
 000093CB  50		      C     push    eax
 000093CC  64: 89 3D	      C     mov     fs:displacement_offset,edi
	   000000FF R
 000093D3  E8 000000E0	      C     call    store_segment_override
 000093D8  E8 000004F5	      C     call    store_open_bracket
			      C     .IF ((fs:cpu_mode == 0 && fs:adr_size_override == 0) || (fs:cpu_mode != 0 && fs:adr_size_override != 0))
 000093DD  64: 83 3D
	   0000009B R 00   *	    cmp    fs : cpu_mode, 000h
 000093E5  75 0A	   *	    jne    @C0593
 000093E7  64: 83 3D
	   000000C3 R 00   *	    cmp    fs : adr_size_override, 000h
 000093EF  74 14	   *	    je     @C0592
 000093F1		   *@C0593:
 000093F1  64: 83 3D
	   0000009B R 00   *	    cmp    fs : cpu_mode, 000h
 000093F9  74 11	   *	    je     @C0591
 000093FB  64: 83 3D
	   000000C3 R 00   *	    cmp    fs : adr_size_override, 000h
 00009403  74 07	   *	    je     @C0591
 00009405		   *@C0592:
			      C       ; 32-bit
 00009405  E8 00000123	      C         call    store_32_bit_value
			      C     .ELSE
 0000940A  EB 05	   *	    jmp    @C0596
 0000940C		   *@C0591:
			      C       ; 16-bit
 0000940C  E8 0000016F	      C         call    store_16_bit_value
			      C     .ENDIF
 00009411		   *@C0596:
 00009411  E8 000004C9	      C     call    store_close_bracket
 00009416  8B C7	      C     mov     eax,edi
 00009418  64: 2B 05	      C     sub     eax,fs:displacement_offset
	   000000FF R
 0000941F  64: A3	      C     mov     fs:displacement_bytes,eax
	   00000103 R
 00009425  58		      C     pop     eax
 00009426  C3		      C     ret
 00009427		      C store_direct    ENDP
			      C 
			      C 
			      C 
			      C 
 00009427		      C store_indirect_no_displacement      PROC    NEAR
			      C ; This routine is used to store an indirect memory combination
			      C ;
			      C ; Upon entry:   ds:[esi] - far ptr to the execution code
			      C ;               fs:[edi] - far ptr to store data
			      C ;
			      C ; Upon exit:    fs:[edi] is updated
			      C ;
 00009427  50		      C     push    eax
 00009428  64: 89 3D	      C     mov     fs:displacement_offset,edi
	   000000FF R
 0000942F  E8 00000084	      C     call    store_segment_override
 00009434  E8 00000499	      C     call    store_open_bracket
 00009439  E8 FFFFFA23	      C     call    store_displacement_registers
 0000943E  E8 0000049C	      C     call    store_close_bracket
 00009443  8B C7	      C     mov     eax,edi
 00009445  64: 2B 05	      C     sub     eax,fs:displacement_offset
	   000000FF R
 0000944C  64: A3	      C     mov     fs:displacement_bytes,eax
	   00000103 R
 00009452  58		      C     pop     eax
 00009453  C3		      C     ret
 00009454		      C store_indirect_no_displacement      ENDP
			      C 
			      C 
			      C 
			      C 
 00009454		      C store_indirect_with_8bit_displacement       PROC    NEAR
			      C ; This routine is used to store an indirect memory combination with an 8-bit displacement
			      C ;
			      C ; Upon entry:   ds:[esi] - far ptr to the execution code
			      C ;               fs:[edi] - far ptr to store data
			      C ;
			      C ; Upon exit:    fs:[edi] is updated
			      C ;
 00009454  50		      C     push    eax
 00009455  64: 89 3D	      C     mov     fs:displacement_offset,edi
	   000000FF R
 0000945C  E8 00000057	      C     call    store_segment_override
 00009461  E8 0000046C	      C     call    store_open_bracket
 00009466  E8 FFFFFBCA	      C     call    store_disp_displacement_registers
 0000946B  E8 0000038D	      C     call    store_8_bit_signed_value
 00009470  E8 0000046A	      C     call    store_close_bracket
 00009475  8B C7	      C     mov     eax,edi
 00009477  64: 2B 05	      C     sub     eax,fs:displacement_offset
	   000000FF R
 0000947E  64: A3	      C     mov     fs:displacement_bytes,eax
	   00000103 R
 00009484  58		      C     pop     eax
 00009485  C3		      C     ret
 00009486		      C store_indirect_with_8bit_displacement       ENDP
			      C 
			      C 
			      C 
			      C 
 00009486		      C store_indirect_with_xbit_displacement       PROC    NEAR
			      C ; This routine is used to store an indirect memory combination with an xx-bit displacement (either 16 or 32)
			      C ;
			      C ; Upon entry:   ds:[esi] - far ptr to the execution code
			      C ;               fs:[edi] - far ptr to store data
			      C ;
			      C ; Upon exit:    fs:[edi] is updated
			      C ;
 00009486  50		      C     push    eax
 00009487  64: 89 3D	      C     mov     fs:displacement_offset,edi
	   000000FF R
 0000948E  E8 00000025	      C     call    store_segment_override
 00009493  E8 0000043A	      C     call    store_open_bracket
 00009498  E8 FFFFFB98	      C     call    store_disp_displacement_registers
 0000949D  E8 0000039B	      C     call    store_signed_value
 000094A2  E8 00000438	      C     call    store_close_bracket
 000094A7  8B C7	      C     mov     eax,edi
 000094A9  64: 2B 05	      C     sub     eax,fs:displacement_offset
	   000000FF R
 000094B0  64: A3	      C     mov     fs:displacement_bytes,eax
	   00000103 R
 000094B6  58		      C     pop     eax
 000094B7  C3		      C     ret
 000094B8		      C store_indirect_with_xbit_displacement       ENDP
			      C 
			      C 
			      C 
			      C 
 000094B8		      C store_segment_override      PROC    NEAR
			      C ; This routine is used to store a segment override text
			      C ;
			      C ; Upon entry:   fs:seg_override - indicates what override (if any)
			      C ;                      fs:[edi] - where to store
			      C ;
			      C ; Upon exit:    fs:[edi] is updated
			      C ;
			      C     .IF (fs:seg_override != 0)
 000094B8  64: 83 3D
	   000000BB R 00   *	    cmp    fs : seg_override, 000h
 000094C0  74 6A	   *	    je     @C0597
 000094C2  50		      C         push    eax
			      C         .IF (fs:seg_override == 1)
 000094C3  64: 83 3D
	   000000BB R 01   *	    cmp    fs : seg_override, 001h
 000094CB  75 06	   *	    jne    @C0599
			      C           ; CS:
 000094CD  66| B8 7363	      C             mov     ax,'sc'
			      C         .ELSEIF (fs:seg_override == 2)
 000094D1  EB 44	   *	    jmp    @C059B
 000094D3		   *@C0599:
 000094D3  64: 83 3D
	   000000BB R 02   *	    cmp    fs : seg_override, 002h
 000094DB  75 06	   *	    jne    @C059C
			      C           ; DS:
 000094DD  66| B8 7364	      C             mov     ax,'sd'
			      C         .ELSEIF (fs:seg_override == 3)
 000094E1  EB 34	   *	    jmp    @C059E
 000094E3		   *@C059C:
 000094E3  64: 83 3D
	   000000BB R 03   *	    cmp    fs : seg_override, 003h
 000094EB  75 06	   *	    jne    @C059F
			      C           ; ES:
 000094ED  66| B8 7365	      C             mov     ax,'se'
			      C         .ELSEIF (fs:seg_override == 4)
 000094F1  EB 24	   *	    jmp    @C05A1
 000094F3		   *@C059F:
 000094F3  64: 83 3D
	   000000BB R 04   *	    cmp    fs : seg_override, 004h
 000094FB  75 06	   *	    jne    @C05A2
			      C           ; SS:
 000094FD  66| B8 7373	      C             mov     ax,'ss'
			      C         .ELSEIF (fs:seg_override == 5)
 00009501  EB 14	   *	    jmp    @C05A4
 00009503		   *@C05A2:
 00009503  64: 83 3D
	   000000BB R 05   *	    cmp    fs : seg_override, 005h
 0000950B  75 06	   *	    jne    @C05A5
			      C           ; FS:
 0000950D  66| B8 7366	      C             mov     ax,'sf'
			      C         .ELSE
 00009511  EB 04	   *	    jmp    @C05A7
 00009513		   *@C05A5:
			      C           ; GS:
 00009513  66| B8 7367	      C             mov     ax,'sg'
			      C         .ENDIF
 00009517		   *@C05A7:
 00009517		   *@C05A4:
 00009517		   *@C05A1:
 00009517		   *@C059E:
 00009517		   *@C059B:
 00009517  66| 64: 89 07      C         mov     word ptr fs:[edi],ax
 0000951B  64: 83 05	      C         add     fs:parameters_text_length,2
	   000000F7 R 02
 00009523  83 C7 02	      C         add     edi,2
 00009526  E8 0000039A	      C         call    store_colon
 0000952B  58		      C         pop     eax
			      C     .ENDIF
 0000952C		   *@C0597:
 0000952C  C3		      C     ret
 0000952D		      C store_segment_override      ENDP
			      C 
			      C 
			      C 
			      C 
 0000952D		      C store_32_bit_value      PROC    NEAR
			      C ; This routine is used to store a 32-bit value
			      C ;
			      C ; Upon entry:   ds:[esi] - far ptr to value bytes in execution code
			      C ;               fs:[edi] - where to store output
			      C ;
			      C ; Upon exit:    fs:[edi] - is updated
			      C ;
 0000952D  50		      C     push    eax
 0000952E  8A 46 03	      C     mov     al,byte ptr ds:[esi+3]
 00009531  E8 FFFFEFBF	      C     call    convert_al_to_hex
 00009536  66| 64: 89 07      C     mov     word ptr fs:[edi+0],ax
 0000953A  8A 46 02	      C     mov     al,byte ptr ds:[esi+2]
 0000953D  E8 FFFFEFB3	      C     call    convert_al_to_hex
 00009542  66| 64: 89 47      C     mov     word ptr fs:[edi+2],ax
	   02
 00009547  8A 46 01	      C     mov     al,byte ptr ds:[esi+1]
 0000954A  E8 FFFFEFA6	      C     call    convert_al_to_hex
 0000954F  66| 64: 89 47      C     mov     word ptr fs:[edi+4],ax
	   04
 00009554  8A 06	      C     mov     al,byte ptr ds:[esi+0]
 00009556  E8 FFFFEF9A	      C     call    convert_al_to_hex
 0000955B  66| 64: 89 47      C     mov     word ptr fs:[edi+6],ax
	   06
 00009560  83 C7 08	      C     add     edi,8
 00009563  64: 83 05	      C     add     fs:parameters_text_length,8
	   000000F7 R 08
 0000956B  8B 06	      C     mov     eax,dword ptr ds:[esi]
 0000956D  64: A3	      C     mov     dword ptr fs:displacement_data,eax
	   00000107 R
 00009573  83 C6 04	      C     add     esi,4
 00009576  64: 83 05	      C     add     fs:instruction_bytes,4
	   000000EB R 04
 0000957E  58		      C     pop     eax
 0000957F  C3		      C     ret
 00009580		      C store_32_bit_value      ENDP
			      C 
			      C 
			      C 
			      C 
 00009580		      C store_16_bit_value      PROC    NEAR
			      C ; This routine is used to store a 16-bit value
			      C ;
			      C ; Upon entry:   ds:[esi] - far ptr to value bytes in execution code
			      C ;               fs:[edi] - where to store output
			      C ;
			      C ; Upon exit:    fs:[edi] - is updated
			      C ;
 00009580  50		      C     push    eax
 00009581  8A 46 01	      C     mov     al,byte ptr ds:[esi+1]
 00009584  E8 FFFFEF6C	      C     call    convert_al_to_hex
 00009589  66| 64: 89 07      C     mov     word ptr fs:[edi+0],ax
 0000958D  8A 06	      C     mov     al,byte ptr ds:[esi+0]
 0000958F  E8 FFFFEF61	      C     call    convert_al_to_hex
 00009594  66| 64: 89 47      C     mov     word ptr fs:[edi+2],ax
	   02
 00009599  83 C7 04	      C     add     edi,4
 0000959C  64: 83 05	      C     add     fs:parameters_text_length,4
	   000000F7 R 04
 000095A4  0F B7 06	      C     movzx   eax,word ptr ds:[esi]
 000095A7  64: A3	      C     mov     dword ptr fs:displacement_data,eax
	   00000107 R
 000095AD  83 C6 02	      C     add     esi,2
 000095B0  64: 83 05	      C     add     fs:instruction_bytes,2
	   000000EB R 02
 000095B8  58		      C     pop     eax
 000095B9  C3		      C     ret
 000095BA		      C store_16_bit_value      ENDP
			      C 
			      C 
			      C 
			      C 
 000095BA		      C store_8_bit_value       PROC    NEAR
			      C ; This routine is used to store a 8-bit value
			      C ;
			      C ; Upon entry:   ds:[esi] - far ptr to value bytes in execution code
			      C ;               fs:[edi] - where to store output
			      C ;
			      C ; Upon exit:    fs:[edi] - is updated
			      C ;
 000095BA  50		      C     push    eax
 000095BB  8A 06	      C     mov     al,byte ptr ds:[esi]
 000095BD  E8 FFFFEF33	      C     call    convert_al_to_hex
 000095C2  66| 64: 89 07      C     mov     word ptr fs:[edi+0],ax
 000095C6  83 C7 02	      C     add     edi,2
 000095C9  64: 83 05	      C     add     fs:parameters_text_length,2
	   000000F7 R 02
 000095D1  0F B6 06	      C     movzx   eax,byte ptr ds:[esi]
 000095D4  64: A3	      C     mov     dword ptr fs:displacement_data,eax
	   00000107 R
 000095DA  46		      C     inc     esi
 000095DB  64: FF 05	      C     inc     fs:instruction_bytes
	   000000EB R
 000095E2  58		      C     pop     eax
 000095E3  C3		      C     ret
 000095E4		      C store_8_bit_value       ENDP
			      C 
			      C 
			      C 
			      C 
 000095E4		      C store_value     PROC    NEAR
			      C ; This routine is used to store the value based on the current size
			      C ;
			      C ; Upon entry:   ds:[esi] - far ptr to value bytes in instruction
			      C ;               fs:[edi] - where to store output
			      C ;
			      C ; Upon exit:
			      C ;
			      C     .IF ((fs:cpu_mode == 0 && fs:op_size_override == 0) || (fs:cpu_mode != 0 && fs:op_size_override != 0))
 000095E4  64: 83 3D
	   0000009B R 00   *	    cmp    fs : cpu_mode, 000h
 000095EC  75 0A	   *	    jne    @C05AA
 000095EE  64: 83 3D
	   000000BF R 00   *	    cmp    fs : op_size_override, 000h
 000095F6  74 14	   *	    je     @C05A9
 000095F8		   *@C05AA:
 000095F8  64: 83 3D
	   0000009B R 00   *	    cmp    fs : cpu_mode, 000h
 00009600  74 11	   *	    je     @C05A8
 00009602  64: 83 3D
	   000000BF R 00   *	    cmp    fs : op_size_override, 000h
 0000960A  74 07	   *	    je     @C05A8
 0000960C		   *@C05A9:
			      C       ; 32-bit
 0000960C  E8 FFFFFF1C	      C         call    store_32_bit_value
			      C     .ELSE
 00009611  EB 05	   *	    jmp    @C05AD
 00009613		   *@C05A8:
			      C       ; 16-bit
 00009613  E8 FFFFFF68	      C         call    store_16_bit_value
			      C     .ENDIF
 00009618		   *@C05AD:
 00009618  C3		      C     ret
 00009619		      C store_value     ENDP
			      C 
			      C 
			      C 
			      C 
 00009619		      C store_32_bit_signed_value       PROC    NEAR
			      C ; This routine is used to store a 32-bit value
			      C ;
			      C ; Upon entry:   ds:[esi] - far ptr to value bytes in execution code
			      C ;               fs:[edi] - where to store output
			      C ;
			      C ; Upon exit:    fs:[edi] - is updated
			      C ;
 00009619  50		      C     push    eax
 0000961A  8B 06	      C     mov     eax,dword ptr ds:[esi]
			      C     .IF (eax >= 80000000h || eax == 0)
 0000961C  3D 80000000	   *	    cmp    eax, 080000000h
 00009621  73 04	   *	    jae    @C05AF
 00009623  0B C0	   *	    or	eax, eax
 00009625  75 3E	   *	    jne    @C05AE
 00009627		   *@C05AF:
			      C       ; It's negative
 00009627  53		      C         push    ebx
 00009628  8B D8	      C         mov     ebx,eax
 0000962A  F7 DB	      C         neg     ebx
 0000962C  C1 C3 08	      C         rol     ebx,8
 0000962F  64: C6 07 2D	      C         mov     byte ptr fs:[edi+0],'-'
 00009633  8A C3	      C         mov     al,bl
 00009635  E8 FFFFEEBB	      C         call    convert_al_to_hex
 0000963A  66| 64: 89 47      C         mov     word ptr fs:[edi+1],ax
	   01
 0000963F  C1 C3 08	      C         rol     ebx,8
 00009642  8A C3	      C         mov     al,bl
 00009644  E8 FFFFEEAC	      C         call    convert_al_to_hex
 00009649  66| 64: 89 47      C         mov     word ptr fs:[edi+3],ax
	   03
 0000964E  C1 C3 08	      C         rol     ebx,8
 00009651  8A C3	      C         mov     al,bl
 00009653  E8 FFFFEE9D	      C         call    convert_al_to_hex
 00009658  66| 64: 89 47      C         mov     word ptr fs:[edi+5],ax
	   05
 0000965D  C1 C3 08	      C         rol     ebx,8
 00009660  8A C3	      C         mov     al,bl
 00009662  5B		      C         pop     ebx
			      C     .ELSE
 00009663  EB 2D	   *	    jmp    @C05B1
 00009665		   *@C05AE:
			      C       ; It's positive
 00009665  64: C6 07 2B	      C         mov     byte ptr fs:[edi+0],'+'
 00009669  8A 46 03	      C         mov     al,byte ptr ds:[esi+3]
 0000966C  E8 FFFFEE84	      C         call    convert_al_to_hex
 00009671  66| 64: 89 47      C         mov     word ptr fs:[edi+1],ax
	   01
 00009676  8A 46 02	      C         mov     al,byte ptr ds:[esi+2]
 00009679  E8 FFFFEE77	      C         call    convert_al_to_hex
 0000967E  66| 64: 89 47      C         mov     word ptr fs:[edi+3],ax
	   03
 00009683  8A 46 01	      C         mov     al,byte ptr ds:[esi+1]
 00009686  E8 FFFFEE6A	      C         call    convert_al_to_hex
 0000968B  66| 64: 89 47      C         mov     word ptr fs:[edi+5],ax
	   05
 00009690  8A 06	      C         mov     al,byte ptr ds:[esi+0]
			      C     .ENDIF
 00009692		   *@C05B1:
 00009692  E8 FFFFEE5E	      C     call    convert_al_to_hex
 00009697  66| 64: 89 47      C     mov     word ptr fs:[edi+7],ax
	   07
 0000969C  83 C7 09	      C     add     edi,9
 0000969F  64: 83 05	      C     add     fs:parameters_text_length,9
	   000000F7 R 09
 000096A7  8B 06	      C     mov     eax,dword ptr ds:[esi]
 000096A9  64: A3	      C     mov     dword ptr fs:displacement_data,eax
	   00000107 R
 000096AF  83 C6 04	      C     add     esi,4
 000096B2  64: 83 05	      C     add     fs:instruction_bytes,4
	   000000EB R 04
 000096BA  58		      C     pop     eax
 000096BB  C3		      C     ret
 000096BC		      C store_32_bit_signed_value       ENDP
			      C 
			      C 
			      C 
			      C 
 000096BC		      C store_signed_dword_in_eax       PROC    NEAR
			      C ; This routine is used to store a 32-bit value
			      C ;
			      C ; Upon entry:   eax - dword to store
			      C ;          fs:[edi] - where to store output
			      C ;
			      C ; Upon exit:    fs:[edi] - is updated
			      C ;
			      C   ; We have to emulate a bswap here because this code could be run on 386
 000096BC  50		      C     push    eax
			      C     .IF (eax >= 80000000h || eax == 0)
 000096BD  3D 80000000	   *	    cmp    eax, 080000000h
 000096C2  73 04	   *	    jae    @C05B3
 000096C4  0B C0	   *	    or	eax, eax
 000096C6  75 3D	   *	    jne    @C05B2
 000096C8		   *@C05B3:
			      C       ; It's negative
 000096C8  50		      C         push    eax
 000096C9  53		      C         push    ebx
 000096CA  8B D8	      C         mov     ebx,eax
 000096CC  F7 DB	      C         neg     ebx
 000096CE  64: C6 07 2D	      C         mov     byte ptr fs:[edi+0],'-'
 000096D2  C1 C3 08	      C         rol     ebx,8
 000096D5  8A C3	      C         mov     al,bl
 000096D7  E8 FFFFEE19	      C         call    convert_al_to_hex
 000096DC  66| 64: 89 47      C         mov     word ptr fs:[edi+1],ax
	   01
 000096E1  C1 C3 08	      C         rol     ebx,8
 000096E4  8A C3	      C         mov     al,bl
 000096E6  E8 FFFFEE0A	      C         call    convert_al_to_hex
 000096EB  66| 64: 89 47      C         mov     word ptr fs:[edi+3],ax
	   03
 000096F0  C1 C3 08	      C         rol     ebx,8
 000096F3  8A C3	      C         mov     al,bl
 000096F5  E8 FFFFEDFB	      C         call    convert_al_to_hex
 000096FA  66| 64: 89 47      C         mov     word ptr fs:[edi+5],ax
	   05
 000096FF  5B		      C         pop     ebx
 00009700  F7 1C 24	      C         neg     dword ptr ss:[esp]
			      C     .ELSE
 00009703  EB 32	   *	    jmp    @C05B5
 00009705		   *@C05B2:
			      C       ; It's positive
 00009705  64: C6 07 2B	      C         mov     byte ptr fs:[edi+0],'+'
 00009709  8A 44 24 03	      C         mov     al,byte ptr ss:[esp+3]
 0000970D  E8 FFFFEDE3	      C         call    convert_al_to_hex
 00009712  66| 64: 89 47      C         mov     word ptr fs:[edi+1],ax
	   01
 00009717  8A 44 24 02	      C         mov     al,byte ptr ss:[esp+2]
 0000971B  8A C4	      C         mov     al,ah
 0000971D  E8 FFFFEDD3	      C         call    convert_al_to_hex
 00009722  66| 64: 89 47      C         mov     word ptr fs:[edi+3],ax
	   03
 00009727  8A 44 24 01	      C         mov     al,byte ptr ss:[esp+1]
 0000972B  8A C4	      C         mov     al,ah
 0000972D  E8 FFFFEDC3	      C         call    convert_al_to_hex
 00009732  66| 64: 89 47      C         mov     word ptr fs:[edi+5],ax
	   05
			      C     .ENDIF
 00009737		   *@C05B5:
 00009737  58		      C     pop     eax
 00009738  E8 FFFFEDB8	      C     call    convert_al_to_hex
 0000973D  66| 64: 89 47      C     mov     word ptr fs:[edi+7],ax
	   07
 00009742  83 C7 09	      C     add     edi,9
 00009745  C3		      C     ret
 00009746		      C store_signed_dword_in_eax       ENDP
			      C 
			      C 
			      C 
			      C 
 00009746		      C store_16_bit_signed_value       PROC    NEAR
			      C ; This routine is used to store a 16-bit value
			      C ;
			      C ; Upon entry:   ds:[esi] - far ptr to value bytes in execution code
			      C ;               fs:[edi] - where to store output
			      C ;
			      C ; Upon exit:    fs:[edi] - is updated
			      C ;
 00009746  50		      C     push    eax
			      C 
 00009747  66| 8B 06	      C     mov     ax,word ptr ds:[esi]
			      C     .IF (ax >= 8000h || ax == 0)
 0000974A  66| 3D 8000	   *	    cmp    ax, 08000h
 0000974E  73 05	   *	    jae    @C05B7
 00009750  66| 0B C0	   *	    or	ax, ax
 00009753  75 23	   *	    jne    @C05B6
 00009755		   *@C05B7:
			      C       ; It's negative
 00009755  53		      C         push    ebx
 00009756  8B D8	      C         mov     ebx,eax
 00009758  C1 E3 10	      C         shl     ebx,16
 0000975B  F7 DB	      C         neg     ebx
 0000975D  64: C6 07 2D	      C         mov     byte ptr fs:[edi+0],'-'
 00009761  C1 C3 08	      C         rol     ebx,8
 00009764  8A C3	      C         mov     al,bl
 00009766  E8 FFFFED8A	      C         call    convert_al_to_hex
 0000976B  66| 64: 89 47      C         mov     word ptr fs:[edi+1],ax
	   01
 00009770  C1 C3 08	      C         rol     ebx,8
 00009773  8A C3	      C         mov     al,bl
 00009775  5B		      C         pop     ebx
			      C     .ELSE
 00009776  EB 13	   *	    jmp    @C05B9
 00009778		   *@C05B6:
			      C       ; It's positive
 00009778  64: C6 07 2B	      C         mov     byte ptr fs:[edi+0],'+'
 0000977C  8A 46 01	      C         mov     al,byte ptr ds:[esi+1]
 0000977F  E8 FFFFED71	      C         call    convert_al_to_hex
 00009784  66| 64: 89 47      C         mov     word ptr fs:[edi+1],ax
	   01
 00009789  8A 06	      C         mov     al,byte ptr ds:[esi+0]
			      C     .ENDIF
 0000978B		   *@C05B9:
 0000978B  E8 FFFFED65	      C     call    convert_al_to_hex
 00009790  66| 64: 89 47      C     mov     word ptr fs:[edi+3],ax
	   03
 00009795  83 C7 05	      C     add     edi,5
 00009798  64: 83 05	      C     add     fs:parameters_text_length,5
	   000000F7 R 05
 000097A0  0F B7 06	      C     movzx   eax,word ptr ds:[esi]
 000097A3  64: A3	      C     mov     dword ptr fs:displacement_data,eax
	   00000107 R
 000097A9  83 C6 02	      C     add     esi,2
 000097AC  64: 83 05	      C     add     fs:instruction_bytes,2
	   000000EB R 02
			      C 
 000097B4  58		      C     pop     eax
 000097B5  C3		      C     ret
 000097B6		      C store_16_bit_signed_value       ENDP
			      C 
			      C 
			      C 
			      C 
 000097B6		      C store_signed_word_in_ax     PROC    NEAR
			      C ; This routine is used to store a 16-bit value in ax
			      C ;
			      C ; Upon entry:   ax - word to store
			      C ;         fs:[edi] - where to store output
			      C ;
			      C ; Upon exit:    fs:[edi] - is updated
			      C ;
			      C     .IF (ax >= 8000h || ax == 0)
 000097B6  66| 3D 8000	   *	    cmp    ax, 08000h
 000097BA  73 05	   *	    jae    @C05BB
 000097BC  66| 0B C0	   *	    or	ax, ax
 000097BF  75 18	   *	    jne    @C05BA
 000097C1		   *@C05BB:
			      C       ; It's negative
 000097C1  50		      C         push    eax
 000097C2  64: C6 07 2D	      C         mov     byte ptr fs:[edi+0],'-'
 000097C6  F6 D8	      C         neg     al
 000097C8  E8 FFFFED28	      C         call    convert_al_to_hex
 000097CD  66| 64: 89 47      C         mov     word ptr fs:[edi+1],ax
	   01
 000097D2  58		      C         pop     eax
 000097D3  8A C4	      C         mov     al,ah
 000097D5  F6 D8	      C         neg     al
			      C     .ELSE
 000097D7  EB 15	   *	    jmp    @C05BD
 000097D9		   *@C05BA:
			      C       ; It's positive
 000097D9  50		      C         push    eax
 000097DA  64: C6 07 2B	      C         mov     byte ptr fs:[edi+0],'+'
 000097DE  8A 46 01	      C         mov     al,byte ptr ds:[esi+1]
 000097E1  E8 FFFFED0F	      C         call    convert_al_to_hex
 000097E6  66| 64: 89 47      C         mov     word ptr fs:[edi+1],ax
	   01
 000097EB  58		      C         pop     eax
 000097EC  8A C4	      C         mov     al,ah
			      C     .ENDIF
 000097EE		   *@C05BD:
 000097EE  E8 FFFFED02	      C     call    convert_al_to_hex
 000097F3  66| 64: 89 47      C     mov     word ptr fs:[edi+3],ax
	   03
 000097F8  83 C7 05	      C     add     edi,5
			      C 
 000097FB  58		      C     pop     eax
 000097FC  C3		      C     ret
 000097FD		      C store_signed_word_in_ax     ENDP
			      C 
			      C 
			      C 
			      C 
 000097FD		      C store_8_bit_signed_value        PROC    NEAR
			      C ; This routine is used to store a 8-bit value
			      C ;
			      C ; Upon entry:   ds:[esi] - far ptr to value bytes in execution code
			      C ;               fs:[edi] - where to store output
			      C ;
			      C ; Upon exit:    fs:[edi] - is updated
			      C ;
 000097FD  50		      C     push    eax
 000097FE  53		      C     push    ebx
			      C 
 000097FF  8A 06	      C     mov     al,byte ptr ds:[esi]
			      C     .IF (al >= 80h || al == 0)
 00009801  3C 80	   *	    cmp    al, 080h
 00009803  73 04	   *	    jae    @C05BF
 00009805  0A C0	   *	    or	al, al
 00009807  75 06	   *	    jne    @C05BE
 00009809		   *@C05BF:
			      C       ; It's negative
 00009809  F6 D8	      C         neg     al
 0000980B  B3 2D	      C         mov     bl,'-'
			      C     .ELSE
 0000980D  EB 02	   *	    jmp    @C05C1
 0000980F		   *@C05BE:
			      C       ; It's positive
 0000980F  B3 2B	      C         mov     bl,'+'
			      C     .ENDIF
 00009811		   *@C05C1:
 00009811  E8 FFFFECDF	      C     call    convert_al_to_hex
 00009816  64: 88 1F	      C     mov     byte ptr fs:[edi+0],bl
 00009819  66| 64: 89 47      C     mov     word ptr fs:[edi+1],ax
	   01
 0000981E  83 C7 03	      C     add     edi,3
 00009821  64: 83 05	      C     add     fs:parameters_text_length,3
	   000000F7 R 03
 00009829  0F B6 06	      C     movzx   eax,byte ptr ds:[esi]
 0000982C  64: A3	      C     mov     fs:displacement_data,eax
	   00000107 R
 00009832  46		      C     inc     esi
 00009833  64: FF 05	      C     inc     fs:instruction_bytes
	   000000EB R
			      C 
 0000983A  5B		      C     pop     ebx
 0000983B  58		      C     pop     eax
 0000983C  C3		      C     ret
 0000983D		      C store_8_bit_signed_value        ENDP
			      C 
			      C 
			      C 
			      C 
 0000983D		      C store_signed_value      PROC    NEAR
			      C ; This routine is used to store the value based on the current size
			      C ;
			      C ; Upon entry:   ds:[esi] - far ptr to value bytes in instruction
			      C ;               fs:[edi] - where to store output
			      C ;
			      C ; Upon exit:
			      C ;
			      C     .IF ((fs:cpu_mode == 0 && fs:op_size_override != 0) || (fs:cpu_mode != 0 && fs:op_size_override == 0))
 0000983D  64: 83 3D
	   0000009B R 00   *	    cmp    fs : cpu_mode, 000h
 00009845  75 0A	   *	    jne    @C05C4
 00009847  64: 83 3D
	   000000BF R 00   *	    cmp    fs : op_size_override, 000h
 0000984F  75 14	   *	    jne    @C05C3
 00009851		   *@C05C4:
 00009851  64: 83 3D
	   0000009B R 00   *	    cmp    fs : cpu_mode, 000h
 00009859  74 11	   *	    je     @C05C2
 0000985B  64: 83 3D
	   000000BF R 00   *	    cmp    fs : op_size_override, 000h
 00009863  75 07	   *	    jne    @C05C2
 00009865		   *@C05C3:
			      C       ; 16-bit
 00009865  E8 FFFFFEDC	      C         call    store_16_bit_signed_value
			      C     .ELSE
 0000986A  EB 05	   *	    jmp    @C05C7
 0000986C		   *@C05C2:
			      C       ; 32-bit
 0000986C  E8 FFFFFDA8	      C         call    store_32_bit_signed_value
			      C     .ENDIF
 00009871		   *@C05C7:
 00009871  C3		      C     ret
 00009872		      C store_signed_value      ENDP
			      C 
			      C 
			      C 
			      C 
 00009872		      C store_string    PROC    NEAR
			      C ; This routine is used to store a string
			      C ;
			      C ; Upon entry:   stack is arranged as below
			      C ;               fs:[edi] - where to store string
			      C ;
			      C ; Upon exit:    fs:[edi] - updated
			      C ;
 00009872  50		      C     push    eax
			      C 
			      C   ; [esp+08] - offset to string
			      C   ; [esp+04] - calling ip
			      C   ; [esp+00] - eax
 00009873  87 74 24 08	      C     xchg    esi,dword ptr ss:[esp+8]
			      C     .WHILE (byte ptr fs:[esi] != 0)
 00009877  EB 08	   *	    jmp    @C05C8
 00009879		   *@C05C9:
 00009879  64: 8A 06	      C         mov     al,byte ptr fs:[esi]
 0000987C  64: 88 07	      C         mov     byte ptr fs:[edi],al
 0000987F  47		      C         inc     edi
 00009880  46		      C         inc     esi
			      C     .ENDW
 00009881		   *@C05C8:
 00009881  64: 80 3E 00	   *	    cmp    byte ptr fs : [esi], 000h
 00009885  75 F2	   *	    jne    @C05C9
 00009887  87 74 24 08	      C     xchg    dword ptr ss:[esp+8],esi
			      C 
 0000988B  58		      C     pop     eax
 0000988C  C2 0004	      C     ret 4
 0000988F		      C store_string    ENDP
			      C 
			      C 
			      C 
			      C 
 0000988F		      C store_comma     PROC    NEAR
			      C ; This routine stores a comma
			      C ;
			      C ; Upon entry:   es:[edi] - where to store
			      C ;
			      C ; Upon exit:    It's stored
			      C ;
 0000988F  64: C6 07 2C	      C     mov     byte ptr fs:[edi],','
 00009893  47		      C     inc     edi
 00009894  64: FF 05	      C     inc     fs:parameters_text_length
	   000000F7 R
 0000989B  C3		      C     ret
 0000989C		      C store_comma     ENDP
			      C 
			      C 
			      C 
			      C 
 0000989C		      C store_comma_one     PROC    NEAR
			      C ; This routine stores a ",1"
			      C ;
			      C ; Upon entry:   es:[edi] - where to store
			      C ;
			      C ; Upon exit:    It's stored
			      C ;
 0000989C  66| 64: C7 07      C     mov     word ptr fs:[edi],'1,'
	   312C
 000098A2  83 C7 02	      C     add     edi,2
 000098A5  64: 83 05	      C     add     fs:parameters_text_length,2
	   000000F7 R 02
 000098AD  C3		      C     ret
 000098AE		      C store_comma_one     ENDP
			      C 
			      C 
			      C 
			      C 
 000098AE		      C store_comma_cl      PROC    NEAR
			      C ; This routine stores a ",cl"
			      C ;
			      C ; Upon entry:   es:[edi] - where to store
			      C ;
			      C ; Upon exit:    It's stored
			      C ;
 000098AE  66| 64: C7 07      C     mov     word ptr fs:[edi],'c,'
	   632C
 000098B4  64: C6 47 02	      C     mov     byte ptr fs:[edi+2],'l'
	   6C
 000098B9  83 C7 03	      C     add     edi,3
 000098BC  64: 83 05	      C     add     fs:parameters_text_length,3
	   000000F7 R 03
 000098C4  C3		      C     ret
 000098C5		      C store_comma_cl      ENDP
			      C 
			      C 
			      C 
			      C 
 000098C5		      C store_colon     PROC    NEAR
			      C ; This routine stores a colon
			      C ;
			      C ; Upon entry:   es:[edi] - where to store
			      C ;
			      C ; Upon exit:    It's stored
			      C ;
 000098C5  64: C6 07 3A	      C     mov     byte ptr fs:[edi],':'
 000098C9  47		      C     inc     edi
 000098CA  64: FF 05	      C     inc     fs:parameters_text_length
	   000000F7 R
 000098D1  C3		      C     ret
 000098D2		      C store_colon     ENDP
			      C 
			      C 
			      C 
			      C 
 000098D2		      C store_open_bracket      PROC    NEAR
			      C ; This routine stores an opening bracket
			      C ;
			      C ; Upon entry:   es:[edi] - where to store
			      C ;
			      C ; Upon exit:    It's stored
			      C ;
 000098D2  64: C6 07 5B	      C     mov     byte ptr fs:[edi],'['
 000098D6  47		      C     inc     edi
 000098D7  64: FF 05	      C     inc     fs:parameters_text_length
	   000000F7 R
 000098DE  C3		      C     ret
 000098DF		      C store_open_bracket      ENDP
			      C 
			      C 
			      C 
			      C 
 000098DF		      C store_close_bracket     PROC    NEAR
			      C ; This routine stores a closing bracket
			      C ;
			      C ; Upon entry:   es:[edi] - where to store
			      C ;
			      C ; Upon exit:    It's stored
			      C ;
 000098DF  64: C6 07 5D	      C     mov     byte ptr fs:[edi],']'
 000098E3  47		      C     inc     edi
 000098E4  64: FF 05	      C     inc     fs:parameters_text_length
	   000000F7 R
 000098EB  C3		      C     ret
 000098EC		      C store_close_bracket     ENDP
			      C 
			      C 
			      C 
			      C 
			      C 
 000098EC		      C x86_simplify_disassembly    PROC
			      C ; This routine is used to simply the expression created above into the traditional assembly format:
			      C ;
			      C ;
			      C ; Upon entry:   es:[edi] - far ptr to string to disassembly cask generated above
			      C ;               fs:[ebx] - far ptr to string to store (can be uninitialized, this algorithm resets it to spaces)
			      C ;                    ecx - maximum width for string at fs:[ebx]
			      C ;                    eax - maximum width to devote to instruction bytes
			      C ;
			      C ; Upon exit:    fs:[ebx] - string is updated if carry? is clear
			      C ;                 carry? - SET if error in formatting, CLEAR if ok
			      C ;
			      C     .IF (byte ptr es:[edi] == '(')
 000098EC  26: 80 3F 28	   *	    cmp    byte ptr es : [edi], '('
 000098F0  0F 85 000001E2  *	    jne    @C05CB
			      C       ; It opens with a parenthesis, make sure all the |'s are there and it has a closing parenthesis
 000098F6  0F A8	      C         push    gs
 000098F8  60		      C         pushad
			      C       ; [esp+32] - fs
			      C       ; [esp+28] - eax
			      C       ; [esp+24] - ecx
			      C       ; [esp+20] - edx
			      C       ; [esp+16] - ebx
			      C       ; [esp+12] - esp
			      C       ; [esp+08] - ebp
			      C       ; [esp+04] - esi
			      C       ; [esp+00] - edi
			      C 
 000098F9  66| 2E: 8E 2D      C         mov     gs,cs:data_segment
	   0000A4FD R
			      C 
 00009901  BB 00000001	      C         mov     ebx,1
 00009906  33 D2	      C         xor     edx,edx
			      C         .WHILE (byte ptr es:[edi+ebx] != ')' && ebx < 100)
 00009908  E9 00000085	   *	    jmp    @C05CD
 0000990D		   *@C05CE:
			      C             .IF (byte ptr es:[edi+ebx] == '|')
 0000990D  26: 80 3C 3B
	   7C		   *	    cmp    byte ptr es : [edi + ebx], '|'
 00009912  75 7D	   *	    jne    @C05CF
 00009914  42		      C                 inc     edx
			      C                 .IF (edx == 1)
 00009915  83 FA 01	   *	    cmp    edx, 001h
 00009918  75 10	   *	    jne    @C05D1
			      C                   ; Start of prefix bytes
 0000991A  65: 89 1D	      C                     mov     gs:prefix_bytes_start,ebx
	   0000012B R
 00009921  65: FF 05	      C                     inc     gs:prefix_bytes_start
	   0000012B R
			      C                 .ELSEIF (edx == 2)
 00009928  EB 67	   *	    jmp    @C05D3
 0000992A		   *@C05D1:
 0000992A  83 FA 02	   *	    cmp    edx, 002h
 0000992D  75 17	   *	    jne    @C05D4
			      C                   ; End of prefix bytes
 0000992F  65: 89 1D	      C                     mov     gs:prefix_bytes_end,ebx
	   0000012F R
			      C                   ; Start of instruction bytes
 00009936  65: 89 1D	      C                     mov     gs:instruction_bytes_start,ebx
	   00000133 R
 0000993D  65: FF 05	      C                     inc     gs:instruction_bytes_start
	   00000133 R
			      C                 .ELSEIF (edx == 3)
 00009944  EB 4B	   *	    jmp    @C05D6
 00009946		   *@C05D4:
 00009946  83 FA 03	   *	    cmp    edx, 003h
 00009949  75 09	   *	    jne    @C05D7
			      C                   ; End of instruction bytes
 0000994B  65: 89 1D	      C                     mov     gs:instruction_bytes_end,ebx
	   00000137 R
			      C                 .ELSEIF (edx == 8)
 00009952  EB 3D	   *	    jmp    @C05D9
 00009954		   *@C05D7:
 00009954  83 FA 08	   *	    cmp    edx, 008h
 00009957  75 10	   *	    jne    @C05DA
			      C                   ; Start of instruction text
 00009959  65: 89 1D	      C                     mov     gs:instruction_text_start,ebx
	   0000013B R
 00009960  65: FF 05	      C                     inc     gs:instruction_text_start
	   0000013B R
			      C                 .ELSEIF (edx == 9)
 00009967  EB 28	   *	    jmp    @C05DC
 00009969		   *@C05DA:
 00009969  83 FA 09	   *	    cmp    edx, 009h
 0000996C  75 17	   *	    jne    @C05DD
			      C                   ; End of instruction text
 0000996E  65: 89 1D	      C                     mov     gs:instruction_text_end,ebx
	   0000013F R
			      C                   ; Start of parameters text
 00009975  65: 89 1D	      C                     mov     gs:parameters_text_start,ebx
	   00000143 R
 0000997C  65: FF 05	      C                     inc     gs:parameters_text_start
	   00000143 R
			      C                 .ELSEIF (edx == 10)
 00009983  EB 0C	   *	    jmp    @C05DF
 00009985		   *@C05DD:
 00009985  83 FA 0A	   *	    cmp    edx, 00Ah
 00009988  75 07	   *	    jne    @C05E0
			      C                   ; End of parameters text
 0000998A  65: 89 1D	      C                     mov     gs:parameters_text_end,ebx
	   00000147 R
			      C                 .ENDIF
			      C             .ENDIF
 00009991		   *@C05E0:
 00009991		   *@C05DF:
 00009991		   *@C05DC:
 00009991		   *@C05D9:
 00009991		   *@C05D6:
 00009991		   *@C05D3:
 00009991		   *@C05CF:
 00009991  43		      C             inc     ebx
 00009992		      C           @@:
			      C         .ENDW
 00009992		   *@C05CD:
 00009992  26: 80 3C 3B
	   29		   *	    cmp    byte ptr es : [edi + ebx], ')'
 00009997  74 09	   *	    je     @C05E2
 00009999  83 FB 64	   *	    cmp    ebx, 064h
 0000999C  0F 82 FFFFFF6B  *	    jb     @C05CE
			      C         .IF (edx == 16)
 000099A2		   *@C05E2:
 000099A2  83 FA 10	   *	    cmp    edx, 010h
 000099A5  0F 85 00000127  *	    jne    @C05E4
			      C           ; It seems to be in the right format, begin copying
 000099AB  8B 5C 24 10	      C             mov     ebx,dword ptr ss:[esp+16]
			      C             .IF (eax == 0)
 000099AF  0B C0	   *	    or	eax, eax
 000099B1  75 05	   *	    jne    @C05E6
			      C               ; They don't want prefix bytes, so we just copy the instruction
 000099B3  E9 0000009D	      C                 jmp     copy_instruction
			      C             .ENDIF
 000099B8		   *@C05E6:
 000099B8  65: 8B 35	      C             mov     esi,gs:prefix_bytes_start
	   0000012B R
			      C             .IF (byte ptr es:[edi+esi] == '|')
 000099BF  26: 80 3C 3E
	   7C		   *	    cmp    byte ptr es : [edi + esi], '|'
 000099C4  75 07	   *	    jne    @C05E8
			      C               ; There are no prefix bytes
 000099C6  65: 8B 35	      C                 mov     esi,gs:instruction_bytes_start
	   00000133 R
			      C             .ENDIF
			      C             .WHILE (eax > 0 && ecx > 0)
 000099CD		   *@C05E8:
 000099CD  EB 39	   *	    jmp    @C05EA
 000099CF		   *@C05EB:
 000099CF  26: 8A 14 3E	      C                 mov     dl,byte ptr es:[edi+esi]
 000099D3  64: 88 13	      C                 mov     byte ptr fs:[ebx],dl
 000099D6  43		      C                 inc     ebx
 000099D7  46		      C                 inc     esi
 000099D8  48		      C                 dec     eax
 000099D9  49		      C                 dec     ecx
			      C                 .IF (esi == gs:prefix_bytes_end)
 000099DA  65: 3B 35
	   0000012F R	   *	    cmp    esi, gs : prefix_bytes_end
 000099E1  75 1A	   *	    jne    @C05EC
			      C                   ; We're switching over to instruction bytes
 000099E3  64: C6 03 3A	      C                     mov     byte ptr fs:[ebx],':'
 000099E7  43		      C                     inc     ebx
 000099E8  48		      C                     dec     eax
 000099E9  49		      C                     dec     ecx
			      C                     .IF (eax == 0 || ecx == 0)
 000099EA  0B C0	   *	    or	eax, eax
 000099EC  74 04	   *	    je     @C05EF
 000099EE  0B C9	   *	    or	ecx, ecx
 000099F0  75 02	   *	    jne    @C05EE
 000099F2		   *@C05EF:
 000099F2  EB 3C	      C                         jmp     all_bytes_displayed
			      C                     .ENDIF
 000099F4		   *@C05EE:
 000099F4  65: 8B 35	      C                     mov     esi,gs:instruction_bytes_start
	   00000133 R
			      C                 .ELSEIF (esi == gs:instruction_bytes_end)
 000099FB  EB 0B	   *	    jmp    @C05F1
 000099FD		   *@C05EC:
 000099FD  65: 3B 35
	   00000137 R	   *	    cmp    esi, gs : instruction_bytes_end
 00009A04  75 02	   *	    jne    @C05F2
			      C                   ; We're finished copying bytes, now we pad with spaces
 00009A06  EB 28	      C                     jmp     all_bytes_displayed
			      C                 .ENDIF
			      C             .ENDW
 00009A08		   *@C05F2:
 00009A08		   *@C05F1:
 00009A08		   *@C05EA:
 00009A08  83 F8 00	   *	    cmp    eax, 000h
 00009A0B  76 05	   *	    jbe    @C05F4
 00009A0D  83 F9 00	   *	    cmp    ecx, 000h
 00009A10  77 BD	   *	    ja     @C05EB
			      C           ; If we're here then we have more instruction bytes then they've allocated space for
			      C             .IF (dword ptr ss:[esp+28] != 0)
 00009A12		   *@C05F4:
 00009A12  83 7C 24 1C 00  *	    cmp    dword ptr ss : [esp + 01Ch], 000h
 00009A17  74 17	   *	    je     @C05F6
			      C               ; There's enough room for us to add ".." or ">"
			      C                 .IF (dword ptr ss:[esp+28] >= 2)
 00009A19  83 7C 24 1C 02  *	    cmp    dword ptr ss : [esp + 01Ch], 002h
 00009A1E  72 09	   *	    jb     @C05F8
 00009A20  66| 64: C7 43      C                     mov     word ptr fs:[ebx-2],'..'
	   FE 2E2E
			      C                 .ELSE
 00009A27  EB 05	   *	    jmp    @C05FA
 00009A29		   *@C05F8:
 00009A29  64: C6 43 FF	      C                     mov     byte ptr fs:[ebx-1],'>'
	   3E
			      C                 .ENDIF
 00009A2E		   *@C05FA:
 00009A2E  EB 13	      C                 jmp     prefix_instruction_with_pad_space
			      C             .ENDIF
			      C 
 00009A30		      C           all_bytes_displayed:
			      C           ; Now we have to stick spaces between the end of the bytes and where the instruction will go
			      C             .WHILE (eax > 0 && ecx > 0)
 00009A30		   *@C05F6:
 00009A30  EB 07	   *	    jmp    @C05FB
 00009A32		   *@C05FC:
 00009A32  64: C6 03 20	      C                 mov     byte ptr fs:[ebx],' '
 00009A36  43		      C                 inc     ebx
 00009A37  48		      C                 dec     eax
 00009A38  49		      C                 dec     ecx
			      C             .ENDW
 00009A39		   *@C05FB:
 00009A39  83 F8 00	   *	    cmp    eax, 000h
 00009A3C  76 05	   *	    jbe    @C05FD
 00009A3E  83 F9 00	   *	    cmp    ecx, 000h
 00009A41  77 EF	   *	    ja     @C05FC
			      C 
			      C           ; Right now we've copied over any prefix instruction bytes they want
 00009A43		      C           prefix_instruction_with_pad_space:
			      C             .IF (dword ptr ss:[esp+28] != 0 && ecx >= 1)
 00009A43		   *@C05FD:
 00009A43  83 7C 24 1C 00  *	    cmp    dword ptr ss : [esp + 01Ch], 000h
 00009A48  74 0B	   *	    je     @C05FF
 00009A4A  83 F9 01	   *	    cmp    ecx, 001h
 00009A4D  72 06	   *	    jb     @C05FF
			      C               ; There were opcodes, we need to add a space
 00009A4F  64: C6 03 20	      C                 mov     byte ptr fs:[ebx],' '
 00009A53  43		      C                 inc     ebx
 00009A54  49		      C                 dec     ecx
			      C             .ENDIF
			      C 
			      C           ; Now, we're ready to copy the instruction
 00009A55		      C           copy_instruction:
 00009A55		   *@C05FF:
 00009A55  65: 8B 35	      C             mov     esi,gs:instruction_text_start
	   0000013B R
 00009A5C  33 D2	      C             xor     edx,edx
			      C             .WHILE (ecx > 0 && esi < gs:instruction_text_end)
 00009A5E  EB 0B	   *	    jmp    @C0602
 00009A60		   *@C0603:
 00009A60  26: 8A 04 3E	      C                 mov     al,byte ptr es:[edi+esi]
 00009A64  64: 88 03	      C                 mov     byte ptr fs:[ebx],al
 00009A67  43		      C                 inc     ebx
 00009A68  46		      C                 inc     esi
 00009A69  42		      C                 inc     edx
 00009A6A  49		      C                 dec     ecx
			      C             .ENDW
 00009A6B		   *@C0602:
 00009A6B  83 F9 00	   *	    cmp    ecx, 000h
 00009A6E  76 09	   *	    jbe    @C0604
 00009A70  65: 3B 35
	   0000013F R	   *	    cmp    esi, gs : instruction_text_end
 00009A77  72 E7	   *	    jb     @C0603
			      C 
			      C             .IF (edx >= 7 && ecx > 0)
 00009A79		   *@C0604:
 00009A79  83 FA 07	   *	    cmp    edx, 007h
 00009A7C  72 0C	   *	    jb     @C0606
 00009A7E  83 F9 00	   *	    cmp    ecx, 000h
 00009A81  76 07	   *	    jbe    @C0606
			      C               ; The instruction is the maximum length (like cmpxchg)
 00009A83  64: C6 03 20	      C                 mov     byte ptr fs:[ebx],' '
 00009A87  42		      C                 inc     edx
 00009A88  43		      C                 inc     ebx
 00009A89  49		      C                 dec     ecx
			      C             .ENDIF
			      C 
			      C           ; Now, put spaces out to the 8th position from the start of the instruction
			      C             .WHILE (ecx > 0 && edx < 7)
 00009A8A		   *@C0606:
 00009A8A  EB 07	   *	    jmp    @C0609
 00009A8C		   *@C060A:
 00009A8C  64: C6 03 20	      C                 mov     byte ptr fs:[ebx],' '
 00009A90  43		      C                 inc     ebx
 00009A91  49		      C                 dec     ecx
 00009A92  42		      C                 inc     edx
			      C             .ENDW
 00009A93		   *@C0609:
 00009A93  83 F9 00	   *	    cmp    ecx, 000h
 00009A96  76 05	   *	    jbe    @C060B
 00009A98  83 FA 07	   *	    cmp    edx, 007h
 00009A9B  72 EF	   *	    jb     @C060A
			      C 
 00009A9D		      C           copy_parameters:
 00009A9D		   *@C060B:
 00009A9D  65: 8B 35	      C             mov     esi,gs:parameters_text_start
	   00000143 R
			      C             .WHILE (ecx > 0 && esi < gs:parameters_text_end)
 00009AA4  EB 0A	   *	    jmp    @C060D
 00009AA6		   *@C060E:
 00009AA6  26: 8A 14 3E	      C                 mov     dl,byte ptr es:[edi+esi]
 00009AAA  64: 88 13	      C                 mov     byte ptr fs:[ebx],dl
 00009AAD  43		      C                 inc     ebx
 00009AAE  46		      C                 inc     esi
 00009AAF  49		      C                 dec     ecx
			      C             .ENDW
 00009AB0		   *@C060D:
 00009AB0  83 F9 00	   *	    cmp    ecx, 000h
 00009AB3  76 09	   *	    jbe    @C060F
 00009AB5  65: 3B 35
	   00000147 R	   *	    cmp    esi, gs : parameters_text_end
 00009ABC  72 E8	   *	    jb     @C060E
			      C 
			      C           ; Now, put spaces out to the end of whatever string length they specified
			      C             .WHILE (ecx > 0)
 00009ABE		   *@C060F:
 00009ABE  EB 06	   *	    jmp    @C0611
 00009AC0		   *@C0612:
 00009AC0  64: C6 03 20	      C                 mov     byte ptr fs:[ebx],' '
 00009AC4  43		      C                 inc     ebx
 00009AC5  49		      C                 dec     ecx
			      C             .ENDW
 00009AC6		   *@C0611:
 00009AC6  83 F9 00	   *	    cmp    ecx, 000h
 00009AC9  77 F5	   *	    ja     @C0612
			      C 
			      C           ; NULL terminate it
 00009ACB  64: C6 03 00	      C             mov     byte ptr fs:[ebx],0
			      C 
 00009ACF  F8		      C             clc
			      C         .ELSE
 00009AD0  EB 01	   *	    jmp    @C0614
 00009AD2		   *@C05E4:
 00009AD2  F9		      C             stc
			      C         .ENDIF
			      C 
 00009AD3		   *@C0614:
 00009AD3  61		      C         popad
 00009AD4  0F A9	      C         pop     gs
			      C     .ELSE
 00009AD6  EB 01	   *	    jmp    @C0615
 00009AD8		   *@C05CB:
 00009AD8  F9		      C         stc
			      C     .ENDIF
 00009AD9		   *@C0615:
 00009AD9  CB		      C     retf
 00009ADA		      C x86_simplify_disassembly    ENDP
			      C 
			      C 
			      C 
			      C 
 00009ADA		      C X86_fpu_opcode      PROC
			      C ; This routine is used to disassemble an FPU opcode
			      C ;
			      C ; Upon entry:   ebx - opcode sequence
			      C ;
			      C ; Upon exit:    ds:[esi] - far ptr to opcode string
			      C ;                    ecx - length of string
			      C ;
 00009ADA  60		      C     pushad
			      C 
			      C     .IF (bh >= 0d8h && bh <= 0dfh)
 00009ADB  80 FF D8	   *	    cmp    bh, 0D8h
 00009ADE  0F 82 00000949  *	    jb     @C0616
 00009AE4  80 FF DF	   *	    cmp    bh, 0DFh
 00009AE7  0F 87 00000940  *	    ja     @C0616
 00009AED  33 F6	      C         xor     esi,esi
 00009AEF  B9 00000004	      C         mov     ecx,4
			      C         .IF (bh == 0d8h)
 00009AF4  80 FF D8	   *	    cmp    bh, 0D8h
 00009AF7  0F 85 00000119  *	    jne    @C0619
 00009AFD  66| BF 0B18 R      C             mov     di,(lowword(offset st0_comma_sti_text))
			      C             .IF (bl >= 0c0h && bl <= 0c7h)
 00009B01  80 FB C0	   *	    cmp    bl, 0C0h
 00009B04  72 0E	   *	    jb     @C061B
 00009B06  80 FB C7	   *	    cmp    bl, 0C7h
 00009B09  77 09	   *	    ja     @C061B
			      C               ; It's FADD st(0),st(i)
 00009B0B  66| BE 0897 R      C                 mov     si,(lowword(offset fadd_text))
			      C             .ELSEIF (bl >= 0c8h && bl <= 0cfh)
 00009B0F  E9 00000926	   *	    jmp    @C061E
 00009B14		   *@C061B:
 00009B14  80 FB C8	   *	    cmp    bl, 0C8h
 00009B17  72 0E	   *	    jb     @C061F
 00009B19  80 FB CF	   *	    cmp    bl, 0CFh
 00009B1C  77 09	   *	    ja     @C061F
			      C               ; It's FMUL st(0),st(i)
 00009B1E  66| BE 089C R      C                 mov     si,(lowword(offset fmul_text))
			      C             .ELSEIF (bl >= 0d0h && bl <= 0d7h)
 00009B22  E9 00000913	   *	    jmp    @C0622
 00009B27		   *@C061F:
 00009B27  80 FB D0	   *	    cmp    bl, 0D0h
 00009B2A  72 0E	   *	    jb     @C0623
 00009B2C  80 FB D7	   *	    cmp    bl, 0D7h
 00009B2F  77 09	   *	    ja     @C0623
			      C               ; It's FCOM st(0),st(i)
 00009B31  66| BE 08A1 R      C                 mov     si,(lowword(offset fcom_text))
			      C             .ELSEIF (bl >= 0d8h && bl <= 0dfh)
 00009B35  E9 00000900	   *	    jmp    @C0626
 00009B3A		   *@C0623:
 00009B3A  80 FB D8	   *	    cmp    bl, 0D8h
 00009B3D  72 13	   *	    jb     @C0627
 00009B3F  80 FB DF	   *	    cmp    bl, 0DFh
 00009B42  77 0E	   *	    ja     @C0627
			      C               ; It's FCOMP st(0),st(i)
 00009B44  B9 00000005	      C                 mov     ecx,5
 00009B49  66| BE 08A1 R      C                 mov     si,(lowword(offset fcomp_text))
			      C             .ELSEIF (bl >= 0e0h && bl <= 0e7h)
 00009B4D  E9 000008E8	   *	    jmp    @C062A
 00009B52		   *@C0627:
 00009B52  80 FB E0	   *	    cmp    bl, 0E0h
 00009B55  72 0E	   *	    jb     @C062B
 00009B57  80 FB E7	   *	    cmp    bl, 0E7h
 00009B5A  77 09	   *	    ja     @C062B
			      C               ; It's FSUB st(0),st(i)
 00009B5C  66| BE 08A7 R      C                 mov     si,(lowword(offset fsub_text))
			      C             .ELSEIF (bl >= 0e8h && bl <= 0efh)
 00009B60  E9 000008D5	   *	    jmp    @C062E
 00009B65		   *@C062B:
 00009B65  80 FB E8	   *	    cmp    bl, 0E8h
 00009B68  72 13	   *	    jb     @C062F
 00009B6A  80 FB EF	   *	    cmp    bl, 0EFh
 00009B6D  77 0E	   *	    ja     @C062F
			      C               ; It's FSUBR st(0),st(i)
 00009B6F  B9 00000005	      C                 mov     ecx,5
 00009B74  66| BE 08A7 R      C                 mov     si,(lowword(offset fsubr_text))
			      C             .ELSEIF (bl >= 0f0h && bl <= 0f7h)
 00009B78  E9 000008BD	   *	    jmp    @C0632
 00009B7D		   *@C062F:
 00009B7D  80 FB F0	   *	    cmp    bl, 0F0h
 00009B80  72 0E	   *	    jb     @C0633
 00009B82  80 FB F7	   *	    cmp    bl, 0F7h
 00009B85  77 09	   *	    ja     @C0633
			      C               ; It's FDIV st(0),st(i)
 00009B87  66| BE 08B2 R      C                 mov     si,(lowword(offset fdiv_text))
			      C             .ELSEIF (bl >= 0f8h && bl <= 0ffh)
 00009B8B  E9 000008AA	   *	    jmp    @C0636
 00009B90		   *@C0633:
 00009B90  80 FB F8	   *	    cmp    bl, 0F8h
 00009B93  72 13	   *	    jb     @C0637
 00009B95  80 FB FF	   *	    cmp    bl, 0FFh
 00009B98  77 0E	   *	    ja     @C0637
			      C               ; It's FDIVR st(0),st(i)
 00009B9A  B9 00000005	      C                 mov     ecx,5
 00009B9F  66| BE 08B2 R      C                 mov     si,(lowword(offset fdivr_text))
			      C             .ELSE
 00009BA3  E9 00000892	   *	    jmp    @C063A
 00009BA8		   *@C0637:
 00009BA8  66| BF 0B03 R      C                 mov     di,(lowword(offset real4_text))
 00009BAC  C0 EB 03	      C                 shr     bl,3
 00009BAF  80 E3 07	      C                 and     bl,111b
			      C                 .IF (bl == 000b)
 00009BB2  0A DB	   *	    or	bl, bl
 00009BB4  75 06	   *	    jne    @C063B
			      C                   ; It's FADD real4
 00009BB6  66| BE 0897 R      C                     mov     si,(lowword(offset fadd_text))
			      C                 .ELSEIF (bl == 001b)
 00009BBA  EB 55	   *	    jmp    @C063D
 00009BBC		   *@C063B:
 00009BBC  80 FB 01	   *	    cmp    bl, 001h
 00009BBF  75 06	   *	    jne    @C063E
			      C                   ; It's FMUL real4
 00009BC1  66| BE 089C R      C                     mov     si,(lowword(offset fmul_text))
			      C                 .ELSEIF (bl == 010b)
 00009BC5  EB 4A	   *	    jmp    @C0640
 00009BC7		   *@C063E:
 00009BC7  80 FB 02	   *	    cmp    bl, 002h
 00009BCA  75 06	   *	    jne    @C0641
			      C                   ; It's FCOM real4
 00009BCC  66| BE 08A1 R      C                     mov     si,(lowword(offset fcom_text))
			      C                 .ELSEIF (bl == 011b)
 00009BD0  EB 3F	   *	    jmp    @C0643
 00009BD2		   *@C0641:
 00009BD2  80 FB 03	   *	    cmp    bl, 003h
 00009BD5  75 0B	   *	    jne    @C0644
			      C                   ; It's FCOMP real4
 00009BD7  B9 00000005	      C                     mov     ecx,5
 00009BDC  66| BE 08A1 R      C                     mov     si,(lowword(offset fcomp_text))
			      C                 .ELSEIF (bl == 100b)
 00009BE0  EB 2F	   *	    jmp    @C0646
 00009BE2		   *@C0644:
 00009BE2  80 FB 04	   *	    cmp    bl, 004h
 00009BE5  75 06	   *	    jne    @C0647
			      C                   ; It's FSUB real4
 00009BE7  66| BE 08A7 R      C                     mov     si,(lowword(offset fsub_text))
			      C                 .ELSEIF (bl == 101b)
 00009BEB  EB 24	   *	    jmp    @C0649
 00009BED		   *@C0647:
 00009BED  80 FB 05	   *	    cmp    bl, 005h
 00009BF0  75 0B	   *	    jne    @C064A
			      C                   ; It's FSUBR real4
 00009BF2  B9 00000005	      C                     mov     ecx,5
 00009BF7  66| BE 08A7 R      C                     mov     si,(lowword(offset fsubr_text))
			      C                 .ELSEIF (bl == 110b)
 00009BFB  EB 14	   *	    jmp    @C064C
 00009BFD		   *@C064A:
 00009BFD  80 FB 06	   *	    cmp    bl, 006h
 00009C00  75 06	   *	    jne    @C064D
			      C                   ; It's FDIV real4
 00009C02  66| BE 08B2 R      C                     mov     si,(lowword(offset fdiv_text))
			      C                 .ELSE
 00009C06  EB 09	   *	    jmp    @C064F
 00009C08		   *@C064D:
			      C                   ; It's FDIVR real4
 00009C08  B9 00000005	      C                     mov     ecx,5
 00009C0D  66| BE 08B2 R      C                     mov     si,(lowword(offset fdivr_text))
			      C                 .ENDIF
			      C             .ENDIF
 00009C11		   *@C064F:
 00009C11		   *@C064C:
 00009C11		   *@C0649:
 00009C11		   *@C0646:
 00009C11		   *@C0643:
 00009C11		   *@C0640:
 00009C11		   *@C063D:
			      C         .ELSEIF (bh == 0d9h)
 00009C11  E9 00000824	   *	    jmp    @C0650
 00009C16		   *@C0619:
 00009C16  80 FF D9	   *	    cmp    bh, 0D9h
 00009C19  0F 85 000002B1  *	    jne    @C0651
 00009C1F  66| BF 0AE4 R      C             mov     di,(lowword(offset null_text))
			      C             .IF (bl >= 0c0h && bl <= 0c7h)
 00009C23  80 FB C0	   *	    cmp    bl, 0C0h
 00009C26  72 17	   *	    jb     @C0653
 00009C28  80 FB C7	   *	    cmp    bl, 0C7h
 00009C2B  77 12	   *	    ja     @C0653
			      C               ; It's FLD st(i)
 00009C2D  B9 00000003	      C                 mov     ecx,3
 00009C32  66| BE 08C2 R      C                 mov     si,(lowword(offset fld_text))
 00009C36  66| BF 05D6 R      C                 mov     di,(lowword(offset sti_text))
			      C             .ELSEIF (bl >= 0c8h && bl <= 0cfh)
 00009C3A  E9 000007FB	   *	    jmp    @C0656
 00009C3F		   *@C0653:
 00009C3F  80 FB C8	   *	    cmp    bl, 0C8h
 00009C42  72 12	   *	    jb     @C0657
 00009C44  80 FB CF	   *	    cmp    bl, 0CFh
 00009C47  77 0D	   *	    ja     @C0657
			      C               ; It's FXCH st(i)
 00009C49  66| BE 08CB R      C                 mov     si,(lowword(offset fxch_text))
 00009C4D  66| BF 05D6 R      C                 mov     di,(lowword(offset sti_text))
			      C             .ELSEIF (bl == 0d0h)
 00009C51  E9 000007E4	   *	    jmp    @C065A
 00009C56		   *@C0657:
 00009C56  80 FB D0	   *	    cmp    bl, 0D0h
 00009C59  75 09	   *	    jne    @C065B
			      C               ; fnop
 00009C5B  66| BE 08CF R      C                 mov     si,(lowword(offset fnop_text))
			      C             .ELSEIF (bl == 0e0h)
 00009C5F  E9 000007D6	   *	    jmp    @C065D
 00009C64		   *@C065B:
 00009C64  80 FB E0	   *	    cmp    bl, 0E0h
 00009C67  75 09	   *	    jne    @C065E
			      C               ; fchs
 00009C69  66| BE 08D3 R      C                 mov     si,(lowword(offset fchs_text))
			      C             .ELSEIF (bl == 0e1h)
 00009C6D  E9 000007C8	   *	    jmp    @C0660
 00009C72		   *@C065E:
 00009C72  80 FB E1	   *	    cmp    bl, 0E1h
 00009C75  75 09	   *	    jne    @C0661
			      C               ; fabs
 00009C77  66| BE 08D7 R      C                 mov     si,(lowword(offset fabs_text))
			      C             .ELSEIF (bl == 0e4h)
 00009C7B  E9 000007BA	   *	    jmp    @C0663
 00009C80		   *@C0661:
 00009C80  80 FB E4	   *	    cmp    bl, 0E4h
 00009C83  75 09	   *	    jne    @C0664
			      C               ; ftst
 00009C85  66| BE 08DB R      C                 mov     si,(lowword(offset ftst_text))
			      C             .ELSEIF (bl == 0e5h)
 00009C89  E9 000007AC	   *	    jmp    @C0666
 00009C8E		   *@C0664:
 00009C8E  80 FB E5	   *	    cmp    bl, 0E5h
 00009C91  75 09	   *	    jne    @C0667
			      C               ; fxam
 00009C93  66| BE 08DF R      C                 mov     si,(lowword(offset fxam_text))
			      C             .ELSEIF (bl == 0e8h)
 00009C97  E9 0000079E	   *	    jmp    @C0669
 00009C9C		   *@C0667:
 00009C9C  80 FB E8	   *	    cmp    bl, 0E8h
 00009C9F  75 09	   *	    jne    @C066A
			      C               ; fld1
 00009CA1  66| BE 08E3 R      C                 mov     si,(lowword(offset fld1_text))
			      C             .ELSEIF (bl == 0e9h)
 00009CA5  E9 00000790	   *	    jmp    @C066C
 00009CAA		   *@C066A:
 00009CAA  80 FB E9	   *	    cmp    bl, 0E9h
 00009CAD  75 0E	   *	    jne    @C066D
			      C               ; fldl2t
 00009CAF  B9 00000006	      C                 mov     ecx,6
 00009CB4  66| BE 08E7 R      C                 mov     si,(lowword(offset fldl2t_text))
			      C             .ELSEIF (bl == 0eah)
 00009CB8  E9 0000077D	   *	    jmp    @C066F
 00009CBD		   *@C066D:
 00009CBD  80 FB EA	   *	    cmp    bl, 0EAh
 00009CC0  75 0E	   *	    jne    @C0670
			      C               ; fldl2e
 00009CC2  B9 00000006	      C                 mov     ecx,6
 00009CC7  66| BE 08ED R      C                 mov     si,(lowword(offset fldl2e_text))
			      C             .ELSEIF (bl == 0ebh)
 00009CCB  E9 0000076A	   *	    jmp    @C0672
 00009CD0		   *@C0670:
 00009CD0  80 FB EB	   *	    cmp    bl, 0EBh
 00009CD3  75 0E	   *	    jne    @C0673
			      C               ; fldpi
 00009CD5  B9 00000005	      C                 mov     ecx,5
 00009CDA  66| BE 08F3 R      C                 mov     si,(lowword(offset fldpi_text))
			      C             .ELSEIF (bl == 0ech)
 00009CDE  E9 00000757	   *	    jmp    @C0675
 00009CE3		   *@C0673:
 00009CE3  80 FB EC	   *	    cmp    bl, 0ECh
 00009CE6  75 0E	   *	    jne    @C0676
			      C               ; fldlg2
 00009CE8  B9 00000006	      C                 mov     ecx,6
 00009CED  66| BE 08F8 R      C                 mov     si,(lowword(offset fldlg2_text))
			      C             .ELSEIF (bl == 0edh)
 00009CF1  E9 00000744	   *	    jmp    @C0678
 00009CF6		   *@C0676:
 00009CF6  80 FB ED	   *	    cmp    bl, 0EDh
 00009CF9  75 0E	   *	    jne    @C0679
			      C               ; fldln2
 00009CFB  B9 00000006	      C                 mov     ecx,6
 00009D00  66| BE 08FE R      C                 mov     si,(lowword(offset fldln2_text))
			      C             .ELSEIF (bl == 0eeh)
 00009D04  E9 00000731	   *	    jmp    @C067B
 00009D09		   *@C0679:
 00009D09  80 FB EE	   *	    cmp    bl, 0EEh
 00009D0C  75 09	   *	    jne    @C067C
			      C               ; fldz
 00009D0E  66| BE 0904 R      C                 mov     si,(lowword(offset fldz_text))
			      C             .ELSEIF (bl == 0f0h)
 00009D12  E9 00000723	   *	    jmp    @C067E
 00009D17		   *@C067C:
 00009D17  80 FB F0	   *	    cmp    bl, 0F0h
 00009D1A  75 0E	   *	    jne    @C067F
			      C               ; f2xm1
 00009D1C  B9 00000005	      C                 mov     ecx,5
 00009D21  66| BE 0908 R      C                 mov     si,(lowword(offset f2xm1_text))
			      C             .ELSEIF (bl == 0f1h)
 00009D25  E9 00000710	   *	    jmp    @C0681
 00009D2A		   *@C067F:
 00009D2A  80 FB F1	   *	    cmp    bl, 0F1h
 00009D2D  75 0E	   *	    jne    @C0682
			      C               ; fyl2x
 00009D2F  B9 00000005	      C                 mov     ecx,5
 00009D34  66| BE 090D R      C                 mov     si,(lowword(offset fyl2x_text))
			      C             .ELSEIF (bl == 0f2h)
 00009D38  E9 000006FD	   *	    jmp    @C0684
 00009D3D		   *@C0682:
 00009D3D  80 FB F2	   *	    cmp    bl, 0F2h
 00009D40  75 0E	   *	    jne    @C0685
			      C               ; fptan
 00009D42  B9 00000005	      C                 mov     ecx,5
 00009D47  66| BE 0912 R      C                 mov     si,(lowword(offset fptan_text))
			      C             .ELSEIF (bl == 0f3h)
 00009D4B  E9 000006EA	   *	    jmp    @C0687
 00009D50		   *@C0685:
 00009D50  80 FB F3	   *	    cmp    bl, 0F3h
 00009D53  75 0E	   *	    jne    @C0688
			      C               ; fpatan
 00009D55  B9 00000006	      C                 mov     ecx,6
 00009D5A  66| BE 0917 R      C                 mov     si,(lowword(offset fpatan_text))
			      C             .ELSEIF (bl == 0f4h)
 00009D5E  E9 000006D7	   *	    jmp    @C068A
 00009D63		   *@C0688:
 00009D63  80 FB F4	   *	    cmp    bl, 0F4h
 00009D66  75 0E	   *	    jne    @C068B
			      C               ; fxtract
 00009D68  B9 00000007	      C                 mov     ecx,7
 00009D6D  66| BE 091D R      C                 mov     si,(lowword(offset fxtract_text))
			      C             .ELSEIF (bl == 0f5h)
 00009D71  E9 000006C4	   *	    jmp    @C068D
 00009D76		   *@C068B:
 00009D76  80 FB F5	   *	    cmp    bl, 0F5h
 00009D79  75 0E	   *	    jne    @C068E
			      C               ; fprem1
 00009D7B  B9 00000006	      C                 mov     ecx,6
 00009D80  66| BE 0924 R      C                 mov     si,(lowword(offset fprem1_text))
			      C             .ELSEIF (bl == 0f6h)
 00009D84  E9 000006B1	   *	    jmp    @C0690
 00009D89		   *@C068E:
 00009D89  80 FB F6	   *	    cmp    bl, 0F6h
 00009D8C  75 0E	   *	    jne    @C0691
			      C               ; fdecstp
 00009D8E  B9 00000007	      C                 mov     ecx,7
 00009D93  66| BE 092A R      C                 mov     si,(lowword(offset fdecstp_text))
			      C             .ELSEIF (bl == 0f7h)
 00009D97  E9 0000069E	   *	    jmp    @C0693
 00009D9C		   *@C0691:
 00009D9C  80 FB F7	   *	    cmp    bl, 0F7h
 00009D9F  75 0E	   *	    jne    @C0694
			      C               ; fincstp
 00009DA1  B9 00000007	      C                 mov     ecx,7
 00009DA6  66| BE 0931 R      C                 mov     si,(lowword(offset fincstp_text))
			      C             .ELSEIF (bl == 0f8h)
 00009DAA  E9 0000068B	   *	    jmp    @C0696
 00009DAF		   *@C0694:
 00009DAF  80 FB F8	   *	    cmp    bl, 0F8h
 00009DB2  75 0E	   *	    jne    @C0697
			      C               ; fprem
 00009DB4  B9 00000005	      C                 mov     ecx,5
 00009DB9  66| BE 0924 R      C                 mov     si,(lowword(offset fprem_text))
			      C             .ELSEIF (bl == 0f9h)
 00009DBD  E9 00000678	   *	    jmp    @C0699
 00009DC2		   *@C0697:
 00009DC2  80 FB F9	   *	    cmp    bl, 0F9h
 00009DC5  75 0E	   *	    jne    @C069A
			      C               ; fyl2xp1
 00009DC7  B9 00000007	      C                 mov     ecx,7
 00009DCC  66| BE 0938 R      C                 mov     si,(lowword(offset fyl2xp1_text))
			      C             .ELSEIF (bl == 0fah)
 00009DD0  E9 00000665	   *	    jmp    @C069C
 00009DD5		   *@C069A:
 00009DD5  80 FB FA	   *	    cmp    bl, 0FAh
 00009DD8  75 0E	   *	    jne    @C069D
			      C               ; fsqrt
 00009DDA  B9 00000005	      C                 mov     ecx,5
 00009DDF  66| BE 093F R      C                 mov     si,(lowword(offset fsqrt_text))
			      C             .ELSEIF (bl == 0fbh)
 00009DE3  E9 00000652	   *	    jmp    @C069F
 00009DE8		   *@C069D:
 00009DE8  80 FB FB	   *	    cmp    bl, 0FBh
 00009DEB  75 0E	   *	    jne    @C06A0
			      C               ; fsincos
 00009DED  B9 00000007	      C                 mov     ecx,7
 00009DF2  66| BE 0944 R      C                 mov     si,(lowword(offset fsincos_text))
			      C             .ELSEIF (bl == 0fch)
 00009DF6  E9 0000063F	   *	    jmp    @C06A2
 00009DFB		   *@C06A0:
 00009DFB  80 FB FC	   *	    cmp    bl, 0FCh
 00009DFE  75 0E	   *	    jne    @C06A3
			      C               ; frndint
 00009E00  B9 00000007	      C                 mov     ecx,7
 00009E05  66| BE 094B R      C                 mov     si,(lowword(offset frndint_text))
			      C             .ELSEIF (bl == 0fdh)
 00009E09  E9 0000062C	   *	    jmp    @C06A5
 00009E0E		   *@C06A3:
 00009E0E  80 FB FD	   *	    cmp    bl, 0FDh
 00009E11  75 0E	   *	    jne    @C06A6
			      C               ; fscale
 00009E13  B9 00000006	      C                 mov     ecx,6
 00009E18  66| BE 0952 R      C                 mov     si,(lowword(offset fscale_text))
			      C             .ELSEIF (bl == 0feh)
 00009E1C  E9 00000619	   *	    jmp    @C06A8
 00009E21		   *@C06A6:
 00009E21  80 FB FE	   *	    cmp    bl, 0FEh
 00009E24  75 09	   *	    jne    @C06A9
			      C               ; fsin
 00009E26  66| BE 0958 R      C                 mov     si,(lowword(offset fsin_text))
			      C             .ELSEIF (bl == 0ffh)
 00009E2A  E9 0000060B	   *	    jmp    @C06AB
 00009E2F		   *@C06A9:
 00009E2F  80 FB FF	   *	    cmp    bl, 0FFh
 00009E32  75 09	   *	    jne    @C06AC
			      C               ; fcos
 00009E34  66| BE 095C R      C                 mov     si,(lowword(offset fcos_text))
			      C             .ELSE
 00009E38  E9 000005FD	   *	    jmp    @C06AE
 00009E3D		   *@C06AC:
 00009E3D  C0 EB 03	      C                 shr     bl,3
 00009E40  80 E3 07	      C                 and     bl,111b
 00009E43  66| BF 0B03 R      C                 mov     di,(lowword(offset real4_text))
			      C                 .IF (bl == 000b)
 00009E47  0A DB	   *	    or	bl, bl
 00009E49  75 0B	   *	    jne    @C06AF
			      C                   ; It's FLD real4
 00009E4B  B9 00000003	      C                     mov     ecx,3
 00009E50  66| BE 08C2 R      C                     mov     si,(lowword(offset fld_text))
			      C                 .ELSEIF (bl == 010b)
 00009E54  EB 75	   *	    jmp    @C06B1
 00009E56		   *@C06AF:
 00009E56  80 FB 02	   *	    cmp    bl, 002h
 00009E59  75 0B	   *	    jne    @C06B2
			      C                   ; It's FST real4
 00009E5B  B9 00000003	      C                     mov     ecx,3
 00009E60  66| BE 08C7 R      C                     mov     si,(lowword(offset fst_text))
			      C                 .ELSEIF (bl == 011b)
 00009E64  EB 65	   *	    jmp    @C06B4
 00009E66		   *@C06B2:
 00009E66  80 FB 03	   *	    cmp    bl, 003h
 00009E69  75 0B	   *	    jne    @C06B5
			      C                   ; It's FSTP real4
 00009E6B  B9 00000004	      C                     mov     ecx,4
 00009E70  66| BE 08C7 R      C                     mov     si,(lowword(offset fstp_text))
			      C                 .ELSEIF (bl == 100b)
 00009E74  EB 55	   *	    jmp    @C06B7
 00009E76		   *@C06B5:
 00009E76  80 FB 04	   *	    cmp    bl, 004h
 00009E79  75 0F	   *	    jne    @C06B8
			      C                   ; It's fldenv
 00009E7B  B9 00000006	      C                     mov     ecx,6
 00009E80  66| BE 0960 R      C                     mov     si,(lowword(offset fldenv_text))
 00009E84  66| BF 0AE4 R      C                     mov     di,(lowword(offset null_text))
			      C                 .ELSEIF (bl == 101b)
 00009E88  EB 41	   *	    jmp    @C06BA
 00009E8A		   *@C06B8:
 00009E8A  80 FB 05	   *	    cmp    bl, 005h
 00009E8D  75 0F	   *	    jne    @C06BB
			      C                   ; It's fldcw m16
 00009E8F  B9 00000005	      C                     mov     ecx,5
 00009E94  66| BE 08C2 R      C                     mov     si,(lowword(offset fldcw_text))
 00009E98  66| BF 0AF8 R      C                     mov     di,(lowword(offset word_text))
			      C                 .ELSEIF (bl == 110b)
 00009E9C  EB 2D	   *	    jmp    @C06BD
 00009E9E		   *@C06BB:
 00009E9E  80 FB 06	   *	    cmp    bl, 006h
 00009EA1  75 0F	   *	    jne    @C06BE
			      C                   ; It's fnstenv
 00009EA3  B9 00000007	      C                     mov     ecx,7
 00009EA8  66| BE 0966 R      C                     mov     si,(lowword(offset fnstenv_text))
 00009EAC  66| BF 0AE4 R      C                     mov     di,(lowword(offset null_text))
			      C                 .ELSEIF (bl == 111b)
 00009EB0  EB 19	   *	    jmp    @C06C0
 00009EB2		   *@C06BE:
 00009EB2  80 FB 07	   *	    cmp    bl, 007h
 00009EB5  75 0F	   *	    jne    @C06C1
			      C                   ; It's fnstcw m16
 00009EB7  B9 00000006	      C                     mov     ecx,6
 00009EBC  66| BE 096D R      C                     mov     si,(lowword(offset fnstcw_text))
 00009EC0  66| BF 0AF8 R      C                     mov     di,(lowword(offset word_text))
			      C                 .ELSE
 00009EC4  EB 05	   *	    jmp    @C06C3
 00009EC6		   *@C06C1:
 00009EC6  E9 00000562	      C                     jmp     unknown_fpu_opcode
			      C                 .ENDIF
			      C             .ENDIF
 00009ECB		   *@C06C3:
 00009ECB		   *@C06C0:
 00009ECB		   *@C06BD:
 00009ECB		   *@C06BA:
 00009ECB		   *@C06B7:
 00009ECB		   *@C06B4:
 00009ECB		   *@C06B1:
			      C         .ELSEIF (bh == 0dah)
 00009ECB  E9 0000056A	   *	    jmp    @C06C4
 00009ED0		   *@C0651:
 00009ED0  80 FF DA	   *	    cmp    bh, 0DAh
 00009ED3  0F 85 000000E2  *	    jne    @C06C5
 00009ED9  66| BF 0B18 R      C             mov     di,(lowword(offset st0_comma_sti_text))
			      C             .IF (bl >= 0c0h && bl <= 0c7h)
 00009EDD  80 FB C0	   *	    cmp    bl, 0C0h
 00009EE0  72 13	   *	    jb     @C06C7
 00009EE2  80 FB C7	   *	    cmp    bl, 0C7h
 00009EE5  77 0E	   *	    ja     @C06C7
			      C               ; It's FCMOVB st0,sti
 00009EE7  B9 00000006	      C                 mov     ecx,6
 00009EEC  66| BE 0852 R      C                 mov     si,(lowword(offset fcmovb_text))
			      C             .ELSEIF (bl >= 0c8h && bl <= 0cfh)
 00009EF0  E9 00000545	   *	    jmp    @C06CA
 00009EF5		   *@C06C7:
 00009EF5  80 FB C8	   *	    cmp    bl, 0C8h
 00009EF8  72 13	   *	    jb     @C06CB
 00009EFA  80 FB CF	   *	    cmp    bl, 0CFh
 00009EFD  77 0E	   *	    ja     @C06CB
			      C               ; It's FCMOVZ st0,sti
 00009EFF  B9 00000006	      C                 mov     ecx,6
 00009F04  66| BE 0858 R      C                 mov     si,(lowword(offset fcmovz_text))
			      C             .ELSEIF (bl >= 0d0h && bl <= 0d7h)
 00009F08  E9 0000052D	   *	    jmp    @C06CE
 00009F0D		   *@C06CB:
 00009F0D  80 FB D0	   *	    cmp    bl, 0D0h
 00009F10  72 13	   *	    jb     @C06CF
 00009F12  80 FB D7	   *	    cmp    bl, 0D7h
 00009F15  77 0E	   *	    ja     @C06CF
			      C               ; It's FCMOVNG st0,sti
 00009F17  B9 00000007	      C                 mov     ecx,7
 00009F1C  66| BE 085E R      C                 mov     si,(lowword(offset fcmovng_text))
			      C             .ELSEIF (bl >= 0d8h && bl <= 0dFh)
 00009F20  E9 00000515	   *	    jmp    @C06D2
 00009F25		   *@C06CF:
 00009F25  80 FB D8	   *	    cmp    bl, 0D8h
 00009F28  72 13	   *	    jb     @C06D3
 00009F2A  80 FB DF	   *	    cmp    bl, 0DFh
 00009F2D  77 0E	   *	    ja     @C06D3
			      C               ; It's FCMOVPO st0,sti
 00009F2F  B9 00000007	      C                 mov     ecx,7
 00009F34  66| BE 0865 R      C                 mov     si,(lowword(offset fcmovpo_text))
			      C             .ELSEIF (bl == 0e9h)
 00009F38  E9 000004FD	   *	    jmp    @C06D6
 00009F3D		   *@C06D3:
 00009F3D  80 FB E9	   *	    cmp    bl, 0E9h
 00009F40  75 12	   *	    jne    @C06D7
			      C               ; It's FUCOMPP
 00009F42  B9 00000007	      C                 mov     ecx,7
 00009F47  66| BE 0973 R      C                 mov     si,(lowword(offset fucompp_text))
 00009F4B  66| BF 0AE4 R      C                 mov     di,(lowword(offset null_text))
			      C             .ELSE
 00009F4F  E9 000004E6	   *	    jmp    @C06D9
 00009F54		   *@C06D7:
 00009F54  66| BF 0AF7 R      C                 mov     di,(lowword(offset dword_text))
 00009F58  B9 00000005	      C                 mov     ecx,5
 00009F5D  C0 EB 03	      C                 shr     bl,3
 00009F60  80 E3 07	      C                 and     bl,111b
			      C                 .IF (bl == 000b)
 00009F63  0A DB	   *	    or	bl, bl
 00009F65  75 06	   *	    jne    @C06DA
			      C                   ; It's FIADD m32_int
 00009F67  66| BE 097A R      C                     mov     si,(lowword(offset fiadd_text))
			      C                 .ELSEIF (bl == 001b)
 00009F6B  EB 49	   *	    jmp    @C06DC
 00009F6D		   *@C06DA:
 00009F6D  80 FB 01	   *	    cmp    bl, 001h
 00009F70  75 06	   *	    jne    @C06DD
			      C                   ; It's FIMUL m32_int
 00009F72  66| BE 097F R      C                     mov     si,(lowword(offset fimul_text))
			      C                 .ELSEIF (bl == 010b)
 00009F76  EB 3E	   *	    jmp    @C06DF
 00009F78		   *@C06DD:
 00009F78  80 FB 02	   *	    cmp    bl, 002h
 00009F7B  75 06	   *	    jne    @C06E0
			      C                   ; It's FICOM m32_int
 00009F7D  66| BE 0984 R      C                     mov     si,(lowword(offset ficom_text))
			      C                 .ELSEIF (bl == 011b)
 00009F81  EB 33	   *	    jmp    @C06E2
 00009F83		   *@C06E0:
 00009F83  80 FB 03	   *	    cmp    bl, 003h
 00009F86  75 07	   *	    jne    @C06E3
			      C                   ; It's FICOMP m32_int
 00009F88  41		      C                     inc     ecx
 00009F89  66| BE 0984 R      C                     mov     si,(lowword(offset ficomp_text))
			      C                 .ELSEIF (bl == 100b)
 00009F8D  EB 27	   *	    jmp    @C06E5
 00009F8F		   *@C06E3:
 00009F8F  80 FB 04	   *	    cmp    bl, 004h
 00009F92  75 06	   *	    jne    @C06E6
			      C                   ; It's FISUB m32_int
 00009F94  66| BE 098A R      C                     mov     si,(lowword(offset fisub_text))
			      C                 .ELSEIF (bl == 101b)
 00009F98  EB 1C	   *	    jmp    @C06E8
 00009F9A		   *@C06E6:
 00009F9A  80 FB 05	   *	    cmp    bl, 005h
 00009F9D  75 07	   *	    jne    @C06E9
			      C                   ; It's FISUBR m32_int
 00009F9F  41		      C                     inc     ecx
 00009FA0  66| BE 098A R      C                     mov     si,(lowword(offset fisubr_text))
			      C                 .ELSEIF (bl == 110b)
 00009FA4  EB 10	   *	    jmp    @C06EB
 00009FA6		   *@C06E9:
 00009FA6  80 FB 06	   *	    cmp    bl, 006h
 00009FA9  75 06	   *	    jne    @C06EC
			      C                   ; It's FIDIV m32_int
 00009FAB  66| BE 0990 R      C                     mov     si,(lowword(offset fidiv_text))
			      C                 .ELSE
 00009FAF  EB 05	   *	    jmp    @C06EE
 00009FB1		   *@C06EC:
			      C                   ; It's FIDIVR m32_int
 00009FB1  41		      C                     inc     ecx
 00009FB2  66| BE 0990 R      C                     mov     si,(lowword(offset fidivr_text))
			      C                 .ENDIF
			      C             .ENDIF
 00009FB6		   *@C06EE:
 00009FB6		   *@C06EB:
 00009FB6		   *@C06E8:
 00009FB6		   *@C06E5:
 00009FB6		   *@C06E2:
 00009FB6		   *@C06DF:
 00009FB6		   *@C06DC:
			      C         .ELSEIF (bh == 0dbh)
 00009FB6  E9 0000047F	   *	    jmp    @C06EF
 00009FBB		   *@C06C5:
 00009FBB  80 FF DB	   *	    cmp    bh, 0DBh
 00009FBE  0F 85 00000100  *	    jne    @C06F0
 00009FC4  B9 00000007	      C             mov     ecx,7
 00009FC9  66| BF 0B18 R      C             mov     di,(lowword(offset st0_comma_sti_text))
			      C             .IF (bl >= 0c0h && bl <= 0c7h)
 00009FCD  80 FB C0	   *	    cmp    bl, 0C0h
 00009FD0  72 0E	   *	    jb     @C06F2
 00009FD2  80 FB C7	   *	    cmp    bl, 0C7h
 00009FD5  77 09	   *	    ja     @C06F2
			      C               ; It's FCMOVNB st0,sti
 00009FD7  66| BE 086C R      C                 mov     si,(lowword(offset fcmovnb_text))
			      C             .ELSEIF (bl >= 0c8h && bl <= 0cfh)
 00009FDB  E9 0000045A	   *	    jmp    @C06F5
 00009FE0		   *@C06F2:
 00009FE0  80 FB C8	   *	    cmp    bl, 0C8h
 00009FE3  72 0E	   *	    jb     @C06F6
 00009FE5  80 FB CF	   *	    cmp    bl, 0CFh
 00009FE8  77 09	   *	    ja     @C06F6
			      C               ; It's FCMOVNZ st0,sti
 00009FEA  66| BE 0873 R      C                 mov     si,(lowword(offset fcmovnz_text))
			      C             .ELSEIF (bl >= 0d0h && bl <= 0d7h)
 00009FEE  E9 00000447	   *	    jmp    @C06F9
 00009FF3		   *@C06F6:
 00009FF3  80 FB D0	   *	    cmp    bl, 0D0h
 00009FF6  72 0F	   *	    jb     @C06FA
 00009FF8  80 FB D7	   *	    cmp    bl, 0D7h
 00009FFB  77 0A	   *	    ja     @C06FA
			      C               ; It's FCMOVG st0,sti
 00009FFD  49		      C                 dec     ecx
 00009FFE  66| BE 087A R      C                 mov     si,(lowword(offset fcmovg_text))
			      C             .ELSEIF (bl >= 0d8h && bl <= 0dfh)
 0000A002  E9 00000433	   *	    jmp    @C06FD
 0000A007		   *@C06FA:
 0000A007  80 FB D8	   *	    cmp    bl, 0D8h
 0000A00A  72 0E	   *	    jb     @C06FE
 0000A00C  80 FB DF	   *	    cmp    bl, 0DFh
 0000A00F  77 09	   *	    ja     @C06FE
			      C               ; It's FCMOVPE st0,sti
 0000A011  66| BE 0880 R      C                 mov     si,(lowword(offset fcmovpe_text))
			      C             .ELSEIF (bl == 0e2h)
 0000A015  E9 00000420	   *	    jmp    @C0701
 0000A01A		   *@C06FE:
 0000A01A  80 FB E2	   *	    cmp    bl, 0E2h
 0000A01D  75 0E	   *	    jne    @C0702
			      C               ; It's fnclex
 0000A01F  49		      C                 dec     ecx
 0000A020  66| BE 0996 R      C                 mov     si,(lowword(offset fnclex_text))
 0000A024  66| BF 0AE4 R      C                 mov     di,(lowword(offset null_text))
			      C             .ELSEIF (bl == 0e3h)
 0000A028  E9 0000040D	   *	    jmp    @C0704
 0000A02D		   *@C0702:
 0000A02D  80 FB E3	   *	    cmp    bl, 0E3h
 0000A030  75 0E	   *	    jne    @C0705
			      C               ; It's fninit
 0000A032  49		      C                 dec     ecx
 0000A033  66| BE 099C R      C                 mov     si,(lowword(offset fninit_text))
 0000A037  66| BF 0AE4 R      C                 mov     di,(lowword(offset null_text))
			      C             .ELSEIF (bl >= 0e8h && bl <= 0efh)
 0000A03B  E9 000003FA	   *	    jmp    @C0707
 0000A040		   *@C0705:
 0000A040  80 FB E8	   *	    cmp    bl, 0E8h
 0000A043  72 0F	   *	    jb     @C0708
 0000A045  80 FB EF	   *	    cmp    bl, 0EFh
 0000A048  77 0A	   *	    ja     @C0708
			      C               ; It's FUCOMI st(0),st(i)
 0000A04A  49		      C                 dec     ecx
 0000A04B  66| BE 088D R      C                 mov     si,(lowword(offset fucomi_text))
			      C             .ELSEIF (bl >= 0f0h && bl <= 0f7h)
 0000A04F  E9 000003E6	   *	    jmp    @C070B
 0000A054		   *@C0708:
 0000A054  80 FB F0	   *	    cmp    bl, 0F0h
 0000A057  72 13	   *	    jb     @C070C
 0000A059  80 FB F7	   *	    cmp    bl, 0F7h
 0000A05C  77 0E	   *	    ja     @C070C
			      C               ; It's FCOMI st(0),st(i)
 0000A05E  B9 00000005	      C                 mov     ecx,5
 0000A063  66| BE 0887 R      C                 mov     si,(lowword(offset fcomi_text))
			      C             .ELSE
 0000A067  E9 000003CE	   *	    jmp    @C070F
 0000A06C		   *@C070C:
 0000A06C  66| BF 0AF7 R      C                 mov     di,(lowword(offset dword_text))
 0000A070  B9 00000004	      C                 mov     ecx,4
 0000A075  C0 EB 03	      C                 shr     bl,3
 0000A078  80 E3 07	      C                 and     bl,111b
			      C                 .IF (bl == 000b)
 0000A07B  0A DB	   *	    or	bl, bl
 0000A07D  75 06	   *	    jne    @C0710
			      C                   ; It's FILD m32_int
 0000A07F  66| BE 09A2 R      C                     mov     si,(lowword(offset fild_text))
			      C                 .ELSEIF (bl == 010b)
 0000A083  EB 3A	   *	    jmp    @C0712
 0000A085		   *@C0710:
 0000A085  80 FB 02	   *	    cmp    bl, 002h
 0000A088  75 06	   *	    jne    @C0713
			      C                   ; It's FIST m32_int
 0000A08A  66| BE 09A6 R      C                     mov     si,(lowword(offset fist_text))
			      C                 .ELSEIF (bl == 011b)
 0000A08E  EB 2F	   *	    jmp    @C0715
 0000A090		   *@C0713:
 0000A090  80 FB 03	   *	    cmp    bl, 003h
 0000A093  75 06	   *	    jne    @C0716
			      C                   ; It's FISTP m32_int
 0000A095  66| BE 09A6 R      C                     mov     si,(lowword(offset fistp_text))
			      C                 .ELSEIF (bl == 101b)
 0000A099  EB 24	   *	    jmp    @C0718
 0000A09B		   *@C0716:
 0000A09B  80 FB 05	   *	    cmp    bl, 005h
 0000A09E  75 0B	   *	    jne    @C0719
			      C                   ; It's FLD real10
 0000A0A0  49		      C                     dec     ecx
 0000A0A1  66| BE 08C2 R      C                     mov     si,(lowword(offset fld_text))
 0000A0A5  66| BF 0B11 R      C                     mov     di,(lowword(offset real10_text))
			      C                 .ELSEIF (bl == 111b)
 0000A0A9  EB 14	   *	    jmp    @C071B
 0000A0AB		   *@C0719:
 0000A0AB  80 FB 07	   *	    cmp    bl, 007h
 0000A0AE  75 0A	   *	    jne    @C071C
			      C                   ; It's FSTP real10
 0000A0B0  66| BE 08C7 R      C                     mov     si,(lowword(offset fstp_text))
 0000A0B4  66| BF 0B11 R      C                     mov     di,(lowword(offset real10_text))
			      C                 .ELSE
 0000A0B8  EB 05	   *	    jmp    @C071E
 0000A0BA		   *@C071C:
 0000A0BA  E9 0000036E	      C                     jmp     unknown_fpu_opcode
			      C                 .ENDIF
			      C             .ENDIF
 0000A0BF		   *@C071E:
 0000A0BF		   *@C071B:
 0000A0BF		   *@C0718:
 0000A0BF		   *@C0715:
 0000A0BF		   *@C0712:
			      C         .ELSEIF (bh == 0dch)
 0000A0BF  E9 00000376	   *	    jmp    @C071F
 0000A0C4		   *@C06F0:
 0000A0C4  80 FF DC	   *	    cmp    bh, 0DCh
 0000A0C7  0F 85 000000DA  *	    jne    @C0720
 0000A0CD  66| BF 0B20 R      C             mov     di,(lowword(offset sti_comma_st0_text))
			      C             .IF (bl >= 0c0h && bl <= 0c7h)
 0000A0D1  80 FB C0	   *	    cmp    bl, 0C0h
 0000A0D4  72 0E	   *	    jb     @C0722
 0000A0D6  80 FB C7	   *	    cmp    bl, 0C7h
 0000A0D9  77 09	   *	    ja     @C0722
			      C               ; It's FADD st(i),st(0)
 0000A0DB  66| BE 0897 R      C                 mov     si,(lowword(offset fadd_text))
			      C             .ELSEIF (bl >= 0c8h && bl <= 0cfh)
 0000A0DF  E9 00000356	   *	    jmp    @C0725
 0000A0E4		   *@C0722:
 0000A0E4  80 FB C8	   *	    cmp    bl, 0C8h
 0000A0E7  72 0E	   *	    jb     @C0726
 0000A0E9  80 FB CF	   *	    cmp    bl, 0CFh
 0000A0EC  77 09	   *	    ja     @C0726
			      C               ; It's FMUL st(i),st(0)
 0000A0EE  66| BE 089C R      C                 mov     si,(lowword(offset fmul_text))
			      C             .ELSEIF (bl >= 0e0h && bl <= 0e7h)
 0000A0F2  E9 00000343	   *	    jmp    @C0729
 0000A0F7		   *@C0726:
 0000A0F7  80 FB E0	   *	    cmp    bl, 0E0h
 0000A0FA  72 0F	   *	    jb     @C072A
 0000A0FC  80 FB E7	   *	    cmp    bl, 0E7h
 0000A0FF  77 0A	   *	    ja     @C072A
			      C               ; It's FSUBR st(i),st(0)
 0000A101  41		      C                 inc     ecx
 0000A102  66| BE 08A7 R      C                 mov     si,(lowword(offset fsubr_text))
			      C             .ELSEIF (bl >= 0e8h && bl <= 0efh)
 0000A106  E9 0000032F	   *	    jmp    @C072D
 0000A10B		   *@C072A:
 0000A10B  80 FB E8	   *	    cmp    bl, 0E8h
 0000A10E  72 0E	   *	    jb     @C072E
 0000A110  80 FB EF	   *	    cmp    bl, 0EFh
 0000A113  77 09	   *	    ja     @C072E
			      C               ; It's FSUB st(i),st(0)
 0000A115  66| BE 08A7 R      C                 mov     si,(lowword(offset fsub_text))
			      C             .ELSEIF (bl >= 0f0h && bl <= 0f7h)
 0000A119  E9 0000031C	   *	    jmp    @C0731
 0000A11E		   *@C072E:
 0000A11E  80 FB F0	   *	    cmp    bl, 0F0h
 0000A121  72 0F	   *	    jb     @C0732
 0000A123  80 FB F7	   *	    cmp    bl, 0F7h
 0000A126  77 0A	   *	    ja     @C0732
			      C               ; It's FDIVR st(i),st(0)
 0000A128  41		      C                 inc     ecx
 0000A129  66| BE 08B2 R      C                 mov     si,(lowword(offset fdivr_text))
			      C             .ELSEIF (bl >= 0f8h && bl <= 0ffh)
 0000A12D  E9 00000308	   *	    jmp    @C0735
 0000A132		   *@C0732:
 0000A132  80 FB F8	   *	    cmp    bl, 0F8h
 0000A135  72 0E	   *	    jb     @C0736
 0000A137  80 FB FF	   *	    cmp    bl, 0FFh
 0000A13A  77 09	   *	    ja     @C0736
			      C               ; It's FDIV st(i),st(0)
 0000A13C  66| BE 08B2 R      C                 mov     si,(lowword(offset fdiv_text))
			      C             .ELSE
 0000A140  E9 000002F5	   *	    jmp    @C0739
 0000A145		   *@C0736:
 0000A145  66| BF 0B0A R      C                 mov     di,(lowword(offset real8_text))
 0000A149  C0 EB 03	      C                 shr     bl,3
 0000A14C  80 E3 07	      C                 and     bl,111b
			      C                 .IF (bl == 000b)
 0000A14F  0A DB	   *	    or	bl, bl
 0000A151  75 06	   *	    jne    @C073A
			      C                   ; It's FADD real8
 0000A153  66| BE 0897 R      C                     mov     si,(lowword(offset fadd_text))
			      C                 .ELSEIF (bl == 001b)
 0000A157  EB 49	   *	    jmp    @C073C
 0000A159		   *@C073A:
 0000A159  80 FB 01	   *	    cmp    bl, 001h
 0000A15C  75 06	   *	    jne    @C073D
			      C                   ; It's FMUL real8
 0000A15E  66| BE 089C R      C                     mov     si,(lowword(offset fmul_text))
			      C                 .ELSEIF (bl == 010b)
 0000A162  EB 3E	   *	    jmp    @C073F
 0000A164		   *@C073D:
 0000A164  80 FB 02	   *	    cmp    bl, 002h
 0000A167  75 06	   *	    jne    @C0740
			      C                   ; It's FCOM real8
 0000A169  66| BE 08A1 R      C                     mov     si,(lowword(offset fcom_text))
			      C                 .ELSEIF (bl == 011b)
 0000A16D  EB 33	   *	    jmp    @C0742
 0000A16F		   *@C0740:
 0000A16F  80 FB 03	   *	    cmp    bl, 003h
 0000A172  75 07	   *	    jne    @C0743
			      C                   ; It's FCOMP real8
 0000A174  41		      C                     inc     ecx
 0000A175  66| BE 08A1 R      C                     mov     si,(lowword(offset fcomp_text))
			      C                 .ELSEIF (bl == 100b)
 0000A179  EB 27	   *	    jmp    @C0745
 0000A17B		   *@C0743:
 0000A17B  80 FB 04	   *	    cmp    bl, 004h
 0000A17E  75 06	   *	    jne    @C0746
			      C                   ; It's FSUB real8
 0000A180  66| BE 08A7 R      C                     mov     si,(lowword(offset fsub_text))
			      C                 .ELSEIF (bl == 101b)
 0000A184  EB 1C	   *	    jmp    @C0748
 0000A186		   *@C0746:
 0000A186  80 FB 05	   *	    cmp    bl, 005h
 0000A189  75 07	   *	    jne    @C0749
			      C                   ; It's FSUBR real8
 0000A18B  41		      C                     inc     ecx
 0000A18C  66| BE 08A7 R      C                     mov     si,(lowword(offset fsubr_text))
			      C                 .ELSEIF (bl == 110b)
 0000A190  EB 10	   *	    jmp    @C074B
 0000A192		   *@C0749:
 0000A192  80 FB 06	   *	    cmp    bl, 006h
 0000A195  75 06	   *	    jne    @C074C
			      C                   ; It's FDIV real8
 0000A197  66| BE 08B2 R      C                     mov     si,(lowword(offset fdiv_text))
			      C                 .ELSE
 0000A19B  EB 05	   *	    jmp    @C074E
 0000A19D		   *@C074C:
			      C                   ; It's FDIVR real8
 0000A19D  41		      C                     inc     ecx
 0000A19E  66| BE 08B2 R      C                     mov     si,(lowword(offset fdivr_text))
			      C                 .ENDIF
			      C             .ENDIF
 0000A1A2		   *@C074E:
 0000A1A2		   *@C074B:
 0000A1A2		   *@C0748:
 0000A1A2		   *@C0745:
 0000A1A2		   *@C0742:
 0000A1A2		   *@C073F:
 0000A1A2		   *@C073C:
			      C         .ELSEIF (bh == 0ddh)
 0000A1A2  E9 00000293	   *	    jmp    @C074F
 0000A1A7		   *@C0720:
 0000A1A7  80 FF DD	   *	    cmp    bh, 0DDh
 0000A1AA  0F 85 000000F4  *	    jne    @C0750
 0000A1B0  66| BF 05D6 R      C             mov     di,(lowword(offset sti_text))
			      C             .IF (bl >= 0c0h && bl <= 0c7h)
 0000A1B4  80 FB C0	   *	    cmp    bl, 0C0h
 0000A1B7  72 0F	   *	    jb     @C0752
 0000A1B9  80 FB C7	   *	    cmp    bl, 0C7h
 0000A1BC  77 0A	   *	    ja     @C0752
			      C               ; It's FFREE st(i)
 0000A1BE  41		      C                 inc     ecx
 0000A1BF  66| BE 09AB R      C                 mov     si,(lowword(offset ffree_text))
			      C             .ELSEIF (bl >= 0d0h && bl <= 0d7h)
 0000A1C3  E9 00000272	   *	    jmp    @C0755
 0000A1C8		   *@C0752:
 0000A1C8  80 FB D0	   *	    cmp    bl, 0D0h
 0000A1CB  72 0F	   *	    jb     @C0756
 0000A1CD  80 FB D7	   *	    cmp    bl, 0D7h
 0000A1D0  77 0A	   *	    ja     @C0756
			      C               ; It's FST st(i)
 0000A1D2  49		      C                 dec     ecx
 0000A1D3  66| BE 08C7 R      C                 mov     si,(lowword(offset fst_text))
			      C             .ELSEIF (bl >= 0d8h && bl <= 0dfh)
 0000A1D7  E9 0000025E	   *	    jmp    @C0759
 0000A1DC		   *@C0756:
 0000A1DC  80 FB D8	   *	    cmp    bl, 0D8h
 0000A1DF  72 0E	   *	    jb     @C075A
 0000A1E1  80 FB DF	   *	    cmp    bl, 0DFh
 0000A1E4  77 09	   *	    ja     @C075A
			      C               ; It's FSTP st(i)
 0000A1E6  66| BE 08C7 R      C                 mov     si,(lowword(offset fstp_text))
			      C             .ELSEIF (bl >= 0e0h && bl <= 0e7h)
 0000A1EA  E9 0000024B	   *	    jmp    @C075D
 0000A1EF		   *@C075A:
 0000A1EF  80 FB E0	   *	    cmp    bl, 0E0h
 0000A1F2  72 0F	   *	    jb     @C075E
 0000A1F4  80 FB E7	   *	    cmp    bl, 0E7h
 0000A1F7  77 0A	   *	    ja     @C075E
			      C               ; It's FUCOM st(i)
 0000A1F9  41		      C                 inc     ecx
 0000A1FA  66| BE 0973 R      C                 mov     si,(lowword(offset fucom_text))
			      C             .ELSEIF (bl >= 0e8h && bl <= 0efh)
 0000A1FE  E9 00000237	   *	    jmp    @C0761
 0000A203		   *@C075E:
 0000A203  80 FB E8	   *	    cmp    bl, 0E8h
 0000A206  72 13	   *	    jb     @C0762
 0000A208  80 FB EF	   *	    cmp    bl, 0EFh
 0000A20B  77 0E	   *	    ja     @C0762
			      C               ; It's FUCOMP st(i)
 0000A20D  B9 00000006	      C                 mov     ecx,6
 0000A212  66| BE 0973 R      C                 mov     si,(lowword(offset fucomp_text))
			      C             .ELSEIF (bl == 0e9h)
 0000A216  E9 0000021F	   *	    jmp    @C0765
 0000A21B		   *@C0762:
 0000A21B  80 FB E9	   *	    cmp    bl, 0E9h
 0000A21E  75 12	   *	    jne    @C0766
			      C               ; It's FUCOMPP
 0000A220  B9 00000007	      C                 mov     ecx,7
 0000A225  66| BE 0973 R      C                 mov     si,(lowword(offset fucompp_text))
 0000A229  66| BF 0AE4 R      C                 mov     di,(lowword(offset null_text))
			      C             .ELSE
 0000A22D  E9 00000208	   *	    jmp    @C0768
 0000A232		   *@C0766:
 0000A232  66| BF 0B0A R      C                 mov     di,(lowword(offset real8_text))
 0000A236  C0 EB 03	      C                 shr     bl,3
 0000A239  80 E3 07	      C                 and     bl,111b
			      C                 .IF (bl == 000b)
 0000A23C  0A DB	   *	    or	bl, bl
 0000A23E  75 07	   *	    jne    @C0769
			      C                   ; It's FLD real8
 0000A240  49		      C                     dec     ecx
 0000A241  66| BE 08C2 R      C                     mov     si,(lowword(offset fld_text))
			      C                 .ELSEIF (bl == 010b)
 0000A245  EB 58	   *	    jmp    @C076B
 0000A247		   *@C0769:
 0000A247  80 FB 02	   *	    cmp    bl, 002h
 0000A24A  75 07	   *	    jne    @C076C
			      C                   ; It's FST real8
 0000A24C  49		      C                     dec     ecx
 0000A24D  66| BE 08C7 R      C                     mov     si,(lowword(offset fst_text))
			      C                 .ELSEIF (bl == 011b)
 0000A251  EB 4C	   *	    jmp    @C076E
 0000A253		   *@C076C:
 0000A253  80 FB 03	   *	    cmp    bl, 003h
 0000A256  75 06	   *	    jne    @C076F
			      C                   ; It's FSTP real8
 0000A258  66| BE 08C7 R      C                     mov     si,(lowword(offset fstp_text))
			      C                 .ELSEIF (bl == 100b)
 0000A25C  EB 41	   *	    jmp    @C0771
 0000A25E		   *@C076F:
 0000A25E  80 FB 04	   *	    cmp    bl, 004h
 0000A261  75 0F	   *	    jne    @C0772
			      C                   ; It's FRSTOR m94/108
 0000A263  B9 00000006	      C                     mov     ecx,6
 0000A268  66| BE 09B0 R      C                     mov     si,(lowword(offset frstor_text))
 0000A26C  66| BF 0AE5 R      C                     mov     di,(lowword(offset bytes_94_108_text))
			      C                 .ELSEIF (bl == 110b)
 0000A270  EB 2D	   *	    jmp    @C0774
 0000A272		   *@C0772:
 0000A272  80 FB 06	   *	    cmp    bl, 006h
 0000A275  75 0F	   *	    jne    @C0775
			      C                   ; It's FNSAVE
 0000A277  B9 00000006	      C                     mov     ecx,6
 0000A27C  66| BE 09C5 R      C                     mov     si,(lowword(offset fnsave_text))
 0000A280  66| BF 0AE4 R      C                     mov     di,(lowword(offset null_text))
			      C                 .ELSEIF (bl == 111b)
 0000A284  EB 19	   *	    jmp    @C0777
 0000A286		   *@C0775:
 0000A286  80 FB 07	   *	    cmp    bl, 007h
 0000A289  75 0F	   *	    jne    @C0778
			      C                   ; It's FNSTSW
 0000A28B  B9 00000006	      C                     mov     ecx,6
 0000A290  66| BE 09B6 R      C                     mov     si,(lowword(offset fnstsw_text))
 0000A294  66| BF 0AE4 R      C                     mov     di,(lowword(offset null_text))
			      C                 .ELSE
 0000A298  EB 05	   *	    jmp    @C077A
 0000A29A		   *@C0778:
 0000A29A  E9 0000018E	      C                     jmp     unknown_fpu_opcode
			      C                 .ENDIF
			      C             .ENDIF
 0000A29F		   *@C077A:
 0000A29F		   *@C0777:
 0000A29F		   *@C0774:
 0000A29F		   *@C0771:
 0000A29F		   *@C076E:
 0000A29F		   *@C076B:
			      C         .ELSEIF (bh == 0deh)
 0000A29F  E9 00000196	   *	    jmp    @C077B
 0000A2A4		   *@C0750:
 0000A2A4  80 FF DE	   *	    cmp    bh, 0DEh
 0000A2A7  0F 85 000000F6  *	    jne    @C077C
 0000A2AD  66| BF 0B20 R      C             mov     di,(lowword(offset sti_comma_st0_text))
 0000A2B1  B9 00000005	      C             mov     ecx,5
			      C             .IF (bl >= 0c0h && bl <= 0c7h)
 0000A2B6  80 FB C0	   *	    cmp    bl, 0C0h
 0000A2B9  72 0E	   *	    jb     @C077E
 0000A2BB  80 FB C7	   *	    cmp    bl, 0C7h
 0000A2BE  77 09	   *	    ja     @C077E
			      C               ; It's FADDP st(i),st(0)
 0000A2C0  66| BE 0897 R      C                 mov     si,(lowword(offset faddp_text))
			      C             .ELSEIF (bl >= 0c8h && bl <= 0cfh)
 0000A2C4  E9 00000171	   *	    jmp    @C0781
 0000A2C9		   *@C077E:
 0000A2C9  80 FB C8	   *	    cmp    bl, 0C8h
 0000A2CC  72 0E	   *	    jb     @C0782
 0000A2CE  80 FB CF	   *	    cmp    bl, 0CFh
 0000A2D1  77 09	   *	    ja     @C0782
			      C               ; It's FMULP st(i),st(0)
 0000A2D3  66| BE 089C R      C                 mov     si,(lowword(offset fmulp_text))
			      C             .ELSEIF (bl == 0d9h)
 0000A2D7  E9 0000015E	   *	    jmp    @C0785
 0000A2DC		   *@C0782:
 0000A2DC  80 FB D9	   *	    cmp    bl, 0D9h
 0000A2DF  75 0E	   *	    jne    @C0786
			      C               ; It's FCOMPP
 0000A2E1  41		      C                 inc     ecx
 0000A2E2  66| BE 08A1 R      C                 mov     si,(lowword(offset fcompp_text))
 0000A2E6  66| BF 0AE4 R      C             mov     di,(lowword(offset null_text))
			      C             .ELSEIF (bl >= 0e0h && bl <= 0e7h)
 0000A2EA  E9 0000014B	   *	    jmp    @C0788
 0000A2EF		   *@C0786:
 0000A2EF  80 FB E0	   *	    cmp    bl, 0E0h
 0000A2F2  72 0F	   *	    jb     @C0789
 0000A2F4  80 FB E7	   *	    cmp    bl, 0E7h
 0000A2F7  77 0A	   *	    ja     @C0789
			      C               ; It's FSUBRP st(i),st(0)
 0000A2F9  41		      C                 inc     ecx
 0000A2FA  66| BE 08A7 R      C                 mov     si,(lowword(offset fsubrp_text))
			      C             .ELSEIF (bl >= 0e8h && bl <= 0efh)
 0000A2FE  E9 00000137	   *	    jmp    @C078C
 0000A303		   *@C0789:
 0000A303  80 FB E8	   *	    cmp    bl, 0E8h
 0000A306  72 0E	   *	    jb     @C078D
 0000A308  80 FB EF	   *	    cmp    bl, 0EFh
 0000A30B  77 09	   *	    ja     @C078D
			      C               ; It's FSUBP st(i),st(0)
 0000A30D  66| BE 08AD R      C                 mov     si,(lowword(offset fsubp_text))
			      C             .ELSEIF (bl >= 0f0h && bl <= 0f7h)
 0000A311  E9 00000124	   *	    jmp    @C0790
 0000A316		   *@C078D:
 0000A316  80 FB F0	   *	    cmp    bl, 0F0h
 0000A319  72 0F	   *	    jb     @C0791
 0000A31B  80 FB F7	   *	    cmp    bl, 0F7h
 0000A31E  77 0A	   *	    ja     @C0791
			      C               ; It's FDIVRP st(i),st(0)
 0000A320  41		      C                 inc     ecx
 0000A321  66| BE 08BC R      C                 mov     si,(lowword(offset fdivrp_text))
			      C             .ELSEIF (bl >= 0f8h && bl <= 0ffh)
 0000A325  E9 00000110	   *	    jmp    @C0794
 0000A32A		   *@C0791:
 0000A32A  80 FB F8	   *	    cmp    bl, 0F8h
 0000A32D  72 0E	   *	    jb     @C0795
 0000A32F  80 FB FF	   *	    cmp    bl, 0FFh
 0000A332  77 09	   *	    ja     @C0795
			      C               ; It's FDIVP st(i),st(0)
 0000A334  66| BE 08B7 R      C                 mov     si,(lowword(offset fdivp_text))
			      C             .ELSE
 0000A338  E9 000000FD	   *	    jmp    @C0798
 0000A33D		   *@C0795:
 0000A33D  66| BF 0AF8 R      C                 mov     di,(lowword(offset word_text))
 0000A341  C0 EB 03	      C                 shr     bl,3
 0000A344  80 E3 07	      C                 and     bl,111b
			      C                 .IF (bl == 000b)
 0000A347  0A DB	   *	    or	bl, bl
 0000A349  75 0A	   *	    jne    @C0799
			      C                   ; It's FIADD m64_int
 0000A34B  66| BE 097A R      C                     mov     si,(lowword(offset fiadd_text))
 0000A34F  66| BF 0AFD R      C                     mov     di,(lowword(offset qword_text))
			      C                 .ELSEIF (bl == 001b)
 0000A353  EB 49	   *	    jmp    @C079B
 0000A355		   *@C0799:
 0000A355  80 FB 01	   *	    cmp    bl, 001h
 0000A358  75 06	   *	    jne    @C079C
			      C                   ; It's FIMUL m16_int
 0000A35A  66| BE 097F R      C                     mov     si,(lowword(offset fimul_text))
			      C                 .ELSEIF (bl == 010b)
 0000A35E  EB 3E	   *	    jmp    @C079E
 0000A360		   *@C079C:
 0000A360  80 FB 02	   *	    cmp    bl, 002h
 0000A363  75 06	   *	    jne    @C079F
			      C                   ; It's FICOM m16_int
 0000A365  66| BE 0984 R      C                     mov     si,(lowword(offset ficom_text))
			      C                 .ELSEIF (bl == 011b)
 0000A369  EB 33	   *	    jmp    @C07A1
 0000A36B		   *@C079F:
 0000A36B  80 FB 03	   *	    cmp    bl, 003h
 0000A36E  75 07	   *	    jne    @C07A2
			      C                   ; It's FICOMP m16_int
 0000A370  41		      C                     inc     ecx
 0000A371  66| BE 0984 R      C                     mov     si,(lowword(offset ficomp_text))
			      C                 .ELSEIF (bl == 100b)
 0000A375  EB 27	   *	    jmp    @C07A4
 0000A377		   *@C07A2:
 0000A377  80 FB 04	   *	    cmp    bl, 004h
 0000A37A  75 06	   *	    jne    @C07A5
			      C                   ; It's FISUB m16_int
 0000A37C  66| BE 098A R      C                     mov     si,(lowword(offset fisub_text))
			      C                 .ELSEIF (bl == 101b)
 0000A380  EB 1C	   *	    jmp    @C07A7
 0000A382		   *@C07A5:
 0000A382  80 FB 05	   *	    cmp    bl, 005h
 0000A385  75 07	   *	    jne    @C07A8
			      C                   ; It's FISUBR m16_int
 0000A387  41		      C                     inc     ecx
 0000A388  66| BE 098A R      C                     mov     si,(lowword(offset fisubr_text))
			      C                 .ELSEIF (bl == 110b)
 0000A38C  EB 10	   *	    jmp    @C07AA
 0000A38E		   *@C07A8:
 0000A38E  80 FB 06	   *	    cmp    bl, 006h
 0000A391  75 06	   *	    jne    @C07AB
			      C                   ; It's FIDIV m16_int
 0000A393  66| BE 0990 R      C                     mov     si,(lowword(offset fidiv_text))
			      C                 .ELSE
 0000A397  EB 05	   *	    jmp    @C07AD
 0000A399		   *@C07AB:
			      C                   ; It's FIDIVR m16_int
 0000A399  41		      C                     inc     ecx
 0000A39A  66| BE 0990 R      C                     mov     si,(lowword(offset fidivr_text))
			      C                 .ENDIF
			      C             .ENDIF
 0000A39E		   *@C07AD:
 0000A39E		   *@C07AA:
 0000A39E		   *@C07A7:
 0000A39E		   *@C07A4:
 0000A39E		   *@C07A1:
 0000A39E		   *@C079E:
 0000A39E		   *@C079B:
			      C         .ELSE
 0000A39E  E9 00000097	   *	    jmp    @C07AE
 0000A3A3		   *@C077C:
			      C           ; 0xdf
 0000A3A3  66| BF 0AE4 R      C             mov     di,(lowword(offset null_text))
			      C             .IF (bl == 0e0h)
 0000A3A7  80 FB E0	   *	    cmp    bl, 0E0h
 0000A3AA  75 0B	   *	    jne    @C07AF
			      C               ; It's FNSTSW
 0000A3AC  B9 00000006	      C                 mov     ecx,6
 0000A3B1  66| BE 09B6 R      C                 mov     si,(lowword(offset fnstsw_text))
			      C             .ELSEIF (bl >= 0e8h && bl <= 0efh)
 0000A3B5  EB 74	   *	    jmp    @C07B1
 0000A3B7		   *@C07AF:
 0000A3B7  80 FB E8	   *	    cmp    bl, 0E8h
 0000A3BA  72 10	   *	    jb     @C07B2
 0000A3BC  80 FB EF	   *	    cmp    bl, 0EFh
 0000A3BF  77 0B	   *	    ja     @C07B2
			      C               ; It's FUCOMIP
 0000A3C1  B9 00000007	      C                 mov     ecx,7
 0000A3C6  66| BE 088D R      C                 mov     si,(lowword(offset fucomip_text))
			      C             .ELSEIF (bl >= 0f0h && al <= 0f7h)
 0000A3CA  EB 5F	   *	    jmp    @C07B5
 0000A3CC		   *@C07B2:
 0000A3CC  80 FB F0	   *	    cmp    bl, 0F0h
 0000A3CF  72 0F	   *	    jb     @C07B6
 0000A3D1  3C F7	   *	    cmp    al, 0F7h
 0000A3D3  77 0B	   *	    ja     @C07B6
			      C               ; It's FCOMIP
 0000A3D5  B9 00000006	      C                 mov     ecx,6
 0000A3DA  66| BE 0887 R      C                 mov     si,(lowword(offset fcomip_text))
			      C             .ELSE
 0000A3DE  EB 4B	   *	    jmp    @C07B9
 0000A3E0		   *@C07B6:
			      C               ; We have to examine the REG bits
 0000A3E0  C0 EB 03	      C                 shr     bl,3
 0000A3E3  80 E3 07	      C                 and     bl,111b
			      C                 .IF (bl == 000b)
 0000A3E6  0A DB	   *	    or	bl, bl
 0000A3E8  75 06	   *	    jne    @C07BA
			      C                   ; It's FILD
 0000A3EA  66| BE 09A2 R      C                     mov     si,(lowword(offset fild_text))
			      C                 .ELSEIF (bl == 010b)
 0000A3EE  EB 3B	   *	    jmp    @C07BC
 0000A3F0		   *@C07BA:
 0000A3F0  80 FB 02	   *	    cmp    bl, 002h
 0000A3F3  75 06	   *	    jne    @C07BD
			      C                   ; It's FIST
 0000A3F5  66| BE 09A6 R      C                     mov     si,(lowword(offset fist_text))
			      C                 .ELSEIF (bl == 011b)
 0000A3F9  EB 30	   *	    jmp    @C07BF
 0000A3FB		   *@C07BD:
 0000A3FB  80 FB 03	   *	    cmp    bl, 003h
 0000A3FE  75 07	   *	    jne    @C07C0
			      C                   ; It's FISTP
 0000A400  41		      C                     inc     ecx
 0000A401  66| BE 09A6 R      C                     mov     si,(lowword(offset fistp_text))
			      C                 .ELSEIF (bl == 100b)
 0000A405  EB 24	   *	    jmp    @C07C2
 0000A407		   *@C07C0:
 0000A407  80 FB 04	   *	    cmp    bl, 004h
 0000A40A  75 06	   *	    jne    @C07C3
			      C                   ; It's FbhD
 0000A40C  66| BE 09BC R      C                     mov     si,(lowword(offset fbld_text))
			      C                 .ELSEIF (bl == 101b)
 0000A410  EB 19	   *	    jmp    @C07C5
 0000A412		   *@C07C3:
 0000A412  80 FB 05	   *	    cmp    bl, 005h
 0000A415  75 06	   *	    jne    @C07C6
			      C                   ; It's FILD
 0000A417  66| BE 09A2 R      C                     mov     si,(lowword(offset fild_text))
			      C                 .ELSEIF (bl == 111b)
 0000A41B  EB 0E	   *	    jmp    @C07C8
 0000A41D		   *@C07C6:
 0000A41D  80 FB 07	   *	    cmp    bl, 007h
 0000A420  75 07	   *	    jne    @C07C9
			      C                   ; It's FISTP
 0000A422  41		      C                     inc     ecx
 0000A423  66| BE 09A6 R      C                     mov     si,(lowword(offset fistp_text))
			      C                 .ELSE
 0000A427  EB 02	   *	    jmp    @C07CB
 0000A429		   *@C07C9:
			      C                   ; Unknown
 0000A429  EB 02	      C                     jmp     unknown_fpu_opcode
			      C                 .ENDIF
			      C             .ENDIF
 0000A42B		   *@C07CB:
 0000A42B		   *@C07C8:
 0000A42B		   *@C07C5:
 0000A42B		   *@C07C2:
 0000A42B		   *@C07BF:
 0000A42B		   *@C07BC:
			      C         .ENDIF
 0000A42B		   *@C07B9:
 0000A42B		   *@C07B5:
 0000A42B		   *@C07B1:
			      C     .ELSE
 0000A42B  EB 0D	   *	    jmp    @C07CC
 0000A42D		   *@C0616:
 0000A42D		      C       unknown_fpu_opcode:
 0000A42D  B9 00000003	      C         mov     ecx,sizeof unknown_text - 1
 0000A432  66| BE 0B41 R      C         mov     si,(lowword(offset unknown_text))
 0000A436  66| BF 0AE4 R      C         mov     di,(lowword(offset null_text))
			      C     .ENDIF
 0000A43A		   *@C07CC:
 0000A43A		   *@C07AE:
 0000A43A		   *@C077B:
 0000A43A		   *@C074F:
 0000A43A		   *@C071F:
 0000A43A		   *@C06EF:
 0000A43A		   *@C06C4:
 0000A43A		   *@C0650:
 0000A43A		   *@C063A:
 0000A43A		   *@C0636:
 0000A43A		   *@C0632:
 0000A43A		   *@C062E:
 0000A43A		   *@C062A:
 0000A43A		   *@C0626:
 0000A43A		   *@C0622:
 0000A43A		   *@C061E:
 0000A43A		   *@C06AE:
 0000A43A		   *@C06AB:
 0000A43A		   *@C06A8:
 0000A43A		   *@C06A5:
 0000A43A		   *@C06A2:
 0000A43A		   *@C069F:
 0000A43A		   *@C069C:
 0000A43A		   *@C0699:
 0000A43A		   *@C0696:
 0000A43A		   *@C0693:
 0000A43A		   *@C0690:
 0000A43A		   *@C068D:
 0000A43A		   *@C068A:
 0000A43A		   *@C0687:
 0000A43A		   *@C0684:
 0000A43A		   *@C0681:
 0000A43A		   *@C067E:
 0000A43A		   *@C067B:
 0000A43A		   *@C0678:
 0000A43A		   *@C0675:
 0000A43A		   *@C0672:
 0000A43A		   *@C066F:
 0000A43A		   *@C066C:
 0000A43A		   *@C0669:
 0000A43A		   *@C0666:
 0000A43A		   *@C0663:
 0000A43A		   *@C0660:
 0000A43A		   *@C065D:
 0000A43A		   *@C065A:
 0000A43A		   *@C0656:
 0000A43A		   *@C06D9:
 0000A43A		   *@C06D6:
 0000A43A		   *@C06D2:
 0000A43A		   *@C06CE:
 0000A43A		   *@C06CA:
 0000A43A		   *@C070F:
 0000A43A		   *@C070B:
 0000A43A		   *@C0707:
 0000A43A		   *@C0704:
 0000A43A		   *@C0701:
 0000A43A		   *@C06FD:
 0000A43A		   *@C06F9:
 0000A43A		   *@C06F5:
 0000A43A		   *@C0739:
 0000A43A		   *@C0735:
 0000A43A		   *@C0731:
 0000A43A		   *@C072D:
 0000A43A		   *@C0729:
 0000A43A		   *@C0725:
 0000A43A		   *@C0768:
 0000A43A		   *@C0765:
 0000A43A		   *@C0761:
 0000A43A		   *@C075D:
 0000A43A		   *@C0759:
 0000A43A		   *@C0755:
 0000A43A		   *@C0798:
 0000A43A		   *@C0794:
 0000A43A		   *@C0790:
 0000A43A		   *@C078C:
 0000A43A		   *@C0788:
 0000A43A		   *@C0785:
 0000A43A		   *@C0781:
			      C 
			      C   ; Now, copy the data over into one output string
 0000A43A  66| 2E: 8E 1D      C     mov     ds,cs:data_segment
	   0000A4FD R
 0000A442  BB 00000B45 R      C     mov     ebx,offset temp_buffer
			      C     .WHILE (ecx > 0)
 0000A447  EB 07	   *	    jmp    @C07CD
 0000A449		   *@C07CE:
 0000A449  8A 06	      C         mov     al,byte ptr ds:[esi]
 0000A44B  88 03	      C         mov     byte ptr ds:[ebx],al
 0000A44D  46		      C         inc     esi
 0000A44E  43		      C         inc     ebx
 0000A44F  49		      C         dec     ecx
			      C     .ENDW
 0000A450		   *@C07CD:
 0000A450  83 F9 00	   *	    cmp    ecx, 000h
 0000A453  77 F4	   *	    ja     @C07CE
 0000A455  C6 03 20	      C     mov     byte ptr ds:[ebx],32
 0000A458  43		      C     inc     ebx
			      C 
			      C   ; Now, copy the trailing information
			      C     .WHILE (byte ptr ds:[edi] != 0)
 0000A459  EB 06	   *	    jmp    @C07D0
 0000A45B		   *@C07D1:
 0000A45B  8A 07	      C         mov     al,byte ptr ds:[edi]
 0000A45D  88 03	      C         mov     byte ptr ds:[ebx],al
 0000A45F  47		      C         inc     edi
 0000A460  43		      C         inc     ebx
			      C     .ENDW
 0000A461		   *@C07D0:
 0000A461  80 3F 00	   *	    cmp    byte ptr ds : [edi], 000h
 0000A464  75 F5	   *	    jne    @C07D1
 0000A466  C6 03 00	      C     mov     byte ptr ds:[ebx],0                                     ; NULL-terminate (just in case)
			      C 
			      C   ; Now, determine the length
 0000A469  BE 00000B45 R      C     mov     esi,offset temp_buffer
 0000A46E  2B DE	      C     sub     ebx,esi
 0000A470  8B CB	      C     mov     ecx,ebx
			      C 
 0000A472  89 4C 24 18	      C     mov     dword ptr ss:[esp+24],ecx
 0000A476  89 74 24 04	      C     mov     dword ptr ss:[esp+04],esi
 0000A47A  61		      C     popad
 0000A47B  CB		      C     retf
 0000A47C		      C X86_fpu_opcode      ENDP
			      C 
				    INCLUDE asm.asp
			      C ; asm.asp
			      C ;
			      C ; x86 assembly algorithms
			      C ;
			      C 
			      C 
			      C 
			      C 
			      C ; Data and macros
			      C ;INCLUDE \exodus\source\debi\asm_data.asp
			      C ; These are included in disasm.asp
			      C 
			      C 
			      C 
			      C 
 0000A47C		      C x86_assemble:
			      C ; This routine is used to disassemble an instruction
			      C ;
			      C ; Upon entry:   ds:[esi] - far ptr to instruction string (such as "mov eax,10") terminated with NULL
			      C ;               es:[edi] - where to store x86 instruction encoding
			      C ;               * It is known that at most 16 bytes will be required for the instruction
			      C ;
			      C ; Upon exit:    es:[edi] is updated
			      C ;
 0000A47C  CB		      C     retf
			      C 




				; DATA
 0000A47D 4C 6F 77 2D 4C	    driver_name                             db  "Low-Level x86 Disassember",0
	   65 76 65 6C 20
	   78 38 36 20 44
	   69 73 61 73 73
	   65 6D 62 65 72
	   00
 0000A497 31 30 2E 31 30	    version                                 db  "10.10.2010 BETA",0
	   2E 32 30 31 30
	   20 42 45 54 41
	   00
 0000A4A7 28 63 29 20 43	    copyright                               db  "(c) Copyright Beatleworks, Inc.",0
	   6F 70 79 72 69
	   67 68 74 20 42
	   65 61 74 6C 65
	   77 6F 72 6B 73
	   2C 20 49 6E 63
	   2E 00
 0000A4C7 52 69 63 6B 20	    author                                  db  "Rick C. Hodgin",0
	   43 2E 20 48 6F
	   64 67 69 6E 00
 0000A4D6 78 38 36 20 44	    x86_text                                db  "x86 Disassembler",0
	   69 73 61 73 73
	   65 6D 62 6C 65
	   72 00
 0000A4E7 28 63 29 20 42	    beatleworks_text                        db  "(c) Beatleworks, Inc.",0
	   65 61 74 6C 65
	   77 6F 72 6B 73
	   2C 20 49 6E 63
	   2E 00

 0000A4FD 0000			    data_segment                            dw  0

 0000A4FF 0000			    _EXODUS_requestor                       dw  0
 0000A501			  primative_call_gates:
 0000A501 0000			    _VID_draw_logo                          dw  0
 0000A503 00B0			    _VID_display_string_nr_vga              dw  _sEXODUS_REQUESTOR
 0000A505 F000			    _VID_display_string_mono                dw  0f000h
 0000A507  F000			                                            dw  0f000h
 0000A509  F000			                                            dw  0f000h

 0000A50B 0D 56 49 44 5F	    required_primatives                     db  13, "VID_draw_logo"
	   64 72 61 77 5F
	   6C 6F 67 6F
 0000A519  19 56 49 44 5F	                                            db  25, "VID_display_string_nr_vga"
	   64 69 73 70 6C
	   61 79 5F 73 74
	   72 69 6E 67 5F
	   6E 72 5F 76 67
	   61
 0000A533  17 56 49 44 5F	                                            db  23, "VID_display_string_mono"
	   64 69 73 70 6C
	   61 79 5F 73 74
	   72 69 6E 67 5F
	   6D 6F 6E 6F
 0000A54B  FF			                                            db  0ffh

				    ; This logo consists of a one-wide image
 0000A54C 89			    x86_boot_logo                           db  89h         ; * Refer to VGA\INF\VGA.INF for information on this byte's format
 0000A54D  11 11 11 11 11	                                            db  11h,11h,11h,11h,11h,11h,11h,11h,11h,11h,11h,11h,11h,11h,11h,09h,09h,09h,09h,09h,09h,09h,09h,11h,11h,11h,11h,09h,09h,09h,09h,09h,09h,09h,09h,11h,11h,11h
	   11 11 11 11 11
	   11 11 11 11 11
	   09 09 09 09 09
	   09 09 09 11 11
	   11 11 09 09 09
	   09 09 09 09 09
	   11 11 11
 0000A573  11 11 11 11 11	                                            db  11h,11h,11h,11h,11h,11h,11h,11h,11h,11h,11h,11h,11h,11h,09h,10h,10h,01h,10h,10h,01h,10h,10h,09h,11h,11h,09h,10h,10h,01h,10h,10h,01h,10h,10h,09h,11h,11h
	   11 11 11 11 11
	   11 11 11 11 09
	   10 10 01 10 10
	   01 10 10 09 11
	   11 09 10 10 01
	   10 10 01 10 10
	   09 11 11
 0000A599  11 11 11 11 11	                                            db  11h,11h,11h,11h,11h,11h,11h,11h,11h,11h,11h,11h,11h,11h,09h,10h,10h,01h,10h,10h,01h,10h,10h,09h,11h,11h,09h,10h,10h,01h,10h,10h,01h,10h,10h,09h,11h,11h
	   11 11 11 11 11
	   11 11 11 11 09
	   10 10 01 10 10
	   01 10 10 09 11
	   11 09 10 10 01
	   10 10 01 10 10
	   09 11 11
 0000A5BF  11 11 11 11 11	                                            db  11h,11h,11h,11h,11h,11h,11h,11h,11h,11h,11h,11h,11h,11h,09h,01h,01h,09h,09h,09h,09h,01h,01h,09h,11h,11h,09h,01h,01h,09h,09h,09h,09h,09h,09h,09h,11h,11h
	   11 11 11 11 11
	   11 11 11 11 09
	   01 01 09 09 09
	   09 01 01 09 11
	   11 09 01 01 09
	   09 09 09 09 09
	   09 11 11
 0000A5E5  11 11 11 11 11	                                            db  11h,11h,11h,11h,11h,11h,11h,11h,11h,11h,11h,11h,11h,11h,09h,10h,10h,09h,11h,11h,09h,10h,10h,09h,11h,11h,09h,10h,10h,09h,11h,11h,11h,11h,11h,11h,11h,11h
	   11 11 11 11 11
	   11 11 11 11 09
	   10 10 09 11 11
	   09 10 10 09 11
	   11 09 10 10 09
	   11 11 11 11 11
	   11 11 11
 0000A60B  11 11 11 09 09	                                            db  11h,11h,11h,09h,09h,09h,11h,11h,11h,09h,09h,09h,11h,11h,09h,10h,10h,09h,11h,11h,09h,10h,10h,09h,11h,11h,09h,10h,10h,09h,11h,11h,11h,11h,11h,11h,11h,11h
	   09 11 11 11 09
	   09 09 11 11 09
	   10 10 09 11 11
	   09 10 10 09 11
	   11 09 10 10 09
	   11 11 11 11 11
	   11 11 11
 0000A631  11 11 09 01 01	                                            db  11h,11h,09h,01h,01h,01h,09h,11h,09h,01h,01h,01h,09h,11h,09h,01h,01h,09h,09h,09h,09h,01h,01h,09h,11h,11h,09h,01h,01h,09h,09h,09h,09h,09h,09h,11h,11h,11h
	   01 09 11 09 01
	   01 01 09 11 09
	   01 01 09 09 09
	   09 01 01 09 11
	   11 09 01 01 09
	   09 09 09 09 09
	   11 11 11
 0000A657  11 11 09 01 01	                                            db  11h,11h,09h,01h,01h,01h,09h,11h,09h,01h,01h,01h,09h,11h,09h,10h,10h,01h,10h,10h,01h,10h,10h,09h,11h,11h,09h,10h,10h,01h,10h,10h,01h,10h,10h,09h,11h,11h
	   01 09 11 09 01
	   01 01 09 11 09
	   10 10 01 10 10
	   01 10 10 09 11
	   11 09 10 10 01
	   10 10 01 10 10
	   09 11 11
 0000A67D  11 11 11 09 01	                                            db  11h,11h,11h,09h,01h,01h,01h,09h,01h,01h,01h,09h,11h,11h,09h,10h,10h,01h,10h,10h,01h,10h,10h,09h,11h,11h,09h,10h,10h,01h,10h,10h,01h,10h,10h,09h,11h,11h
	   01 01 09 01 01
	   01 09 11 11 09
	   10 10 01 10 10
	   01 10 10 09 11
	   11 09 10 10 01
	   10 10 01 10 10
	   09 11 11
 0000A6A3  11 11 11 11 09	                                            db  11h,11h,11h,11h,09h,01h,01h,01h,01h,01h,09h,11h,11h,11h,09h,01h,01h,09h,09h,09h,09h,01h,01h,09h,11h,11h,09h,01h,01h,09h,09h,09h,09h,01h,01h,09h,11h,11h
	   01 01 01 01 01
	   09 11 11 11 09
	   01 01 09 09 09
	   09 01 01 09 11
	   11 09 01 01 09
	   09 09 09 01 01
	   09 11 11
 0000A6C9  11 11 11 11 11	                                            db  11h,11h,11h,11h,11h,09h,01h,01h,01h,09h,11h,11h,11h,11h,09h,10h,10h,09h,11h,11h,09h,10h,10h,09h,11h,11h,09h,10h,10h,09h,11h,11h,09h,10h,10h,09h,11h,11h
	   09 01 01 01 09
	   11 11 11 11 09
	   10 10 09 11 11
	   09 10 10 09 11
	   11 09 10 10 09
	   11 11 09 10 10
	   09 11 11
 0000A6EF  11 11 11 11 09	                                            db  11h,11h,11h,11h,09h,01h,01h,01h,01h,01h,09h,11h,11h,11h,09h,10h,10h,09h,11h,11h,09h,10h,10h,09h,11h,11h,09h,10h,10h,09h,11h,11h,09h,10h,10h,09h,11h,11h
	   01 01 01 01 01
	   09 11 11 11 09
	   10 10 09 11 11
	   09 10 10 09 11
	   11 09 10 10 09
	   11 11 09 10 10
	   09 11 11
 0000A715  11 11 11 09 01	                                            db  11h,11h,11h,09h,01h,01h,01h,09h,01h,01h,01h,09h,11h,11h,09h,01h,01h,09h,09h,09h,09h,01h,01h,09h,11h,11h,09h,01h,01h,09h,09h,09h,09h,01h,01h,09h,11h,11h
	   01 01 09 01 01
	   01 09 11 11 09
	   01 01 09 09 09
	   09 01 01 09 11
	   11 09 01 01 09
	   09 09 09 01 01
	   09 11 11
 0000A73B  11 11 09 01 01	                                            db  11h,11h,09h,01h,01h,01h,09h,11h,09h,01h,01h,01h,09h,11h,09h,10h,10h,01h,10h,10h,01h,10h,10h,09h,11h,11h,09h,10h,10h,01h,10h,10h,01h,10h,10h,09h,11h,11h
	   01 09 11 09 01
	   01 01 09 11 09
	   10 10 01 10 10
	   01 10 10 09 11
	   11 09 10 10 01
	   10 10 01 10 10
	   09 11 11
 0000A761  11 11 09 01 01	                                            db  11h,11h,09h,01h,01h,01h,09h,11h,09h,01h,01h,01h,09h,11h,09h,10h,10h,01h,10h,10h,01h,10h,10h,09h,11h,11h,09h,10h,10h,01h,10h,10h,01h,10h,10h,09h,11h,11h
	   01 09 11 09 01
	   01 01 09 11 09
	   10 10 01 10 10
	   01 10 10 09 11
	   11 09 10 10 01
	   10 10 01 10 10
	   09 11 11
 0000A787  11 11 11 09 09	                                            db  11h,11h,11h,09h,09h,09h,11h,11h,11h,09h,09h,09h,11h,11h,11h,09h,09h,09h,09h,09h,09h,09h,09h,11h,11h,11h,11h,09h,09h,09h,09h,09h,09h,09h,09h,11h,11h,11h
	   09 11 11 11 09
	   09 09 11 11 11
	   09 09 09 09 09
	   09 09 09 11 11
	   11 11 09 09 09
	   09 09 09 09 09
	   11 11 11
 0000A7AD  00 00 2D		                                            db  0,0,45      ; Slightly brighter blue
 0000A7B0  00 00 15		                                            db  0,0,21      ; Darker background blue

 0000A7B3			 end_of_required_data:
 0000A7B3 0F 78 38 36 5F	    driver_primatives                       db  15, "x86_disassemble"
	   64 69 73 61 73
	   73 65 6D 62 6C
	   65
 0000A7C3  00000C0D R		                                            dd  offset x86_disassemble
 0000A7C7  0000			                                            dw  0

 0000A7C9  18 78 38 36 5F	                                            db  24, "x86_simplify_disassembly"
	   73 69 6D 70 6C
	   69 66 79 5F 64
	   69 73 61 73 73
	   65 6D 62 6C 79
 0000A7E2  000098EC R		                                            dd  offset x86_simplify_disassembly
 0000A7E6  0000			                                            dw  0

 0000A7E8  0C 78 38 36 5F	                                            db  12, "x86_assemble"
	   61 73 73 65 6D
	   62 6C 65
 0000A7F5  0000A47C R		                                            dd  offset x86_assemble
 0000A7F9  0000			                                            dw  0

 0000A7FB  0E 78 38 36 5F	                                            db  14, "x86_fpu_opcode"
	   66 70 75 5F 6F
	   70 63 6F 64 65
 0000A80A  00009ADA R		                                            dd  offset x86_fpu_opcode
 0000A80E  0000			                                            dw  0

 0000A810  FFFF			                                            dw  0ffffh              ; Teriminator

 A812				_TEXT32 ENDS

				END
